     d40:	ac448a58 	sw	a0,-30120(v0)
     d44:	03e00008 	jr	ra
     d48:	00001025 	move	v0,zero

00000d4c <M3U_clear>:
     d4c:	27bdffe8 	addiu	sp,sp,-24
     d50:	afb30010 	sw	s3,16(sp)
     d54:	3c13001f 	lui	s3,0x1f
     d58:	afb2000c 	sw	s2,12(sp)
     d5c:	26723b2c 	addiu	s2,s3,15148
     d60:	8e420108 	lw	v0,264(s2)
     d64:	afb10008 	sw	s1,8(sp)
     d68:	afb00004 	sw	s0,4(sp)
     d6c:	afbf0014 	sw	ra,20(sp)
     d70:	2650010c 	addiu	s0,s2,268
     d74:	18400011 	blez	v0,dbc <M3U_clear+0x70>
     d78:	00008825 	move	s1,zero
     d7c:	8e040000 	lw	a0,0(s0)
     d80:	5080000b 	beqzl	a0,db0 <M3U_clear+0x64>
     d84:	26310001 	addiu	s1,s1,1
     d88:	0c067e00 	jal	19f800 <free>
     d8c:	26310001 	addiu	s1,s1,1
     d90:	8e420108 	lw	v0,264(s2)
     d94:	0222202a 	slt	a0,s1,v0
     d98:	10800008 	beqz	a0,dbc <M3U_clear+0x70>
     d9c:	ae000000 	sw	zero,0(s0)
     da0:	8e040004 	lw	a0,4(s0)
     da4:	1480fff8 	bnez	a0,d88 <M3U_clear+0x3c>
     da8:	26100004 	addiu	s0,s0,4
     dac:	26310001 	addiu	s1,s1,1
     db0:	0222182a 	slt	v1,s1,v0
     db4:	5460fffb 	bnezl	v1,da4 <M3U_clear+0x58>
     db8:	8e040004 	lw	a0,4(s0)
     dbc:	8fbf0014 	lw	ra,20(sp)
     dc0:	8fb10008 	lw	s1,8(sp)
     dc4:	8fb00004 	lw	s0,4(sp)
     dc8:	ae400108 	sw	zero,264(s2)
     dcc:	ae404f2c 	sw	zero,20268(s2)
     dd0:	a2603b2c 	sb	zero,15148(s3)
     dd4:	8fb2000c 	lw	s2,12(sp)
     dd8:	8fb30010 	lw	s3,16(sp)
--
    1640:	240900ff 	li	t1,255
    1644:	10000004 	b	1658 <searchJPGstart.constprop.0+0x88>
    1648:	24080014 	li	t0,20
    164c:	24420001 	addiu	v0,v0,1
    1650:	1048000f 	beq	v0,t0,1690 <searchJPGstart.constprop.0+0xc0>
    1654:	2412ffff 	li	s2,-1
    1658:	02022021 	addu	a0,s0,v0
    165c:	90870000 	lbu	a3,0(a0)
    1660:	30c300ff 	andi	v1,a2,0xff
    1664:	a7a60000 	sh	a2,0(sp)
    1668:	14e3fff8 	bne	a3,v1,164c <searchJPGstart.constprop.0+0x7c>
    166c:	a3a50002 	sb	a1,2(sp)
    1670:	908a0001 	lbu	t2,1(a0)
    1674:	93ab0001 	lbu	t3,1(sp)
    1678:	554bfff5 	bnel	t2,t3,1650 <searchJPGstart.constprop.0+0x80>
    167c:	24420001 	addiu	v0,v0,1
    1680:	908c0002 	lbu	t4,2(a0)
    1684:	5589fff2 	bnel	t4,t1,1650 <searchJPGstart.constprop.0+0x80>
    1688:	24420001 	addiu	v0,v0,1
    168c:	02229021 	addu	s2,s1,v0
    1690:	0c067e00 	jal	19f800 <free>
    1694:	02002025 	move	a0,s0
    1698:	8fbf0014 	lw	ra,20(sp)
    169c:	8fb1000c 	lw	s1,12(sp)
    16a0:	8fb00008 	lw	s0,8(sp)
    16a4:	02401025 	move	v0,s2
    16a8:	8fb20010 	lw	s2,16(sp)
    16ac:	03e00008 	jr	ra
    16b0:	27bd0018 	addiu	sp,sp,24
    16b4:	1000fff8 	b	1698 <searchJPGstart.constprop.0+0xc8>
    16b8:	2412ffff 	li	s2,-1

000016bc <searchJPGstart>:
    16bc:	27bdffe0 	addiu	sp,sp,-32
    16c0:	afb30014 	sw	s3,20(sp)
    16c4:	00809825 	move	s3,a0
    16c8:	24a40002 	addiu	a0,a1,2
    16cc:	afb1000c 	sw	s1,12(sp)
    16d0:	afbf001c 	sw	ra,28(sp)
    16d4:	afb40018 	sw	s4,24(sp)
    16d8:	afb20010 	sw	s2,16(sp)
--
    1740:	240800ff 	li	t0,255
    1744:	24420001 	addiu	v0,v0,1
    1748:	12220011 	beq	s1,v0,1790 <searchJPGstart+0xd4>
    174c:	2414ffff 	li	s4,-1
    1750:	02022021 	addu	a0,s0,v0
    1754:	90870000 	lbu	a3,0(a0)
    1758:	30c300ff 	andi	v1,a2,0xff
    175c:	a7a60000 	sh	a2,0(sp)
    1760:	14e3fff8 	bne	a3,v1,1744 <searchJPGstart+0x88>
    1764:	a3a50002 	sb	a1,2(sp)
    1768:	90890001 	lbu	t1,1(a0)
    176c:	93aa0001 	lbu	t2,1(sp)
    1770:	552afff5 	bnel	t1,t2,1748 <searchJPGstart+0x8c>
    1774:	24420001 	addiu	v0,v0,1
    1778:	908b0002 	lbu	t3,2(a0)
    177c:	5568fff2 	bnel	t3,t0,1748 <searchJPGstart+0x8c>
    1780:	24420001 	addiu	v0,v0,1
    1784:	10000002 	b	1790 <searchJPGstart+0xd4>
    1788:	0242a021 	addu	s4,s2,v0
    178c:	2414ffff 	li	s4,-1
    1790:	0c067e00 	jal	19f800 <free>
    1794:	02002025 	move	a0,s0
    1798:	8fbf001c 	lw	ra,28(sp)
    179c:	8fb30014 	lw	s3,20(sp)
    17a0:	8fb20010 	lw	s2,16(sp)
    17a4:	8fb1000c 	lw	s1,12(sp)
    17a8:	8fb00008 	lw	s0,8(sp)
    17ac:	02801025 	move	v0,s4
    17b0:	8fb40018 	lw	s4,24(sp)
    17b4:	03e00008 	jr	ra
    17b8:	27bd0020 	addiu	sp,sp,32
    17bc:	1000fff6 	b	1798 <searchJPGstart+0xdc>
    17c0:	2414ffff 	li	s4,-1

000017c4 <searchPNGstart>:
    17c4:	27bdffc8 	addiu	sp,sp,-56
    17c8:	afb00014 	sw	s0,20(sp)
    17cc:	00808025 	move	s0,a0
    17d0:	24a4000f 	addiu	a0,a1,15
    17d4:	afb50028 	sw	s5,40(sp)
    17d8:	afbf0034 	sw	ra,52(sp)
--
    1854:	26945089 	addiu	s4,s4,20617
    1858:	26730a0d 	addiu	s3,s3,2573
    185c:	3c160d00 	lui	s6,0xd00
    1860:	10000003 	b	1870 <searchPNGstart+0xac>
    1864:	26524849 	addiu	s2,s2,18505
    1868:	52b0000e 	beql	s5,s0,18a4 <searchPNGstart+0xe0>
    186c:	2415ffff 	li	s5,-1
    1870:	24060010 	li	a2,16
    1874:	03a02825 	move	a1,sp
    1878:	02302021 	addu	a0,s1,s0
    187c:	afb40000 	sw	s4,0(sp)
    1880:	afb30004 	sw	s3,4(sp)
    1884:	afb60008 	sw	s6,8(sp)
    1888:	0c069578 	jal	1a55e0 <memcmp>
    188c:	afb2000c 	sw	s2,12(sp)
    1890:	5440fff5 	bnezl	v0,1868 <searchPNGstart+0xa4>
    1894:	26100001 	addiu	s0,s0,1
    1898:	10000002 	b	18a4 <searchPNGstart+0xe0>
    189c:	02f0a821 	addu	s5,s7,s0
    18a0:	2415ffff 	li	s5,-1
    18a4:	0c067e00 	jal	19f800 <free>
    18a8:	02202025 	move	a0,s1
    18ac:	8fbf0034 	lw	ra,52(sp)
    18b0:	8fb70030 	lw	s7,48(sp)
    18b4:	8fb6002c 	lw	s6,44(sp)
    18b8:	8fb40024 	lw	s4,36(sp)
    18bc:	8fb30020 	lw	s3,32(sp)
    18c0:	8fb2001c 	lw	s2,28(sp)
    18c4:	8fb10018 	lw	s1,24(sp)
    18c8:	8fb00014 	lw	s0,20(sp)
    18cc:	02a01025 	move	v0,s5
    18d0:	8fb50028 	lw	s5,40(sp)
    18d4:	03e00008 	jr	ra
    18d8:	27bd0038 	addiu	sp,sp,56
    18dc:	1000fff3 	b	18ac <searchPNGstart+0xe8>
    18e0:	2415ffff 	li	s5,-1

000018e4 <swapInt16BigToHost>:
    18e4:	7c0410a0 	wsbh	v0,a0
    18e8:	03e00008 	jr	ra
    18ec:	7c021620 	seh	v0,v0
--
    2150:	27165089 	addiu	s6,t8,20617
    2154:	afa50030 	sw	a1,48(sp)
    2158:	afa40034 	sw	a0,52(sp)
    215c:	8fbf0030 	lw	ra,48(sp)
    2160:	8fa80034 	lw	t0,52(sp)
    2164:	3c020d00 	lui	v0,0xd00
    2168:	24060010 	li	a2,16
    216c:	27a50014 	addiu	a1,sp,20
    2170:	02132021 	addu	a0,s0,s3
    2174:	afb60014 	sw	s6,20(sp)
    2178:	afbf0018 	sw	ra,24(sp)
    217c:	afa2001c 	sw	v0,28(sp)
    2180:	0c069578 	jal	1a55e0 <memcmp>
    2184:	afa80020 	sw	t0,32(sp)
    2188:	10400009 	beqz	v0,21b0 <ParseID3v2_2+0x5f8>
    218c:	24070014 	li	a3,20
    2190:	26730001 	addiu	s3,s3,1
    2194:	1667fff2 	bne	s3,a3,2160 <ParseID3v2_2+0x5a8>
    2198:	8fbf0030 	lw	ra,48(sp)
    219c:	2415ffff 	li	s5,-1
    21a0:	0c067e00 	jal	19f800 <free>
    21a4:	02002025 	move	a0,s0
    21a8:	1000ffb2 	b	2074 <ParseID3v2_2+0x4bc>
    21ac:	ae550548 	sw	s5,1352(s2)
    21b0:	8fa90038 	lw	t1,56(sp)
    21b4:	1000fffa 	b	21a0 <ParseID3v2_2+0x5e8>
    21b8:	0133a821 	addu	s5,t1,s3
    21bc:	2415ffff 	li	s5,-1
    21c0:	1000ffac 	b	2074 <ParseID3v2_2+0x4bc>
    21c4:	ae550548 	sw	s5,1352(s2)

000021c8 <ParseID3v2_3>:
    21c8:	27bdff90 	addiu	sp,sp,-112
    21cc:	afb00048 	sw	s0,72(sp)
    21d0:	00808025 	move	s0,a0
    21d4:	afb40058 	sw	s4,88(sp)
    21d8:	afb30054 	sw	s3,84(sp)
    21dc:	afbf006c 	sw	ra,108(sp)
    21e0:	afbe0068 	sw	s8,104(sp)
    21e4:	afb70064 	sw	s7,100(sp)
    21e8:	afb60060 	sw	s6,96(sp)
--
    2708:	271e5089 	addiu	s8,t8,20617
    270c:	afa20038 	sw	v0,56(sp)
    2710:	afa4003c 	sw	a0,60(sp)
    2714:	8fbf0038 	lw	ra,56(sp)
    2718:	8fa7003c 	lw	a3,60(sp)
    271c:	3c090d00 	lui	t1,0xd00
    2720:	24060010 	li	a2,16
    2724:	27a50014 	addiu	a1,sp,20
    2728:	02532021 	addu	a0,s2,s3
    272c:	afbe0014 	sw	s8,20(sp)
    2730:	afbf0018 	sw	ra,24(sp)
    2734:	afa9001c 	sw	t1,28(sp)
    2738:	0c069578 	jal	1a55e0 <memcmp>
    273c:	afa70020 	sw	a3,32(sp)
    2740:	10400009 	beqz	v0,2768 <ParseID3v2_3+0x5a0>
    2744:	24050014 	li	a1,20
    2748:	26730001 	addiu	s3,s3,1
    274c:	1665fff2 	bne	s3,a1,2718 <ParseID3v2_3+0x550>
    2750:	8fbf0038 	lw	ra,56(sp)
    2754:	241effff 	li	s8,-1
    2758:	0c067e00 	jal	19f800 <free>
    275c:	02402025 	move	a0,s2
    2760:	1000ff19 	b	23c8 <ParseID3v2_3+0x200>
    2764:	ae9e0548 	sw	s8,1352(s4)
    2768:	8fa60040 	lw	a2,64(sp)
    276c:	1000fffa 	b	2758 <ParseID3v2_3+0x590>
    2770:	00d3f021 	addu	s8,a2,s3
    2774:	241effff 	li	s8,-1
    2778:	1000ff13 	b	23c8 <ParseID3v2_3+0x200>
    277c:	ae9e0548 	sw	s8,1352(s4)

00002780 <ParseID3v2_4>:
    2780:	27bdff90 	addiu	sp,sp,-112
    2784:	afb00048 	sw	s0,72(sp)
    2788:	00808025 	move	s0,a0
    278c:	afb40058 	sw	s4,88(sp)
    2790:	afb30054 	sw	s3,84(sp)
    2794:	afbf006c 	sw	ra,108(sp)
    2798:	afbe0068 	sw	s8,104(sp)
    279c:	afb70064 	sw	s7,100(sp)
    27a0:	afb60060 	sw	s6,96(sp)
--
    2c18:	271e5089 	addiu	s8,t8,20617
    2c1c:	afa20038 	sw	v0,56(sp)
    2c20:	afa4003c 	sw	a0,60(sp)
    2c24:	8fbf0038 	lw	ra,56(sp)
    2c28:	8fa7003c 	lw	a3,60(sp)
    2c2c:	3c090d00 	lui	t1,0xd00
    2c30:	24060010 	li	a2,16
    2c34:	27a50014 	addiu	a1,sp,20
    2c38:	02532021 	addu	a0,s2,s3
    2c3c:	afbe0014 	sw	s8,20(sp)
    2c40:	afbf0018 	sw	ra,24(sp)
    2c44:	afa9001c 	sw	t1,28(sp)
    2c48:	0c069578 	jal	1a55e0 <memcmp>
    2c4c:	afa70020 	sw	a3,32(sp)
    2c50:	10400009 	beqz	v0,2c78 <ParseID3v2_4+0x4f8>
    2c54:	24050014 	li	a1,20
    2c58:	26730001 	addiu	s3,s3,1
    2c5c:	1665fff2 	bne	s3,a1,2c28 <ParseID3v2_4+0x4a8>
    2c60:	8fbf0038 	lw	ra,56(sp)
    2c64:	241effff 	li	s8,-1
    2c68:	0c067e00 	jal	19f800 <free>
    2c6c:	02402025 	move	a0,s2
    2c70:	1000ff43 	b	2980 <ParseID3v2_4+0x200>
    2c74:	ae9e0548 	sw	s8,1352(s4)
    2c78:	8fa60040 	lw	a2,64(sp)
    2c7c:	1000fffa 	b	2c68 <ParseID3v2_4+0x4e8>
    2c80:	00d3f021 	addu	s8,a2,s3
    2c84:	241effff 	li	s8,-1
    2c88:	1000ff3d 	b	2980 <ParseID3v2_4+0x200>
    2c8c:	ae9e0548 	sw	s8,1352(s4)

00002c90 <ParseID3v2>:
    2c90:	27bdffe0 	addiu	sp,sp,-32
    2c94:	240601ff 	li	a2,511
    2c98:	afb10018 	sw	s1,24(sp)
    2c9c:	00a08825 	move	s1,a1
    2ca0:	24050001 	li	a1,1
    2ca4:	afb00014 	sw	s0,20(sp)
    2ca8:	afbf001c 	sw	ra,28(sp)
    2cac:	0c06fc96 	jal	1bf258 <sceIoOpen>
    2cb0:	00808025 	move	s0,a0
--
    46b0:	260412b0 	addiu	a0,s0,4784
    46b4:	2404012c 	li	a0,300
    46b8:	0c067dfc 	jal	19f7f0 <malloc>
    46bc:	0040a825 	move	s5,v0
    46c0:	104002d4 	beqz	v0,5214 <MP3getInfo+0xc0c>
    46c4:	00409025 	move	s2,v0
    46c8:	2406012c 	li	a2,300
    46cc:	00402825 	move	a1,v0
    46d0:	0c06fc98 	jal	1bf260 <sceIoRead>
    46d4:	02202025 	move	a0,s1
    46d8:	03a03025 	move	a2,sp
    46dc:	00002825 	move	a1,zero
    46e0:	0c000ca0 	jal	3280 <parse_xing>
    46e4:	02402025 	move	a0,s2
    46e8:	54400173 	bnezl	v0,4cb8 <MP3getInfo+0x6b0>
    46ec:	8fa40000 	lw	a0,0(sp)
    46f0:	3c080007 	lui	t0,0x7
    46f4:	0000f025 	move	s8,zero
    46f8:	00008025 	move	s0,zero
    46fc:	3514c000 	ori	s4,t0,0xc000
    4700:	0c067e00 	jal	19f800 <free>
    4704:	02402025 	move	a0,s2
    4708:	8fb600e0 	lw	s6,224(sp)
    470c:	00003025 	move	a2,zero
    4710:	02a02825 	move	a1,s5
    4714:	0c06fc9e 	jal	1bf278 <sceIoLseek32>
    4718:	02c02025 	move	a0,s6
    471c:	0c003929 	jal	e4a4 <SeekNextFrameMP3>
    4720:	02c02025 	move	a0,s6
    4724:	0c067304 	jal	19cc10 <__floatsidf>
    4728:	00402025 	move	a0,v0
    472c:	02602025 	move	a0,s3
    4730:	00408825 	move	s1,v0
    4734:	0060b825 	move	s7,v1
    4738:	afa200f8 	sw	v0,248(sp)
    473c:	0c067304 	jal	19cc10 <__floatsidf>
    4740:	afa300fc 	sw	v1,252(sp)
    4744:	00402025 	move	a0,v0
    4748:	02203025 	move	a2,s1
    474c:	02e03825 	move	a3,s7
    4750:	0c06700e 	jal	19c038 <__subdf3>
--
    4984:	8fa40074 	lw	a0,116(sp)
    4988:	10800005 	beqz	a0,49a0 <MP3getInfo+0x398>
    498c:	8fad00b0 	lw	t5,176(sp)
    4990:	11be0003 	beq	t5,s8,49a0 <MP3getInfo+0x398>
    4994:	31aeff00 	andi	t6,t5,0xff00
    4998:	15c0ffa7 	bnez	t6,4838 <MP3getInfo+0x230>
    499c:	27a50074 	addiu	a1,sp,116
    49a0:	0000a825 	move	s5,zero
    49a4:	8fb600e8 	lw	s6,232(sp)
    49a8:	12960005 	beq	s4,s6,49c0 <MP3getInfo+0x3b8>
    49ac:	00000000 	nop
    49b0:	12e000e5 	beqz	s7,4d48 <MP3getInfo+0x740>
    49b4:	3c055555 	lui	a1,0x5555
    49b8:	12fe0104 	beq	s7,s8,4dcc <MP3getInfo+0x7c4>
    49bc:	3c185555 	lui	t8,0x5555
    49c0:	0c04f048 	jal	13c120 <mad_stream_finish>
    49c4:	27a40074 	addiu	a0,sp,116
    49c8:	8fa400e4 	lw	a0,228(sp)
    49cc:	10800003 	beqz	a0,49dc <MP3getInfo+0x3d4>
    49d0:	00000000 	nop
    49d4:	0c067e00 	jal	19f800 <free>
    49d8:	00000000 	nop
    49dc:	0c06fc94 	jal	1bf250 <sceIoClose>
    49e0:	8fa400e0 	lw	a0,224(sp)
    49e4:	8e620078 	lw	v0,120(s3)
    49e8:	504000bc 	beqzl	v0,4cdc <MP3getInfo+0x6d4>
    49ec:	8fb400e8 	lw	s4,232(sp)
    49f0:	3c1091a2 	lui	s0,0x91a2
    49f4:	3613b3c5 	ori	s3,s0,0xb3c5
    49f8:	00530018 	mult	v0,s3
    49fc:	000297c3 	sra	s2,v0,0x1f
    4a00:	3c088888 	lui	t0,0x8888
    4a04:	35098889 	ori	t1,t0,0x8889
    4a08:	3c11001c 	lui	s1,0x1c
    4a0c:	3c04002f 	lui	a0,0x2f
    4a10:	2626fd24 	addiu	a2,s1,-732
    4a14:	2405000c 	li	a1,12
    4a18:	2484e81c 	addiu	a0,a0,-6116
    4a1c:	00006010 	mfhi	t4
    4a20:	01826821 	addu	t5,t4,v0
    4a24:	000d72c3 	sra	t6,t5,0xb
--
    4f54:	0c067304 	jal	19cc10 <__floatsidf>
    4f58:	02be2023 	subu	a0,s5,s8
    4f5c:	8fa600f8 	lw	a2,248(sp)
    4f60:	8fa700fc 	lw	a3,252(sp)
    4f64:	00402025 	move	a0,v0
    4f68:	0c066f10 	jal	19bc40 <__adddf3>
    4f6c:	00602825 	move	a1,v1
    4f70:	00602825 	move	a1,v1
    4f74:	0c0668e4 	jal	19a390 <__fixdfdi>
    4f78:	00402025 	move	a0,v0
    4f7c:	8fa400e0 	lw	a0,224(sp)
    4f80:	00004025 	move	t0,zero
    4f84:	00403025 	move	a2,v0
    4f88:	0c06fc9c 	jal	1bf270 <sceIoLseek>
    4f8c:	00603825 	move	a3,v1
    4f90:	0c04f048 	jal	13c120 <mad_stream_finish>
    4f94:	27a40074 	addiu	a0,sp,116
    4f98:	8fb200e4 	lw	s2,228(sp)
    4f9c:	12400003 	beqz	s2,4fac <MP3getInfo+0x9a4>
    4fa0:	8fa400e4 	lw	a0,228(sp)
    4fa4:	0c067e00 	jal	19f800 <free>
    4fa8:	00000000 	nop
    4fac:	0c06fc94 	jal	1bf250 <sceIoClose>
    4fb0:	8fa400e0 	lw	a0,224(sp)
    4fb4:	8fa50004 	lw	a1,4(sp)
    4fb8:	0c050130 	jal	1404c0 <mad_timer_multiply>
    4fbc:	27a400d8 	addiu	a0,sp,216
    4fc0:	27a400d8 	addiu	a0,sp,216
    4fc4:	0c050169 	jal	1405a4 <mad_timer_count>
    4fc8:	00002825 	move	a1,zero
    4fcc:	1000fe88 	b	49f0 <MP3getInfo+0x3e8>
    4fd0:	ae620078 	sw	v0,120(s3)
    4fd4:	8fb10074 	lw	s1,116(sp)
    4fd8:	1220ffd7 	beqz	s1,4f38 <MP3getInfo+0x930>
    4fdc:	8fae00b0 	lw	t6,176(sp)
    4fe0:	11d2ffd5 	beq	t6,s2,4f38 <MP3getInfo+0x930>
    4fe4:	31cfff00 	andi	t7,t6,0xff00
    4fe8:	11e0ffd4 	beqz	t7,4f3c <MP3getInfo+0x934>
    4fec:	8fb800e8 	lw	t8,232(sp)
    4ff0:	1000ff92 	b	4e3c <MP3getInfo+0x834>
    4ff4:	27a50074 	addiu	a1,sp,116
--
    79ac:	8fa80010 	lw	t0,16(sp)
    79b0:	8d124f80 	lw	s2,20352(t0)
    79b4:	12400030 	beqz	s2,7a78 <AACdecodeThread+0x294>
    79b8:	24061000 	li	a2,4096
    79bc:	8fa4000c 	lw	a0,12(sp)
    79c0:	0c067a05 	jal	19e814 <memset>
    79c4:	00002825 	move	a1,zero
    79c8:	8e84f840 	lw	a0,-1984(s4)
    79cc:	03a02825 	move	a1,sp
    79d0:	0c06fc98 	jal	1bf260 <sceIoRead>
    79d4:	24060007 	li	a2,7
    79d8:	24050007 	li	a1,7
    79dc:	14450025 	bne	v0,a1,7a74 <AACdecodeThread+0x290>
    79e0:	24180001 	li	t8,1
    79e4:	8bb00006 	lwl	s0,6(sp)
    79e8:	9bb00003 	lwr	s0,3(sp)
    79ec:	7c1030e0 	wsbw	a2,s0
    79f0:	7cd06340 	ext	s0,a2,0xd,0xd
    79f4:	12200003 	beqz	s1,7a04 <AACdecodeThread+0x220>
    79f8:	2612fff9 	addiu	s2,s0,-7
    79fc:	0c067e00 	jal	19f800 <free>
    7a00:	02202025 	move	a0,s1
    7a04:	02402825 	move	a1,s2
    7a08:	0c06a39c 	jal	1a8e70 <memalign>
    7a0c:	24040040 	li	a0,64
    7a10:	8ed71184 	lw	s7,4484(s6)
    7a14:	8ede1180 	lw	s8,4480(s6)
    7a18:	8e91f840 	lw	s1,-1984(s4)
    7a1c:	02e02825 	move	a1,s7
    7a20:	03c02025 	move	a0,s8
    7a24:	00003025 	move	a2,zero
    7a28:	00003825 	move	a3,zero
    7a2c:	afb10008 	sw	s1,8(sp)
    7a30:	0c067291 	jal	19ca44 <__gedf2>
    7a34:	00408825 	move	s1,v0
    7a38:	04410076 	bgez	v0,7c14 <AACdecodeThread+0x430>
    7a3c:	8fa90018 	lw	t1,24(sp)
    7a40:	8d2a49b4 	lw	t2,18868(t1)
    7a44:	11400004 	beqz	t2,7a58 <AACdecodeThread+0x274>
    7a48:	8fab001c 	lw	t3,28(sp)
    7a4c:	156000b8 	bnez	t3,7d30 <AACdecodeThread+0x54c>
--
    7e48:	02002025 	move	a0,s0
    7e4c:	26f70001 	addiu	s7,s7,1
    7e50:	8e6ef848 	lw	t6,-1976(s3)
    7e54:	16fefff6 	bne	s7,s8,7e30 <AACdecodeThread+0x64c>
    7e58:	a6020000 	sh	v0,0(s0)
    7e5c:	000e7b00 	sll	t7,t6,0xc
    7e60:	1000ff4e 	b	7b9c <AACdecodeThread+0x3b8>
    7e64:	024f2821 	addu	a1,s2,t7
    7e68:	8e84f840 	lw	a0,-1984(s4)
    7e6c:	1080ff0f 	beqz	a0,7aac <AACdecodeThread+0x2c8>
    7e70:	8fb50028 	lw	s5,40(sp)
    7e74:	0c06fc94 	jal	1bf250 <sceIoClose>
    7e78:	00000000 	nop
    7e7c:	1000ff0b 	b	7aac <AACdecodeThread+0x2c8>
    7e80:	8fb50028 	lw	s5,40(sp)
    7e84:	8e84f840 	lw	a0,-1984(s4)
    7e88:	14800017 	bnez	a0,7ee8 <AACdecodeThread+0x704>
    7e8c:	00000000 	nop
    7e90:	1220ff06 	beqz	s1,7aac <AACdecodeThread+0x2c8>
    7e94:	8fb50028 	lw	s5,40(sp)
    7e98:	0c067e00 	jal	19f800 <free>
    7e9c:	02202025 	move	a0,s1
    7ea0:	1000ff02 	b	7aac <AACdecodeThread+0x2c8>
    7ea4:	8fb50028 	lw	s5,40(sp)
    7ea8:	33df0001 	andi	ra,s8,0x1
    7eac:	001e6042 	srl	t4,s8,0x1
    7eb0:	03ec2825 	or	a1,ra,t4
    7eb4:	44854000 	mtc1	a1,$f8
    7eb8:	00000000 	nop
    7ebc:	46804260 	cvt.s.w	$f9,$f8
    7ec0:	1000ffb4 	b	7d94 <AACdecodeThread+0x5b0>
    7ec4:	46094a80 	add.s	$f10,$f9,$f9
    7ec8:	31b70001 	andi	s7,t5,0x1
    7ecc:	000d3042 	srl	a2,t5,0x1
    7ed0:	02e67025 	or	t6,s7,a2
    7ed4:	448e8800 	mtc1	t6,$f17
    7ed8:	00000000 	nop
    7edc:	46808ca0 	cvt.s.w	$f18,$f17
    7ee0:	1000ffb7 	b	7dc0 <AACdecodeThread+0x5dc>
    7ee4:	461294c0 	add.s	$f19,$f18,$f18
    7ee8:	0c06fc94 	jal	1bf250 <sceIoClose>
--
    9da0:	0c06fc9e 	jal	1bf278 <sceIoLseek32>
    9da4:	afa200f8 	sw	v0,248(sp)
    9da8:	0c067dfc 	jal	19f7f0 <malloc>
    9dac:	2404012c 	li	a0,300
    9db0:	104002c9 	beqz	v0,a8d8 <MP3MEgetInfo+0xc0c>
    9db4:	0040a825 	move	s5,v0
    9db8:	2406012c 	li	a2,300
    9dbc:	00402825 	move	a1,v0
    9dc0:	0c06fc98 	jal	1bf260 <sceIoRead>
    9dc4:	02202025 	move	a0,s1
    9dc8:	03a03025 	move	a2,sp
    9dcc:	00002825 	move	a1,zero
    9dd0:	0c000ca0 	jal	3280 <parse_xing>
    9dd4:	02a02025 	move	a0,s5
    9dd8:	14400167 	bnez	v0,a378 <MP3MEgetInfo+0x6ac>
    9ddc:	8fa60000 	lw	a2,0(sp)
    9de0:	3c0d0007 	lui	t5,0x7
    9de4:	0000b025 	move	s6,zero
    9de8:	afa000f0 	sw	zero,240(sp)
    9dec:	35b4c000 	ori	s4,t5,0xc000
    9df0:	0c067e00 	jal	19f800 <free>
    9df4:	02a02025 	move	a0,s5
    9df8:	0c067304 	jal	19cc10 <__floatsidf>
    9dfc:	02402025 	move	a0,s2
    9e00:	8fa600f8 	lw	a2,248(sp)
    9e04:	8fa700fc 	lw	a3,252(sp)
    9e08:	00402025 	move	a0,v0
    9e0c:	0c06700e 	jal	19c038 <__subdf3>
    9e10:	00602825 	move	a1,v1
    9e14:	00602825 	move	a1,v1
    9e18:	0c06732e 	jal	19ccb8 <__fixdfsi>
    9e1c:	00402025 	move	a0,v0
    9e20:	3c170017 	lui	s7,0x17
    9e24:	3c0e0002 	lui	t6,0x2
    9e28:	25cf5800 	addiu	t7,t6,22528
    9e2c:	26f84000 	addiu	t8,s7,16384
    9e30:	0316780a 	movz	t7,t8,s6
    9e34:	004fc82a 	slt	t9,v0,t7
    9e38:	0059a00b 	movn	s4,v0,t9
    9e3c:	24050001 	li	a1,1
    9e40:	02802025 	move	a0,s4
--
    a040:	8fa40074 	lw	a0,116(sp)
    a044:	10800005 	beqz	a0,a05c <MP3MEgetInfo+0x390>
    a048:	8fad00b0 	lw	t5,176(sp)
    a04c:	11b70003 	beq	t5,s7,a05c <MP3MEgetInfo+0x390>
    a050:	31aeff00 	andi	t6,t5,0xff00
    a054:	15c0ffa9 	bnez	t6,9efc <MP3MEgetInfo+0x230>
    a058:	27a50074 	addiu	a1,sp,116
    a05c:	0000a825 	move	s5,zero
    a060:	8fb600e8 	lw	s6,232(sp)
    a064:	12960005 	beq	s4,s6,a07c <MP3MEgetInfo+0x3b0>
    a068:	00000000 	nop
    a06c:	13c000e6 	beqz	s8,a408 <MP3MEgetInfo+0x73c>
    a070:	3c095555 	lui	t1,0x5555
    a074:	13d70175 	beq	s8,s7,a64c <MP3MEgetInfo+0x980>
    a078:	3c0f5555 	lui	t7,0x5555
    a07c:	0c04f048 	jal	13c120 <mad_stream_finish>
    a080:	27a40074 	addiu	a0,sp,116
    a084:	8fb400e0 	lw	s4,224(sp)
    a088:	1280020f 	beqz	s4,a8c8 <MP3MEgetInfo+0xbfc>
    a08c:	00000000 	nop
    a090:	0c067e00 	jal	19f800 <free>
    a094:	8fa400e0 	lw	a0,224(sp)
    a098:	0c06fc94 	jal	1bf250 <sceIoClose>
    a09c:	8fa400e4 	lw	a0,228(sp)
    a0a0:	8fb700f0 	lw	s7,240(sp)
    a0a4:	16e0015e 	bnez	s7,a620 <MP3MEgetInfo+0x954>
    a0a8:	8fa50004 	lw	a1,4(sp)
    a0ac:	8e620078 	lw	v0,120(s3)
    a0b0:	104000ba 	beqz	v0,a39c <MP3MEgetInfo+0x6d0>
    a0b4:	8fa500e8 	lw	a1,232(sp)
    a0b8:	3c1191a2 	lui	s1,0x91a2
    a0bc:	3630b3c5 	ori	s0,s1,0xb3c5
    a0c0:	00500018 	mult	v0,s0
    a0c4:	00026fc3 	sra	t5,v0,0x1f
    a0c8:	3c0b8888 	lui	t3,0x8888
    a0cc:	357e8889 	ori	s8,t3,0x8889
    a0d0:	3c04001c 	lui	a0,0x1c
    a0d4:	3c0e0022 	lui	t6,0x22
    a0d8:	2486fd24 	addiu	a2,a0,-732
    a0dc:	2405000c 	li	a1,12
    a0e0:	25c4c624 	addiu	a0,t6,-14812
--
   11a7c:	3646b000 	ori	a2,s2,0xb000
   11a80:	24050001 	li	a1,1
   11a84:	0c0691c6 	jal	1a4718 <fread>
   11a88:	00402025 	move	a0,v0
   11a8c:	0c068b1a 	jal	1a2c68 <fclose>
   11a90:	02802025 	move	a0,s4
   11a94:	8e660000 	lw	a2,0(s3)
   11a98:	3c0275b2 	lui	v0,0x75b2
   11a9c:	3c0311cf 	lui	v1,0x11cf
   11aa0:	3c09aa00 	lui	t1,0xaa00
   11aa4:	3c0b6cce 	lui	t3,0x6cce
   11aa8:	24472630 	addiu	a3,v0,9776
   11aac:	2468668e 	addiu	t0,v1,26254
   11ab0:	352ad9a6 	ori	t2,t1,0xd9a6
   11ab4:	256c6200 	addiu	t4,t3,25088
   11ab8:	afa70000 	sw	a3,0(sp)
   11abc:	afa80004 	sw	t0,4(sp)
   11ac0:	afaa0008 	sw	t2,8(sp)
   11ac4:	10c70024 	beq	a2,a3,11b58 <getWMATagInfo+0x168>
   11ac8:	afac000c 	sw	t4,12(sp)
   11acc:	0c067e00 	jal	19f800 <free>
   11ad0:	02602025 	move	a0,s3
   11ad4:	261705c0 	addiu	s7,s0,1472
   11ad8:	02006825 	move	t5,s0
   11adc:	3c100027 	lui	s0,0x27
   11ae0:	260e0868 	addiu	t6,s0,2152
   11ae4:	8db30000 	lw	s3,0(t5)
   11ae8:	8daa0004 	lw	t2,4(t5)
   11aec:	8dab0008 	lw	t3,8(t5)
   11af0:	8dac000c 	lw	t4,12(t5)
   11af4:	25ad0010 	addiu	t5,t5,16
   11af8:	add30000 	sw	s3,0(t6)
   11afc:	adca0004 	sw	t2,4(t6)
   11b00:	adcb0008 	sw	t3,8(t6)
   11b04:	adcc000c 	sw	t4,12(t6)
   11b08:	15b7fff6 	bne	t5,s7,11ae4 <getWMATagInfo+0xf4>
   11b0c:	25ce0010 	addiu	t6,t6,16
   11b10:	8db70000 	lw	s7,0(t5)
   11b14:	8daf0004 	lw	t7,4(t5)
   11b18:	3c160027 	lui	s6,0x27
   11b1c:	add70000 	sw	s7,0(t6)
--
   11c2c:	1440ffe3 	bnez	v0,11bbc <getWMATagInfo+0x1cc>
   11c30:	00408825 	move	s1,v0
   11c34:	240601f4 	li	a2,500
   11c38:	02402825 	move	a1,s2
   11c3c:	0c00434b 	jal	10d2c <wmaSearchContentStart>
   11c40:	02722021 	addu	a0,s3,s2
   11c44:	04400064 	bltz	v0,11dd8 <getWMATagInfo+0x3e8>
   11c48:	240601f4 	li	a2,500
   11c4c:	03a03025 	move	a2,sp
   11c50:	24450018 	addiu	a1,v0,24
   11c54:	0c004385 	jal	10e14 <wmaReadContentTag>
   11c58:	02602025 	move	a0,s3
   11c5c:	83b40108 	lb	s4,264(sp)
   11c60:	12800004 	beqz	s4,11c74 <getWMATagInfo+0x284>
   11c64:	83b10004 	lb	s1,4(sp)
   11c68:	821503ac 	lb	s5,940(s0)
   11c6c:	12a00070 	beqz	s5,11e30 <getWMATagInfo+0x440>
   11c70:	27a50108 	addiu	a1,sp,264
   11c74:	1620005f 	bnez	s1,11df4 <getWMATagInfo+0x404>
   11c78:	27a50004 	addiu	a1,sp,4
   11c7c:	0c067e00 	jal	19f800 <free>
   11c80:	02602025 	move	a0,s3
   11c84:	1000ff95 	b	11adc <getWMATagInfo+0xec>
   11c88:	02006825 	move	t5,s0
   11c8c:	3c0e0045 	lui	t6,0x45
   11c90:	25cf5255 	addiu	t7,t6,21077
   11c94:	15afffe1 	bne	t5,t7,11c1c <getWMATagInfo+0x22c>
   11c98:	02209025 	move	s2,s1
   11c9c:	8fbf0120 	lw	ra,288(sp)
   11ca0:	8fa40124 	lw	a0,292(sp)
   11ca4:	97b6001e 	lhu	s6,30(sp)
   11ca8:	2419504a 	li	t9,20554
   11cac:	ae1f0094 	sw	ra,148(s0)
   11cb0:	12d90054 	beq	s6,t9,11e04 <getWMATagInfo+0x414>
   11cb4:	ae040098 	sw	a0,152(s0)
   11cb8:	97a7001e 	lhu	a3,30(sp)
   11cbc:	24024e50 	li	v0,20048
   11cc0:	14e2ffd6 	bne	a3,v0,11c1c <getWMATagInfo+0x22c>
   11cc4:	02209025 	move	s2,s1
   11cc8:	97a80020 	lhu	t0,32(sp)
   11ccc:	24030047 	li	v1,71
--
   13958:	8fa40000 	lw	a0,0(sp)
   1395c:	0060a025 	move	s4,v1
   13960:	1040ffe9 	beqz	v0,13908 <fat_load_table+0x12c>
   13964:	ac621078 	sw	v0,4216(v1)
   13968:	02203025 	move	a2,s1
   1396c:	0c06fc98 	jal	1bf260 <sceIoRead>
   13970:	00402825 	move	a1,v0
   13974:	1451000e 	bne	v0,s1,139b0 <fat_load_table+0x1d4>
   13978:	8e4212a4 	lw	v0,4772(s2)
   1397c:	1040003a 	beqz	v0,13a68 <fat_load_table+0x28c>
   13980:	8fb20004 	lw	s2,4(sp)
   13984:	24060001 	li	a2,1
   13988:	10460012 	beq	v0,a2,139d4 <fat_load_table+0x1f8>
   1398c:	24020001 	li	v0,1
   13990:	1000ff9e 	b	1380c <fat_load_table+0x30>
   13994:	8fbf0024 	lw	ra,36(sp)
   13998:	3c0a0027 	lui	t2,0x27
   1399c:	2549127c 	addiu	t1,t2,4732
   139a0:	1000ffb4 	b	13874 <fat_load_table+0x98>
   139a4:	8d310024 	lw	s1,36(t1)
   139a8:	0c067e00 	jal	19f800 <free>
   139ac:	01802025 	move	a0,t4
   139b0:	8e6412a8 	lw	a0,4776(s3)
   139b4:	0c06fc94 	jal	1bf250 <sceIoClose>
   139b8:	2410ffff 	li	s0,-1
   139bc:	8e841078 	lw	a0,4216(s4)
   139c0:	0c067e00 	jal	19f800 <free>
   139c4:	ae7012a8 	sw	s0,4776(s3)
   139c8:	ae801078 	sw	zero,4216(s4)
   139cc:	1000ffd3 	b	1391c <fat_load_table+0x140>
   139d0:	00001025 	move	v0,zero
   139d4:	9245000c 	lbu	a1,12(s2)
   139d8:	9247000b 	lbu	a3,11(s2)
   139dc:	96480016 	lhu	t0,22(s2)
   139e0:	00055a00 	sll	t3,a1,0x8
   139e4:	01674825 	or	t1,t3,a3
   139e8:	01090018 	mult	t0,t1
   139ec:	00008812 	mflo	s1
   139f0:	0c067dfc 	jal	19f7f0 <malloc>
   139f4:	02202025 	move	a0,s1
   139f8:	1040ffed 	beqz	v0,139b0 <fat_load_table+0x1d4>
   139fc:	8e851078 	lw	a1,4216(s4)
   13a00:	02203025 	move	a2,s1
   13a04:	00402025 	move	a0,v0
   13a08:	afa50000 	sw	a1,0(sp)
   13a0c:	0c067a4c 	jal	19e930 <memcpy>
   13a10:	afa20004 	sw	v0,4(sp)
   13a14:	8fa40000 	lw	a0,0(sp)
   13a18:	0c067e00 	jal	19f800 <free>
   13a1c:	00119042 	srl	s2,s1,0x1
   13a20:	0c067dfc 	jal	19f7f0 <malloc>
   13a24:	00122080 	sll	a0,s2,0x2
   13a28:	ae821078 	sw	v0,4216(s4)
   13a2c:	1040004e 	beqz	v0,13b68 <fat_load_table+0x38c>
   13a30:	8fac0004 	lw	t4,4(sp)
   13a34:	12400008 	beqz	s2,13a58 <fat_load_table+0x27c>
   13a38:	00129840 	sll	s3,s2,0x1
   13a3c:	01807025 	move	t6,t4
   13a40:	01936821 	addu	t5,t4,s3
   13a44:	95ca0000 	lhu	t2,0(t6)
   13a48:	25ce0002 	addiu	t6,t6,2
   13a4c:	24420004 	addiu	v0,v0,4
   13a50:	15aefffc 	bne	t5,t6,13a44 <fat_load_table+0x268>
   13a54:	ac4afffc 	sw	t2,-4(v0)
   13a58:	0c067e00 	jal	19f800 <free>
   13a5c:	01802025 	move	a0,t4
   13a60:	1000ff69 	b	13808 <fat_load_table+0x2c>
   13a64:	24020001 	li	v0,1
   13a68:	924f000c 	lbu	t7,12(s2)
   13a6c:	9258000b 	lbu	t8,11(s2)
   13a70:	96590016 	lhu	t9,22(s2)
   13a74:	000ffa00 	sll	ra,t7,0x8
   13a78:	03f81825 	or	v1,ra,t8
   13a7c:	03230018 	mult	t9,v1
   13a80:	00008812 	mflo	s1
   13a84:	0c067dfc 	jal	19f7f0 <malloc>
   13a88:	02202025 	move	a0,s1
   13a8c:	1040ffc8 	beqz	v0,139b0 <fat_load_table+0x1d4>
   13a90:	8e851078 	lw	a1,4216(s4)
   13a94:	02203025 	move	a2,s1
   13a98:	00402025 	move	a0,v0
   13a9c:	afa50004 	sw	a1,4(sp)
   13aa0:	0c067a4c 	jal	19e930 <memcpy>
   13aa4:	afa20008 	sw	v0,8(sp)
   13aa8:	3c02aaaa 	lui	v0,0xaaaa
   13aac:	00112042 	srl	a0,s1,0x1
   13ab0:	00043080 	sll	a2,a0,0x2
   13ab4:	3445aaab 	ori	a1,v0,0xaaab
   13ab8:	00c50019 	multu	a2,a1
   13abc:	8fa40004 	lw	a0,4(sp)
   13ac0:	afa60000 	sw	a2,0(sp)
   13ac4:	00003810 	mfhi	a3
   13ac8:	0c067e00 	jal	19f800 <free>
   13acc:	00079042 	srl	s2,a3,0x1
   13ad0:	0c067dfc 	jal	19f7f0 <malloc>
   13ad4:	00122080 	sll	a0,s2,0x2
   13ad8:	ae821078 	sw	v0,4216(s4)
   13adc:	1040ffb2 	beqz	v0,139a8 <fat_load_table+0x1cc>
   13ae0:	8fac0008 	lw	t4,8(sp)
   13ae4:	8fb40000 	lw	s4,0(sp)
   13ae8:	2e880003 	sltiu	t0,s4,3
   13aec:	1500001a 	bnez	t0,13b58 <fat_load_table+0x37c>
   13af0:	264bffff 	addiu	t3,s2,-1
   13af4:	000b4882 	srl	t1,t3,0x2
   13af8:	25330001 	addiu	s3,t1,1
   13afc:	00136900 	sll	t5,s3,0x4
   13b00:	01802825 	move	a1,t4
   13b04:	004d5021 	addu	t2,v0,t5
   13b08:	94ae0002 	lhu	t6,2(a1)
   13b0c:	94af0004 	lhu	t7,4(a1)
   13b10:	94b80000 	lhu	t8,0(a1)
   13b14:	000ec900 	sll	t9,t6,0x4
   13b18:	000ffa00 	sll	ra,t7,0x8
   13b1c:	33310ff0 	andi	s1,t9,0xff0
   13b20:	00182302 	srl	a0,t8,0xc
   13b24:	33e30f00 	andi	v1,ra,0xf00
   13b28:	000e3202 	srl	a2,t6,0x8
   13b2c:	33070fff 	andi	a3,t8,0xfff
   13b30:	02249025 	or	s2,s1,a0
   13b34:	0066a025 	or	s4,v1,a2
   13b38:	000f4102 	srl	t0,t7,0x4
   13b3c:	ac470000 	sw	a3,0(v0)
   13b40:	ac520004 	sw	s2,4(v0)
   13b44:	ac540008 	sw	s4,8(v0)
   13b48:	ac48000c 	sw	t0,12(v0)
   13b4c:	24420010 	addiu	v0,v0,16
   13b50:	1542ffed 	bne	t2,v0,13b08 <fat_load_table+0x32c>
   13b54:	24a50006 	addiu	a1,a1,6
   13b58:	0c067e00 	jal	19f800 <free>
   13b5c:	01802025 	move	a0,t4
   13b60:	1000ff29 	b	13808 <fat_load_table+0x2c>
   13b64:	24020001 	li	v0,1
   13b68:	0c067e00 	jal	19f800 <free>
   13b6c:	01802025 	move	a0,t4
   13b70:	1000ff90 	b	139b4 <fat_load_table+0x1d8>
   13b74:	8e6412a8 	lw	a0,4776(s3)

00013b78 <fat_dir_list>:
   13b78:	1080007e 	beqz	a0,13d74 <fat_dir_list+0x1fc>
   13b7c:	00000000 	nop
   13b80:	27bdffc8 	addiu	sp,sp,-56
   13b84:	afb00010 	sw	s0,16(sp)
   13b88:	00808025 	move	s0,a0
   13b8c:	24040001 	li	a0,1
   13b90:	afb50024 	sw	s5,36(sp)
   13b94:	afb20018 	sw	s2,24(sp)
   13b98:	afbf0034 	sw	ra,52(sp)
   13b9c:	afbe0030 	sw	s8,48(sp)
   13ba0:	afb7002c 	sw	s7,44(sp)
   13ba4:	afb60028 	sw	s6,40(sp)
   13ba8:	afb40020 	sw	s4,32(sp)
   13bac:	afb3001c 	sw	s3,28(sp)
   13bb0:	afb10014 	sw	s1,20(sp)
--
   13ce8:	2602fffe 	addiu	v0,s0,-2
   13cec:	01c20018 	mult	t6,v0
   13cf0:	8e661060 	lw	a2,4192(s3)
   13cf4:	8e6a1064 	lw	t2,4196(s3)
   13cf8:	8e8412a8 	lw	a0,4776(s4)
   13cfc:	00004025 	move	t0,zero
   13d00:	00004812 	mflo	t1
   13d04:	004d0019 	multu	v0,t5
   13d08:	00003812 	mflo	a3
   13d0c:	00e6f021 	addu	s8,a3,a2
   13d10:	03c7602b 	sltu	t4,s8,a3
   13d14:	00001810 	mfhi	v1
   13d18:	01235821 	addu	t3,t1,v1
   13d1c:	016a2821 	addu	a1,t3,t2
   13d20:	0185b021 	addu	s6,t4,a1
   13d24:	03c03025 	move	a2,s8
   13d28:	0c06fc9c 	jal	1bf270 <sceIoLseek>
   13d2c:	02c03825 	move	a3,s6
   13d30:	13c2ffd5 	beq	s8,v0,13c88 <fat_dir_list+0x110>
   13d34:	00000000 	nop
   13d38:	0c067e00 	jal	19f800 <free>
   13d3c:	8ea40000 	lw	a0,0(s5)
   13d40:	8fbf0034 	lw	ra,52(sp)
   13d44:	8fbe0030 	lw	s8,48(sp)
   13d48:	8fb7002c 	lw	s7,44(sp)
   13d4c:	8fb60028 	lw	s6,40(sp)
   13d50:	8fb50024 	lw	s5,36(sp)
   13d54:	8fb40020 	lw	s4,32(sp)
   13d58:	8fb3001c 	lw	s3,28(sp)
   13d5c:	8fb20018 	lw	s2,24(sp)
   13d60:	8fb10014 	lw	s1,20(sp)
   13d64:	8fb00010 	lw	s0,16(sp)
   13d68:	00001025 	move	v0,zero
   13d6c:	03e00008 	jr	ra
   13d70:	27bd0038 	addiu	sp,sp,56
   13d74:	03e00008 	jr	ra
   13d78:	00001025 	move	v0,zero
   13d7c:	3c170027 	lui	s7,0x27
   13d80:	8ef1128c 	lw	s1,4748(s7)
   13d84:	7e347a00 	ext	s4,s1,0x8,0x10
   13d88:	acb40000 	sw	s4,0(a1)
--
   146d4:	8a870003 	lwl	a3,3(s4)
   146d8:	8a880007 	lwl	t0,7(s4)
   146dc:	8a89000b 	lwl	t1,11(s4)
   146e0:	8a8a000f 	lwl	t2,15(s4)
   146e4:	9a870000 	lwr	a3,0(s4)
   146e8:	9a880004 	lwr	t0,4(s4)
   146ec:	9a8a000c 	lwr	t2,12(s4)
   146f0:	9a890008 	lwr	t1,8(s4)
   146f4:	a8c70003 	swl	a3,3(a2)
   146f8:	b8c70000 	swr	a3,0(a2)
   146fc:	a8c80007 	swl	t0,7(a2)
   14700:	b8c80004 	swr	t0,4(a2)
   14704:	a8c9000b 	swl	t1,11(a2)
   14708:	b8c90008 	swr	t1,8(a2)
   1470c:	26940010 	addiu	s4,s4,16
   14710:	a8ca000f 	swl	t2,15(a2)
   14714:	b8ca000c 	swr	t2,12(a2)
   14718:	1695ffee 	bne	s4,s5,146d4 <fat_locate+0x1a8>
   1471c:	24c60010 	addiu	a2,a2,16
   14720:	02e02025 	move	a0,s7
   14724:	0c067e00 	jal	19f800 <free>
   14728:	3c140027 	lui	s4,0x27
   1472c:	8e8b147c 	lw	t3,5244(s4)
   14730:	3c0c0400 	lui	t4,0x400
   14734:	258d0110 	addiu	t5,t4,272
   14738:	016df02a 	slt	s8,t3,t5
   1473c:	17c0014e 	bnez	s8,14c78 <fat_locate+0x74c>
   14740:	8fa4037c 	lw	a0,892(sp)
   14744:	27a40160 	addiu	a0,sp,352
   14748:	24060100 	li	a2,256
   1474c:	0c067a05 	jal	19e814 <memset>
   14750:	00002825 	move	a1,zero
   14754:	8fb70378 	lw	s7,888(sp)
   14758:	240f0020 	li	t7,32
   1475c:	00408025 	move	s0,v0
   14760:	92f3000c 	lbu	s3,12(s7)
   14764:	82ee0000 	lb	t6,0(s7)
   14768:	7e7800c0 	ext	t8,s3,0x3,0x1
   1476c:	11cf0173 	beq	t6,t7,14d3c <fat_locate+0x810>
   14770:	0018c940 	sll	t9,t8,0x5
   14774:	31df00ff 	andi	ra,t6,0xff
--
   148e0:	8143000a 	lb	v1,10(t2)
   148e4:	032e2025 	or	a0,t9,t6
   148e8:	107300fb 	beq	v1,s3,14cd8 <fat_locate+0x7ac>
   148ec:	a2a40002 	sb	a0,2(s5)
   148f0:	0079c825 	or	t9,v1,t9
   148f4:	a2b90003 	sb	t9,3(s5)
   148f8:	26b50004 	addiu	s5,s5,4
   148fc:	8fa4037c 	lw	a0,892(sp)
   14900:	02002825 	move	a1,s0
   14904:	0c0695ff 	jal	1a57fc <strcat>
   14908:	a2a00000 	sb	zero,0(s5)
   1490c:	8fb00378 	lw	s0,888(sp)
   14910:	9214000b 	lbu	s4,11(s0)
   14914:	32880010 	andi	t0,s4,0x10
   14918:	150000db 	bnez	t0,14c88 <fat_locate+0x75c>
   1491c:	00000000 	nop
   14920:	0c06fca4 	jal	1bf290 <sceIoDclose>
   14924:	02202025 	move	a0,s1
   14928:	1000ff18 	b	1458c <fat_locate+0x60>
   1492c:	8fbf03ac 	lw	ra,940(sp)
   14930:	0c067e00 	jal	19f800 <free>
   14934:	02e02025 	move	a0,s7
   14938:	0c06fca4 	jal	1bf290 <sceIoDclose>
   1493c:	02202025 	move	a0,s1
   14940:	1000ff11 	b	14588 <fat_locate+0x5c>
   14944:	00009025 	move	s2,zero
   14948:	13c00024 	beqz	s8,149dc <fat_locate+0x4b0>
   1494c:	a2840000 	sb	a0,0(s4)
   14950:	24050005 	li	a1,5
   14954:	1000ff53 	b	146a4 <fat_locate+0x178>
   14958:	a2850000 	sb	a1,0(s4)
   1495c:	2405002e 	li	a1,46
   14960:	0c06982c 	jal	1a60b0 <strrchr>
   14964:	02602025 	move	a0,s3
   14968:	104000b1 	beqz	v0,14c30 <fat_locate+0x704>
   1496c:	0040a825 	move	s5,v0
   14970:	02b63023 	subu	a2,s5,s6
   14974:	28c40009 	slti	a0,a2,9
   14978:	1080ff1a 	beqz	a0,145e4 <fat_locate+0xb8>
   1497c:	0240f025 	move	s8,s2
   14980:	2614ffff 	addiu	s4,s0,-1
--
   14a00:	26880020 	addiu	t0,s4,32
   14a04:	8a870003 	lwl	a3,3(s4)
   14a08:	8a850007 	lwl	a1,7(s4)
   14a0c:	8a89000b 	lwl	t1,11(s4)
   14a10:	8a86000f 	lwl	a2,15(s4)
   14a14:	9a870000 	lwr	a3,0(s4)
   14a18:	9a850004 	lwr	a1,4(s4)
   14a1c:	9a86000c 	lwr	a2,12(s4)
   14a20:	9a890008 	lwr	t1,8(s4)
   14a24:	a8470003 	swl	a3,3(v0)
   14a28:	b8470000 	swr	a3,0(v0)
   14a2c:	a8450007 	swl	a1,7(v0)
   14a30:	b8450004 	swr	a1,4(v0)
   14a34:	a849000b 	swl	t1,11(v0)
   14a38:	b8490008 	swr	t1,8(v0)
   14a3c:	26940010 	addiu	s4,s4,16
   14a40:	a846000f 	swl	a2,15(v0)
   14a44:	b846000c 	swr	a2,12(v0)
   14a48:	1688ffee 	bne	s4,t0,14a04 <fat_locate+0x4d8>
   14a4c:	24420010 	addiu	v0,v0,16
   14a50:	0c067e00 	jal	19f800 <free>
   14a54:	02e02025 	move	a0,s7
   14a58:	3c0a0027 	lui	t2,0x27
   14a5c:	8d4f147c 	lw	t7,5244(t2)
   14a60:	3c0b0400 	lui	t3,0x400
   14a64:	25760110 	addiu	s6,t3,272
   14a68:	01f6602a 	slt	t4,t7,s6
   14a6c:	55800082 	bnezl	t4,14c78 <fat_locate+0x74c>
   14a70:	8fa4037c 	lw	a0,892(sp)
   14a74:	27a40160 	addiu	a0,sp,352
   14a78:	24060100 	li	a2,256
   14a7c:	0c067a05 	jal	19e814 <memset>
   14a80:	00002825 	move	a1,zero
   14a84:	8fad0378 	lw	t5,888(sp)
   14a88:	24130020 	li	s3,32
   14a8c:	00408025 	move	s0,v0
   14a90:	91be000c 	lbu	s8,12(t5)
   14a94:	81b70000 	lb	s7,0(t5)
   14a98:	7fce00c0 	ext	t6,s8,0x3,0x1
   14a9c:	12f300bf 	beq	s7,s3,14d9c <fat_locate+0x870>
   14aa0:	000ec140 	sll	t8,t6,0x5
--
   14eec:	13f70159 	beq	ra,s7,15454 <fat_readdir+0x6ac>
   14ef0:	00001025 	move	v0,zero
   14ef4:	97a3017a 	lhu	v1,378(sp)
   14ef8:	0062a821 	addu	s5,v1,v0
   14efc:	00002025 	move	a0,zero
   14f00:	0c069847 	jal	1a611c <strtok>
   14f04:	02402825 	move	a1,s2
   14f08:	1440ffee 	bnez	v0,14ec4 <fat_readdir+0x11c>
   14f0c:	00402025 	move	a0,v0
   14f10:	3c130027 	lui	s3,0x27
   14f14:	8e651054 	lw	a1,4180(s3)
   14f18:	10a0000d 	beqz	a1,14f50 <fat_readdir+0x1a8>
   14f1c:	afb3018c 	sw	s3,396(sp)
   14f20:	24a4ffff 	addiu	a0,a1,-1
   14f24:	1480000a 	bnez	a0,14f50 <fat_readdir+0x1a8>
   14f28:	ae641054 	sw	a0,4180(s3)
   14f2c:	3c140027 	lui	s4,0x27
   14f30:	8e841078 	lw	a0,4216(s4)
   14f34:	10800004 	beqz	a0,14f48 <fat_readdir+0x1a0>
   14f38:	00000000 	nop
   14f3c:	0c067e00 	jal	19f800 <free>
   14f40:	00000000 	nop
   14f44:	ae801078 	sw	zero,4216(s4)
   14f48:	0c06fc94 	jal	1bf250 <sceIoClose>
   14f4c:	8ec412a8 	lw	a0,4776(s6)
   14f50:	52a0011f 	beqzl	s5,153d0 <fat_readdir+0x628>
   14f54:	00008025 	move	s0,zero
   14f58:	0c06fca0 	jal	1bf280 <sceIoDopen>
   14f5c:	02002025 	move	a0,s0
   14f60:	0440011b 	bltz	v0,153d0 <fat_readdir+0x628>
   14f64:	00408025 	move	s0,v0
   14f68:	27a60160 	addiu	a2,sp,352
   14f6c:	27a50180 	addiu	a1,sp,384
   14f70:	02a02025 	move	a0,s5
   14f74:	0c004ede 	jal	13b78 <fat_dir_list>
   14f78:	afa00180 	sw	zero,384(sp)
   14f7c:	10400151 	beqz	v0,154c4 <fat_readdir+0x71c>
   14f80:	8fb20160 	lw	s2,352(sp)
   14f84:	8fb50180 	lw	s5,384(sp)
   14f88:	12a00181 	beqz	s5,15590 <fat_readdir+0x7e8>
   14f8c:	afb20190 	sw	s2,400(sp)
--
   152f0:	00463825 	or	a3,v0,a2
   152f4:	17e30006 	bne	ra,v1,15310 <fat_readdir+0x568>
   152f8:	a527020a 	sh	a3,522(t1)
   152fc:	92e40015 	lbu	a0,21(s7)
   15300:	92ff0014 	lbu	ra,20(s7)
   15304:	00041a00 	sll	v1,a0,0x8
   15308:	007f4025 	or	t0,v1,ra
   1530c:	00082400 	sll	a0,t0,0x10
   15310:	92eb001b 	lbu	t3,27(s7)
   15314:	92ec001a 	lbu	t4,26(s7)
   15318:	26730001 	addiu	s3,s3,1
   1531c:	000b6a00 	sll	t5,t3,0x8
   15320:	01ac5025 	or	t2,t5,t4
   15324:	01442821 	addu	a1,t2,a0
   15328:	ad25020c 	sw	a1,524(t1)
   1532c:	92ee000b 	lbu	t6,11(s7)
   15330:	a12e0210 	sb	t6,528(t1)
   15334:	26310001 	addiu	s1,s1,1
   15338:	1635ff39 	bne	s1,s5,15020 <fat_readdir+0x278>
   1533c:	26f70020 	addiu	s7,s7,32
   15340:	0c067e00 	jal	19f800 <free>
   15344:	8fa40190 	lw	a0,400(sp)
   15348:	8fbe018c 	lw	s8,396(sp)
   1534c:	8fd51054 	lw	s5,4180(s8)
   15350:	12a0000d 	beqz	s5,15388 <fat_readdir+0x5e0>
   15354:	00000000 	nop
   15358:	26b2ffff 	addiu	s2,s5,-1
   1535c:	1640000a 	bnez	s2,15388 <fat_readdir+0x5e0>
   15360:	afd21054 	sw	s2,4180(s8)
   15364:	3c140027 	lui	s4,0x27
   15368:	8e841078 	lw	a0,4216(s4)
   1536c:	10800004 	beqz	a0,15380 <fat_readdir+0x5d8>
   15370:	00000000 	nop
   15374:	0c067e00 	jal	19f800 <free>
   15378:	00000000 	nop
   1537c:	ae801078 	sw	zero,4216(s4)
   15380:	0c06fc94 	jal	1bf250 <sceIoClose>
   15384:	8ec412a8 	lw	a0,4776(s6)
   15388:	0c06fca4 	jal	1bf290 <sceIoDclose>
   1538c:	02002025 	move	a0,s0
   15390:	8fbf01c4 	lw	ra,452(sp)
   15394:	8fbe01c0 	lw	s8,448(sp)
   15398:	8fb701bc 	lw	s7,444(sp)
   1539c:	8fb601b8 	lw	s6,440(sp)
   153a0:	8fb501b4 	lw	s5,436(sp)
   153a4:	8fb401b0 	lw	s4,432(sp)
   153a8:	8fb201a8 	lw	s2,424(sp)
   153ac:	8fb101a4 	lw	s1,420(sp)
   153b0:	8fb001a0 	lw	s0,416(sp)
   153b4:	02601025 	move	v0,s3
   153b8:	8fb301ac 	lw	s3,428(sp)
   153bc:	03e00008 	jr	ra
   153c0:	27bd01c8 	addiu	sp,sp,456
   153c4:	3c030027 	lui	v1,0x27
   153c8:	afa3018c 	sw	v1,396(sp)
   153cc:	00008025 	move	s0,zero
   153d0:	8fa8018c 	lw	t0,396(sp)
   153d4:	8d061054 	lw	a2,4180(t0)
   153d8:	10c0000e 	beqz	a2,15414 <fat_readdir+0x66c>
   153dc:	00000000 	nop
   153e0:	8fab018c 	lw	t3,396(sp)
   153e4:	24c4ffff 	addiu	a0,a2,-1
   153e8:	1480000a 	bnez	a0,15414 <fat_readdir+0x66c>
   153ec:	ad641054 	sw	a0,4180(t3)
   153f0:	3c110027 	lui	s1,0x27
   153f4:	8e241078 	lw	a0,4216(s1)
   153f8:	10800004 	beqz	a0,1540c <fat_readdir+0x664>
   153fc:	00000000 	nop
   15400:	0c067e00 	jal	19f800 <free>
   15404:	00000000 	nop
   15408:	ae201078 	sw	zero,4216(s1)
   1540c:	0c06fc94 	jal	1bf250 <sceIoClose>
   15410:	8ec412a8 	lw	a0,4776(s6)
   15414:	0c06fca4 	jal	1bf290 <sceIoDclose>
   15418:	02002025 	move	a0,s0
   1541c:	8fbf01c4 	lw	ra,452(sp)
   15420:	2413ffff 	li	s3,-1
   15424:	8fbe01c0 	lw	s8,448(sp)
   15428:	8fb701bc 	lw	s7,444(sp)
   1542c:	8fb601b8 	lw	s6,440(sp)
   15430:	8fb501b4 	lw	s5,436(sp)
   15434:	8fb401b0 	lw	s4,432(sp)
   15438:	8fb201a8 	lw	s2,424(sp)
   1543c:	8fb101a4 	lw	s1,420(sp)
   15440:	8fb001a0 	lw	s0,416(sp)
   15444:	02601025 	move	v0,s3
   15448:	8fb301ac 	lw	s3,428(sp)
   1544c:	03e00008 	jr	ra
   15450:	27bd01c8 	addiu	sp,sp,456
--
   154d8:	ad381054 	sw	t8,4180(t1)
   154dc:	1000ffcd 	b	15414 <fat_readdir+0x66c>
   154e0:	00000000 	nop
   154e4:	3c0f0027 	lui	t7,0x27
   154e8:	1440fe74 	bnez	v0,14ebc <fat_readdir+0x114>
   154ec:	8df512a8 	lw	s5,4776(t7)
   154f0:	1000fe88 	b	14f14 <fat_readdir+0x16c>
   154f4:	3c130027 	lui	s3,0x27
   154f8:	3c020027 	lui	v0,0x27
   154fc:	8c471054 	lw	a3,4180(v0)
   15500:	10e0ffe0 	beqz	a3,15484 <fat_readdir+0x6dc>
   15504:	afa2018c 	sw	v0,396(sp)
   15508:	8fbf018c 	lw	ra,396(sp)
   1550c:	24e6ffff 	addiu	a2,a3,-1
   15510:	14c0ffda 	bnez	a2,1547c <fat_readdir+0x6d4>
   15514:	afe61054 	sw	a2,4180(ra)
   15518:	3c130027 	lui	s3,0x27
   1551c:	8e641078 	lw	a0,4216(s3)
   15520:	10800004 	beqz	a0,15534 <fat_readdir+0x78c>
   15524:	00000000 	nop
   15528:	0c067e00 	jal	19f800 <free>
   1552c:	00000000 	nop
   15530:	ae601078 	sw	zero,4216(s3)
   15534:	0c06fc94 	jal	1bf250 <sceIoClose>
   15538:	8ec412a8 	lw	a0,4776(s6)
   1553c:	1000ffa4 	b	153d0 <fat_readdir+0x628>
   15540:	00008025 	move	s0,zero
   15544:	3c0b0027 	lui	t3,0x27
   15548:	8d6c1054 	lw	t4,4180(t3)
   1554c:	1180000e 	beqz	t4,15588 <fat_readdir+0x7e0>
   15550:	afab018c 	sw	t3,396(sp)
   15554:	8fae018c 	lw	t6,396(sp)
   15558:	258dffff 	addiu	t5,t4,-1
   1555c:	15a0000a 	bnez	t5,15588 <fat_readdir+0x7e0>
   15560:	adcd1054 	sw	t5,4180(t6)
   15564:	3c140027 	lui	s4,0x27
   15568:	8e841078 	lw	a0,4216(s4)
   1556c:	50800020 	beqzl	a0,155f0 <fat_readdir+0x848>
   15570:	8ec412a8 	lw	a0,4776(s6)
   15574:	0c067e00 	jal	19f800 <free>
   15578:	00000000 	nop
   1557c:	8ec412a8 	lw	a0,4776(s6)
   15580:	0c06fc94 	jal	1bf250 <sceIoClose>
   15584:	ae801078 	sw	zero,4216(s4)
   15588:	1000fe73 	b	14f58 <fat_readdir+0x1b0>
   1558c:	24150001 	li	s5,1
   15590:	0c067e00 	jal	19f800 <free>
   15594:	8fa40190 	lw	a0,400(sp)
   15598:	1000ff8e 	b	153d4 <fat_readdir+0x62c>
   1559c:	8fa8018c 	lw	t0,396(sp)
   155a0:	1000ff19 	b	15208 <fat_readdir+0x460>
   155a4:	01202025 	move	a0,t1
   155a8:	1000ff17 	b	15208 <fat_readdir+0x460>
   155ac:	25240001 	addiu	a0,t1,1
   155b0:	1000ff15 	b	15208 <fat_readdir+0x460>
   155b4:	25240002 	addiu	a0,t1,2
   155b8:	1000ff13 	b	15208 <fat_readdir+0x460>
   155bc:	25240003 	addiu	a0,t1,3
   155c0:	1000ff11 	b	15208 <fat_readdir+0x460>
   155c4:	25240004 	addiu	a0,t1,4
   155c8:	1000ff0f 	b	15208 <fat_readdir+0x460>
   155cc:	25240005 	addiu	a0,t1,5
   155d0:	1000ff0d 	b	15208 <fat_readdir+0x460>
   155d4:	25240006 	addiu	a0,t1,6
   155d8:	1000ff1d 	b	15250 <fat_readdir+0x4a8>
   155dc:	24840001 	addiu	a0,a0,1
   155e0:	1000ff1b 	b	15250 <fat_readdir+0x4a8>
--
   15ca0:	8fb70218 	lw	s7,536(sp)
   15ca4:	8fc70000 	lw	a3,0(s8)
   15ca8:	00054080 	sll	t0,a1,0x2
   15cac:	01054821 	addu	t1,t0,a1
   15cb0:	00095080 	sll	t2,t1,0x2
   15cb4:	01453023 	subu	a2,t2,a1
   15cb8:	0006a880 	sll	s5,a2,0x2
   15cbc:	02a55821 	addu	t3,s5,a1
   15cc0:	000b60c0 	sll	t4,t3,0x3
   15cc4:	02f06821 	addu	t5,s7,s0
   15cc8:	00ec7021 	addu	t6,a3,t4
   15ccc:	25a50100 	addiu	a1,t5,256
   15cd0:	0c069681 	jal	1a5a04 <strcpy>
   15cd4:	25c40108 	addiu	a0,t6,264
   15cd8:	8fd60004 	lw	s6,4(s8)
   15cdc:	26cf0001 	addiu	t7,s6,1
   15ce0:	afcf0004 	sw	t7,4(s8)
   15ce4:	26520001 	addiu	s2,s2,1
   15ce8:	1653ffa6 	bne	s2,s3,15b84 <opendir_open+0xe4>
   15cec:	26100214 	addiu	s0,s0,532
   15cf0:	0c067e00 	jal	19f800 <free>
   15cf4:	02e02025 	move	a0,s7
   15cf8:	0c0055bc 	jal	156f0 <sortDirectory>
   15cfc:	03c02025 	move	a0,s8
   15d00:	8fbf0264 	lw	ra,612(sp)
   15d04:	8fbe0260 	lw	s8,608(sp)
   15d08:	8fb7025c 	lw	s7,604(sp)
   15d0c:	8fb60258 	lw	s6,600(sp)
   15d10:	8fb50254 	lw	s5,596(sp)
   15d14:	8fb40250 	lw	s4,592(sp)
   15d18:	8fb3024c 	lw	s3,588(sp)
   15d1c:	8fb20248 	lw	s2,584(sp)
   15d20:	8fb10244 	lw	s1,580(sp)
   15d24:	8fb00240 	lw	s0,576(sp)
   15d28:	00001025 	move	v0,zero
   15d2c:	03e00008 	jr	ra
   15d30:	27bd0268 	addiu	sp,sp,616
   15d34:	15c0ffd6 	bnez	t6,15c90 <opendir_open+0x1f0>
   15d38:	02f0b021 	addu	s6,s7,s0
   15d3c:	1000ffea 	b	15ce8 <opendir_open+0x248>
   15d40:	26520001 	addiu	s2,s2,1
--
   15d98:	19e0ffd2 	blez	t7,15ce4 <opendir_open+0x244>
   15d9c:	8fbf0238 	lw	ra,568(sp)
   15da0:	000fc080 	sll	t8,t7,0x2
   15da4:	030fc821 	addu	t9,t8,t7
   15da8:	03f91821 	addu	v1,ra,t9
   15dac:	03e02825 	move	a1,ra
   15db0:	10000004 	b	15dc4 <opendir_open+0x324>
   15db4:	afa3022c 	sw	v1,556(sp)
   15db8:	8fa2022c 	lw	v0,556(sp)
   15dbc:	5045ffca 	beql	v0,a1,15ce8 <opendir_open+0x248>
   15dc0:	26520001 	addiu	s2,s2,1
   15dc4:	27a40210 	addiu	a0,sp,528
   15dc8:	0c0678a3 	jal	19e28c <strcmp>
   15dcc:	afa50224 	sw	a1,548(sp)
   15dd0:	8fa40224 	lw	a0,548(sp)
   15dd4:	1440fff8 	bnez	v0,15db8 <opendir_open+0x318>
   15dd8:	24850005 	addiu	a1,a0,5
   15ddc:	1000ffad 	b	15c94 <opendir_open+0x1f4>
   15de0:	02c02825 	move	a1,s6
   15de4:	8fa40218 	lw	a0,536(sp)
   15de8:	0c067e00 	jal	19f800 <free>
   15dec:	3c11001c 	lui	s1,0x1c
   15df0:	8fbf0264 	lw	ra,612(sp)
   15df4:	8fbe0260 	lw	s8,608(sp)
   15df8:	8fb7025c 	lw	s7,604(sp)
   15dfc:	8fb60258 	lw	s6,600(sp)
   15e00:	8fb50254 	lw	s5,596(sp)
   15e04:	8fb40250 	lw	s4,592(sp)
   15e08:	8fb3024c 	lw	s3,588(sp)
   15e0c:	8fb20248 	lw	s2,584(sp)
   15e10:	8fb00240 	lw	s0,576(sp)
   15e14:	2622fff4 	addiu	v0,s1,-12
   15e18:	8fb10244 	lw	s1,580(sp)
   15e1c:	03e00008 	jr	ra
   15e20:	27bd0268 	addiu	sp,sp,616
   15e24:	afc00004 	sw	zero,4(s8)
   15e28:	0c067e00 	jal	19f800 <free>
   15e2c:	02e02025 	move	a0,s7
   15e30:	8fbf0264 	lw	ra,612(sp)
   15e34:	3c1e001c 	lui	s8,0x1c
   15e38:	8fb7025c 	lw	s7,604(sp)
   15e3c:	8fb60258 	lw	s6,600(sp)
   15e40:	8fb50254 	lw	s5,596(sp)
   15e44:	8fb40250 	lw	s4,592(sp)
   15e48:	8fb3024c 	lw	s3,588(sp)
   15e4c:	8fb20248 	lw	s2,584(sp)
   15e50:	8fb10244 	lw	s1,580(sp)
   15e54:	8fb00240 	lw	s0,576(sp)
   15e58:	27c20010 	addiu	v0,s8,16
   15e5c:	8fbe0260 	lw	s8,608(sp)
   15e60:	03e00008 	jr	ra
   15e64:	27bd0268 	addiu	sp,sp,616

00015e68 <directoryUp>:
   15e68:	3c05001c 	lui	a1,0x1c
   15e6c:	27bdfff8 	addiu	sp,sp,-8
   15e70:	24a50044 	addiu	a1,a1,68
--
   16c18:	2402fffd 	li	v0,-3
   16c1c:	0c00bc86 	jal	2f218 <sqlite3_close>
   16c20:	8e2427d4 	lw	a0,10196(s1)
   16c24:	1000ffdf 	b	16ba4 <ML_INTERNAL_openDB+0x24>
   16c28:	2402fffd 	li	v0,-3
   16c2c:	1000ffdd 	b	16ba4 <ML_INTERNAL_openDB+0x24>
   16c30:	2402fffe 	li	v0,-2
   16c34:	1000ffdb 	b	16ba4 <ML_INTERNAL_openDB+0x24>
   16c38:	2402ffff 	li	v0,-1

00016c3c <ML_clearBuffer>:
   16c3c:	27bdfff0 	addiu	sp,sp,-16
   16c40:	afb10008 	sw	s1,8(sp)
   16c44:	afb00004 	sw	s0,4(sp)
   16c48:	afbf000c 	sw	ra,12(sp)
   16c4c:	00808025 	move	s0,a0
   16c50:	24910320 	addiu	s1,a0,800
   16c54:	8e040000 	lw	a0,0(s0)
   16c58:	50800005 	beqzl	a0,16c70 <ML_clearBuffer+0x34>
   16c5c:	26100004 	addiu	s0,s0,4
   16c60:	0c067e00 	jal	19f800 <free>
   16c64:	00000000 	nop
   16c68:	ae000000 	sw	zero,0(s0)
   16c6c:	26100004 	addiu	s0,s0,4
   16c70:	5611fff9 	bnel	s0,s1,16c58 <ML_clearBuffer+0x1c>
   16c74:	8e040000 	lw	a0,0(s0)
   16c78:	8fbf000c 	lw	ra,12(sp)
   16c7c:	8fb10008 	lw	s1,8(sp)
   16c80:	8fb00004 	lw	s0,4(sp)
   16c84:	03e00008 	jr	ra
   16c88:	27bd0010 	addiu	sp,sp,16

00016c8c <ML_fixStringField>:
   16c8c:	3c06001c 	lui	a2,0x1c
   16c90:	3c05001c 	lui	a1,0x1c
   16c94:	27bdfff0 	addiu	sp,sp,-16
   16c98:	24c603e8 	addiu	a2,a2,1000
   16c9c:	24a5796c 	addiu	a1,a1,31084
   16ca0:	afb00008 	sw	s0,8(sp)
   16ca4:	afbf000c 	sw	ra,12(sp)
   16ca8:	0c006936 	jal	1a4d8 <replace>
   16cac:	00808025 	move	s0,a0
   16cb0:	10400006 	beqz	v0,16ccc <ML_fixStringField+0x40>
   16cb4:	00402825 	move	a1,v0
   16cb8:	02002025 	move	a0,s0
   16cbc:	0c069681 	jal	1a5a04 <strcpy>
   16cc0:	afa20000 	sw	v0,0(sp)
   16cc4:	0c067e00 	jal	19f800 <free>
   16cc8:	8fa40000 	lw	a0,0(sp)
   16ccc:	3c02001c 	lui	v0,0x1c
   16cd0:	3c03001c 	lui	v1,0x1c
   16cd4:	246503f0 	addiu	a1,v1,1008
   16cd8:	244603ec 	addiu	a2,v0,1004
   16cdc:	0c006936 	jal	1a4d8 <replace>
   16ce0:	02002025 	move	a0,s0
   16ce4:	10400006 	beqz	v0,16d00 <ML_fixStringField+0x74>
   16ce8:	00402825 	move	a1,v0
   16cec:	02002025 	move	a0,s0
   16cf0:	0c069681 	jal	1a5a04 <strcpy>
   16cf4:	afa20000 	sw	v0,0(sp)
   16cf8:	0c067e00 	jal	19f800 <free>
   16cfc:	8fa40000 	lw	a0,0(sp)
   16d00:	8fbf000c 	lw	ra,12(sp)
   16d04:	8fb00008 	lw	s0,8(sp)
   16d08:	00001025 	move	v0,zero
   16d0c:	03e00008 	jr	ra
   16d10:	27bd0010 	addiu	sp,sp,16

00016d14 <ML_existsDB>:
   16d14:	27bdfee8 	addiu	sp,sp,-280
   16d18:	24060108 	li	a2,264
   16d1c:	afb00110 	sw	s0,272(sp)
   16d20:	afa50108 	sw	a1,264(sp)
   16d24:	00808025 	move	s0,a0
   16d28:	00002825 	move	a1,zero
   16d2c:	afbf0114 	sw	ra,276(sp)
   16d30:	0c067a05 	jal	19e814 <memset>
   16d34:	03a02025 	move	a0,sp
   16d38:	0c06789a 	jal	19e268 <strlen>
   16d3c:	02002025 	move	a0,s0
   16d40:	02021021 	addu	v0,s0,v0
--
   17bd0:	8d2a0004 	lw	t2,4(t1)
   17bd4:	27a50800 	addiu	a1,sp,2048
   17bd8:	afa50e24 	sw	a1,3620(sp)
   17bdc:	24060004 	li	a2,4
   17be0:	27a405e8 	addiu	a0,sp,1512
   17be4:	ace80000 	sw	t0,0(a3)
   17be8:	acea0004 	sw	t2,4(a3)
   17bec:	3c10001c 	lui	s0,0x1c
   17bf0:	0c00565e 	jal	15978 <getExtension>
   17bf4:	3c17001c 	lui	s7,0x1c
   17bf8:	27a403cc 	addiu	a0,sp,972
   17bfc:	260603e8 	addiu	a2,s0,1000
   17c00:	26e5796c 	addiu	a1,s7,31084
   17c04:	0c006936 	jal	1a4d8 <replace>
   17c08:	afa40df0 	sw	a0,3568(sp)
   17c0c:	10400006 	beqz	v0,17c28 <ML_scanMS+0x4a8>
   17c10:	0040b025 	move	s6,v0
   17c14:	8fa40df0 	lw	a0,3568(sp)
   17c18:	0c069681 	jal	1a5a04 <strcpy>
   17c1c:	00402825 	move	a1,v0
   17c20:	0c067e00 	jal	19f800 <free>
   17c24:	02c02025 	move	a0,s6
   17c28:	8fab0ddc 	lw	t3,3548(sp)
   17c2c:	8fa60dd8 	lw	a2,3544(sp)
   17c30:	8fa40df0 	lw	a0,3568(sp)
   17c34:	0c006936 	jal	1a4d8 <replace>
   17c38:	256503f0 	addiu	a1,t3,1008
   17c3c:	10400006 	beqz	v0,17c58 <ML_scanMS+0x4d8>
   17c40:	0040b025 	move	s6,v0
   17c44:	8fa40df0 	lw	a0,3568(sp)
   17c48:	0c069681 	jal	1a5a04 <strcpy>
   17c4c:	00402825 	move	a1,v0
   17c50:	0c067e00 	jal	19f800 <free>
   17c54:	02c02025 	move	a0,s6
   17c58:	27a401c4 	addiu	a0,sp,452
   17c5c:	260603e8 	addiu	a2,s0,1000
   17c60:	26e5796c 	addiu	a1,s7,31084
   17c64:	0c006936 	jal	1a4d8 <replace>
   17c68:	afa40de4 	sw	a0,3556(sp)
   17c6c:	10400006 	beqz	v0,17c88 <ML_scanMS+0x508>
   17c70:	0040b025 	move	s6,v0
   17c74:	8fa40de4 	lw	a0,3556(sp)
   17c78:	0c069681 	jal	1a5a04 <strcpy>
   17c7c:	00402825 	move	a1,v0
   17c80:	0c067e00 	jal	19f800 <free>
   17c84:	02c02025 	move	a0,s6
   17c88:	8fac0ddc 	lw	t4,3548(sp)
   17c8c:	8fa60dd8 	lw	a2,3544(sp)
   17c90:	8fa40de4 	lw	a0,3556(sp)
   17c94:	0c006936 	jal	1a4d8 <replace>
   17c98:	258503f0 	addiu	a1,t4,1008
   17c9c:	10400006 	beqz	v0,17cb8 <ML_scanMS+0x538>
   17ca0:	0040b025 	move	s6,v0
   17ca4:	8fa40de4 	lw	a0,3556(sp)
   17ca8:	0c069681 	jal	1a5a04 <strcpy>
   17cac:	00402825 	move	a1,v0
   17cb0:	0c067e00 	jal	19f800 <free>
   17cb4:	02c02025 	move	a0,s6
   17cb8:	27a402c8 	addiu	a0,sp,712
   17cbc:	260603e8 	addiu	a2,s0,1000
   17cc0:	26e5796c 	addiu	a1,s7,31084
   17cc4:	0c006936 	jal	1a4d8 <replace>
   17cc8:	afa40de8 	sw	a0,3560(sp)
   17ccc:	10400006 	beqz	v0,17ce8 <ML_scanMS+0x568>
   17cd0:	0040b025 	move	s6,v0
   17cd4:	8fa40de8 	lw	a0,3560(sp)
   17cd8:	0c069681 	jal	1a5a04 <strcpy>
   17cdc:	00402825 	move	a1,v0
   17ce0:	0c067e00 	jal	19f800 <free>
   17ce4:	02c02025 	move	a0,s6
   17ce8:	8fad0ddc 	lw	t5,3548(sp)
   17cec:	8fa60dd8 	lw	a2,3544(sp)
   17cf0:	8fa40de8 	lw	a0,3560(sp)
   17cf4:	0c006936 	jal	1a4d8 <replace>
   17cf8:	25a503f0 	addiu	a1,t5,1008
   17cfc:	10400006 	beqz	v0,17d18 <ML_scanMS+0x598>
   17d00:	0040b025 	move	s6,v0
   17d04:	8fa40de8 	lw	a0,3560(sp)
   17d08:	0c069681 	jal	1a5a04 <strcpy>
   17d0c:	00402825 	move	a1,v0
   17d10:	0c067e00 	jal	19f800 <free>
   17d14:	02c02025 	move	a0,s6
   17d18:	27b604d0 	addiu	s6,sp,1232
   17d1c:	26e5796c 	addiu	a1,s7,31084
   17d20:	260603e8 	addiu	a2,s0,1000
   17d24:	0c006936 	jal	1a4d8 <replace>
   17d28:	02c02025 	move	a0,s6
   17d2c:	10400006 	beqz	v0,17d48 <ML_scanMS+0x5c8>
   17d30:	00402825 	move	a1,v0
   17d34:	02c02025 	move	a0,s6
   17d38:	0c069681 	jal	1a5a04 <strcpy>
   17d3c:	afa20e00 	sw	v0,3584(sp)
   17d40:	0c067e00 	jal	19f800 <free>
   17d44:	8fa40e00 	lw	a0,3584(sp)
   17d48:	8fae0ddc 	lw	t6,3548(sp)
   17d4c:	8fa60dd8 	lw	a2,3544(sp)
   17d50:	02c02025 	move	a0,s6
   17d54:	0c006936 	jal	1a4d8 <replace>
   17d58:	25c503f0 	addiu	a1,t6,1008
   17d5c:	10400006 	beqz	v0,17d78 <ML_scanMS+0x5f8>
   17d60:	00402825 	move	a1,v0
   17d64:	02c02025 	move	a0,s6
   17d68:	0c069681 	jal	1a5a04 <strcpy>
   17d6c:	afa20e00 	sw	v0,3584(sp)
   17d70:	0c067e00 	jal	19f800 <free>
   17d74:	8fa40e00 	lw	a0,3584(sp)
   17d78:	260603e8 	addiu	a2,s0,1000
   17d7c:	26e5796c 	addiu	a1,s7,31084
   17d80:	0c006936 	jal	1a4d8 <replace>
   17d84:	27a405e8 	addiu	a0,sp,1512
   17d88:	10400006 	beqz	v0,17da4 <ML_scanMS+0x624>
   17d8c:	00408025 	move	s0,v0
   17d90:	27a405e8 	addiu	a0,sp,1512
   17d94:	0c069681 	jal	1a5a04 <strcpy>
   17d98:	00402825 	move	a1,v0
   17d9c:	0c067e00 	jal	19f800 <free>
   17da0:	02002025 	move	a0,s0
   17da4:	8faf0ddc 	lw	t7,3548(sp)
   17da8:	8fa60dd8 	lw	a2,3544(sp)
   17dac:	27a405e8 	addiu	a0,sp,1512
   17db0:	0c006936 	jal	1a4d8 <replace>
   17db4:	25e503f0 	addiu	a1,t7,1008
   17db8:	10400006 	beqz	v0,17dd4 <ML_scanMS+0x654>
   17dbc:	0040b825 	move	s7,v0
   17dc0:	27a405e8 	addiu	a0,sp,1512
   17dc4:	0c069681 	jal	1a5a04 <strcpy>
   17dc8:	00402825 	move	a1,v0
   17dcc:	0c067e00 	jal	19f800 <free>
   17dd0:	02e02025 	move	a0,s7
   17dd4:	8fb80044 	lw	t8,68(sp)
   17dd8:	27a405e0 	addiu	a0,sp,1504
   17ddc:	8fb00098 	lw	s0,152(sp)
   17de0:	afb80e00 	sw	t8,3584(sp)
   17de4:	0c0679b7 	jal	19e6dc <atoi>
   17de8:	8fb7004c 	lw	s7,76(sp)
   17dec:	afa20018 	sw	v0,24(sp)
   17df0:	8fb90e00 	lw	t9,3584(sp)
   17df4:	27a605e8 	addiu	a2,sp,1512
   17df8:	02c05025 	move	t2,s6
   17dfc:	8fa20e24 	lw	v0,3620(sp)
   17e00:	8fb60e1c 	lw	s6,3612(sp)
   17e04:	8fa90de8 	lw	t1,3560(sp)
   17e08:	8fa80de4 	lw	t0,3556(sp)
   17e0c:	8fa70df0 	lw	a3,3568(sp)
   17e10:	afa60004 	sw	a2,4(sp)
   17e14:	afa60000 	sw	a2,0(sp)
   17e18:	8fa60e18 	lw	a2,3608(sp)
   17e1c:	afb90014 	sw	t9,20(sp)
--
   18230:	8d8d0004 	lw	t5,4(t4)
   18234:	27a50800 	addiu	a1,sp,2048
   18238:	afa50e24 	sw	a1,3620(sp)
   1823c:	24060004 	li	a2,4
   18240:	27a405e8 	addiu	a0,sp,1512
   18244:	acff0000 	sw	ra,0(a3)
   18248:	aced0004 	sw	t5,4(a3)
   1824c:	3c15001c 	lui	s5,0x1c
   18250:	0c00565e 	jal	15978 <getExtension>
   18254:	3c1e001c 	lui	s8,0x1c
   18258:	27a403cc 	addiu	a0,sp,972
   1825c:	26a603e8 	addiu	a2,s5,1000
   18260:	27c5796c 	addiu	a1,s8,31084
   18264:	0c006936 	jal	1a4d8 <replace>
   18268:	afa40e00 	sw	a0,3584(sp)
   1826c:	10400006 	beqz	v0,18288 <ML_scanMS+0xb08>
   18270:	00408825 	move	s1,v0
   18274:	8fa40e00 	lw	a0,3584(sp)
   18278:	0c069681 	jal	1a5a04 <strcpy>
   1827c:	00402825 	move	a1,v0
   18280:	0c067e00 	jal	19f800 <free>
   18284:	02202025 	move	a0,s1
   18288:	8fae0df0 	lw	t6,3568(sp)
   1828c:	8fa60de8 	lw	a2,3560(sp)
   18290:	8fa40e00 	lw	a0,3584(sp)
   18294:	0c006936 	jal	1a4d8 <replace>
   18298:	25c503f0 	addiu	a1,t6,1008
   1829c:	10400006 	beqz	v0,182b8 <ML_scanMS+0xb38>
   182a0:	00408825 	move	s1,v0
   182a4:	8fa40e00 	lw	a0,3584(sp)
   182a8:	0c069681 	jal	1a5a04 <strcpy>
   182ac:	00402825 	move	a1,v0
   182b0:	0c067e00 	jal	19f800 <free>
   182b4:	02202025 	move	a0,s1
   182b8:	27a401c4 	addiu	a0,sp,452
   182bc:	26a603e8 	addiu	a2,s5,1000
   182c0:	27c5796c 	addiu	a1,s8,31084
   182c4:	0c006936 	jal	1a4d8 <replace>
   182c8:	afa40dd8 	sw	a0,3544(sp)
   182cc:	10400006 	beqz	v0,182e8 <ML_scanMS+0xb68>
   182d0:	00408825 	move	s1,v0
   182d4:	8fa40dd8 	lw	a0,3544(sp)
   182d8:	0c069681 	jal	1a5a04 <strcpy>
   182dc:	00402825 	move	a1,v0
   182e0:	0c067e00 	jal	19f800 <free>
   182e4:	02202025 	move	a0,s1
   182e8:	8faf0df0 	lw	t7,3568(sp)
   182ec:	8fa60de8 	lw	a2,3560(sp)
   182f0:	8fa40dd8 	lw	a0,3544(sp)
   182f4:	0c006936 	jal	1a4d8 <replace>
   182f8:	25e503f0 	addiu	a1,t7,1008
   182fc:	10400006 	beqz	v0,18318 <ML_scanMS+0xb98>
   18300:	00408825 	move	s1,v0
   18304:	8fa40dd8 	lw	a0,3544(sp)
   18308:	0c069681 	jal	1a5a04 <strcpy>
   1830c:	00402825 	move	a1,v0
   18310:	0c067e00 	jal	19f800 <free>
   18314:	02202025 	move	a0,s1
   18318:	27a402c8 	addiu	a0,sp,712
   1831c:	26a603e8 	addiu	a2,s5,1000
   18320:	27c5796c 	addiu	a1,s8,31084
   18324:	0c006936 	jal	1a4d8 <replace>
   18328:	afa40df8 	sw	a0,3576(sp)
   1832c:	10400006 	beqz	v0,18348 <ML_scanMS+0xbc8>
   18330:	00408825 	move	s1,v0
   18334:	8fa40df8 	lw	a0,3576(sp)
   18338:	0c069681 	jal	1a5a04 <strcpy>
   1833c:	00402825 	move	a1,v0
   18340:	0c067e00 	jal	19f800 <free>
   18344:	02202025 	move	a0,s1
   18348:	8fb80df0 	lw	t8,3568(sp)
   1834c:	8fa60de8 	lw	a2,3560(sp)
   18350:	8fa40df8 	lw	a0,3576(sp)
   18354:	0c006936 	jal	1a4d8 <replace>
   18358:	270503f0 	addiu	a1,t8,1008
   1835c:	10400006 	beqz	v0,18378 <ML_scanMS+0xbf8>
   18360:	00408825 	move	s1,v0
   18364:	8fa40df8 	lw	a0,3576(sp)
   18368:	0c069681 	jal	1a5a04 <strcpy>
   1836c:	00402825 	move	a1,v0
   18370:	0c067e00 	jal	19f800 <free>
   18374:	02202025 	move	a0,s1
   18378:	27b104d0 	addiu	s1,sp,1232
   1837c:	27c5796c 	addiu	a1,s8,31084
   18380:	26a603e8 	addiu	a2,s5,1000
   18384:	0c006936 	jal	1a4d8 <replace>
   18388:	02202025 	move	a0,s1
   1838c:	10400006 	beqz	v0,183a8 <ML_scanMS+0xc28>
   18390:	00402825 	move	a1,v0
   18394:	02202025 	move	a0,s1
   18398:	0c069681 	jal	1a5a04 <strcpy>
   1839c:	afa20e0c 	sw	v0,3596(sp)
   183a0:	0c067e00 	jal	19f800 <free>
   183a4:	8fa40e0c 	lw	a0,3596(sp)
   183a8:	8fb90df0 	lw	t9,3568(sp)
   183ac:	8fa60de8 	lw	a2,3560(sp)
   183b0:	02202025 	move	a0,s1
   183b4:	0c006936 	jal	1a4d8 <replace>
   183b8:	272503f0 	addiu	a1,t9,1008
   183bc:	10400006 	beqz	v0,183d8 <ML_scanMS+0xc58>
   183c0:	00402825 	move	a1,v0
   183c4:	02202025 	move	a0,s1
   183c8:	0c069681 	jal	1a5a04 <strcpy>
   183cc:	afa20e0c 	sw	v0,3596(sp)
   183d0:	0c067e00 	jal	19f800 <free>
   183d4:	8fa40e0c 	lw	a0,3596(sp)
   183d8:	26a603e8 	addiu	a2,s5,1000
   183dc:	27c5796c 	addiu	a1,s8,31084
   183e0:	0c006936 	jal	1a4d8 <replace>
   183e4:	27a405e8 	addiu	a0,sp,1512
   183e8:	10400006 	beqz	v0,18404 <ML_scanMS+0xc84>
   183ec:	0040a825 	move	s5,v0
   183f0:	27a405e8 	addiu	a0,sp,1512
   183f4:	0c069681 	jal	1a5a04 <strcpy>
   183f8:	00402825 	move	a1,v0
   183fc:	0c067e00 	jal	19f800 <free>
   18400:	02a02025 	move	a0,s5
   18404:	8fa20df0 	lw	v0,3568(sp)
   18408:	8fa60de8 	lw	a2,3560(sp)
   1840c:	27a405e8 	addiu	a0,sp,1512
   18410:	0c006936 	jal	1a4d8 <replace>
   18414:	244503f0 	addiu	a1,v0,1008
   18418:	10400006 	beqz	v0,18434 <ML_scanMS+0xcb4>
   1841c:	0040f025 	move	s8,v0
   18420:	27a405e8 	addiu	a0,sp,1512
   18424:	0c069681 	jal	1a5a04 <strcpy>
   18428:	00402825 	move	a1,v0
   1842c:	0c067e00 	jal	19f800 <free>
   18430:	03c02025 	move	a0,s8
   18434:	8fa30044 	lw	v1,68(sp)
   18438:	8fa6004c 	lw	a2,76(sp)
   1843c:	27a405e0 	addiu	a0,sp,1504
   18440:	afa30e0c 	sw	v1,3596(sp)
   18444:	8fbe0098 	lw	s8,152(sp)
   18448:	0c0679b7 	jal	19e6dc <atoi>
   1844c:	afa60e10 	sw	a2,3600(sp)
   18450:	8fa90e0c 	lw	t1,3596(sp)
   18454:	8fa80e24 	lw	t0,3620(sp)
   18458:	8faa0e10 	lw	t2,3600(sp)
   1845c:	8fa70e00 	lw	a3,3584(sp)
   18460:	afa90014 	sw	t1,20(sp)
   18464:	afa80008 	sw	t0,8(sp)
   18468:	8fa90df8 	lw	t1,3576(sp)
   1846c:	8fa80dd8 	lw	t0,3544(sp)
   18470:	27ab05e8 	addiu	t3,sp,1512
   18474:	3c0c001c 	lui	t4,0x1c
   18478:	3c15002b 	lui	s5,0x2b
   1847c:	25860828 	addiu	a2,t4,2088
--
   18894:	02403825 	move	a3,s2
   18898:	256609a4 	addiu	a2,t3,2468
   1889c:	02e05025 	move	t2,s7
   188a0:	24050c00 	li	a1,3072
   188a4:	0c068cc0 	jal	1a3300 <snprintf>
   188a8:	26c41bd4 	addiu	a0,s6,7124
   188ac:	8ea427d4 	lw	a0,10196(s5)
   188b0:	3c12002b 	lui	s2,0x2b
   188b4:	00004025 	move	t0,zero
   188b8:	26471bd0 	addiu	a3,s2,7120
   188bc:	2406ffff 	li	a2,-1
   188c0:	0c00ed5f 	jal	3b57c <sqlite3_prepare_v2>
   188c4:	26c51bd4 	addiu	a1,s6,7124
   188c8:	0040a025 	move	s4,v0
   188cc:	263e0320 	addiu	s8,s1,800
   188d0:	144000b5 	bnez	v0,18ba8 <ML_queryDB+0x378>
   188d4:	02209825 	move	s3,s1
   188d8:	8e640000 	lw	a0,0(s3)
   188dc:	50800005 	beqzl	a0,188f4 <ML_queryDB+0xc4>
   188e0:	26730004 	addiu	s3,s3,4
   188e4:	0c067e00 	jal	19f800 <free>
   188e8:	00000000 	nop
   188ec:	ae600000 	sw	zero,0(s3)
   188f0:	26730004 	addiu	s3,s3,4
   188f4:	567efff9 	bnel	s3,s8,188dc <ML_queryDB+0xac>
   188f8:	8e640000 	lw	a0,0(s3)
   188fc:	24130064 	li	s3,100
   18900:	241e0005 	li	s8,5
   18904:	10000020 	b	18988 <ML_queryDB+0x158>
   18908:	241700c9 	li	s7,201
   1890c:	8e441bd0 	lw	a0,7120(s2)
   18910:	24050009 	li	a1,9
   18914:	0c011523 	jal	4548c <sqlite3_column_int>
   18918:	26940001 	addiu	s4,s4,1
   1891c:	8e441bd0 	lw	a0,7120(s2)
   18920:	8e360000 	lw	s6,0(s1)
   18924:	ae020648 	sw	v0,1608(s0)
   18928:	0c011523 	jal	4548c <sqlite3_column_int>
   1892c:	2405000a 	li	a1,10
   18930:	8e441bd0 	lw	a0,7120(s2)
   18934:	aec2064c 	sw	v0,1612(s6)
--
   18c38:	02204025 	move	t0,s1
   18c3c:	02003825 	move	a3,s0
   18c40:	25a60b30 	addiu	a2,t5,2864
   18c44:	24050c00 	li	a1,3072
   18c48:	0c068cc0 	jal	1a3300 <snprintf>
   18c4c:	26c41bd4 	addiu	a0,s6,7124
   18c50:	8fae006c 	lw	t6,108(sp)
   18c54:	3c11002b 	lui	s1,0x2b
   18c58:	00004025 	move	t0,zero
   18c5c:	8dc427d4 	lw	a0,10196(t6)
   18c60:	26271bd0 	addiu	a3,s1,7120
   18c64:	2406ffff 	li	a2,-1
   18c68:	0c00ed5f 	jal	3b57c <sqlite3_prepare_v2>
   18c6c:	26c51bd4 	addiu	a1,s6,7124
   18c70:	267e0320 	addiu	s8,s3,800
   18c74:	14400184 	bnez	v0,19288 <ML_queryDBSelect+0x6c0>
   18c78:	02608025 	move	s0,s3
   18c7c:	8e040000 	lw	a0,0(s0)
   18c80:	50800005 	beqzl	a0,18c98 <ML_queryDBSelect+0xd0>
   18c84:	26100004 	addiu	s0,s0,4
   18c88:	0c067e00 	jal	19f800 <free>
   18c8c:	00000000 	nop
   18c90:	ae000000 	sw	zero,0(s0)
   18c94:	26100004 	addiu	s0,s0,4
   18c98:	561efff9 	bnel	s0,s8,18c80 <ML_queryDBSelect+0xb8>
   18c9c:	8e040000 	lw	a0,0(s0)
   18ca0:	8e241bd0 	lw	a0,7120(s1)
   18ca4:	3c19001c 	lui	t9,0x1c
   18ca8:	3c0f001c 	lui	t7,0x1c
   18cac:	3c18001c 	lui	t8,0x1c
   18cb0:	273f06f8 	addiu	ra,t9,1784
   18cb4:	25f40b58 	addiu	s4,t7,2904
   18cb8:	afbf0068 	sw	ra,104(sp)
   18cbc:	0c0111f9 	jal	447e4 <sqlite3_step>
   18cc0:	271506f0 	addiu	s5,t8,1776
   18cc4:	24030064 	li	v1,100
   18cc8:	0000b825 	move	s7,zero
   18ccc:	3c16001c 	lui	s6,0x1c
   18cd0:	14430076 	bne	v0,v1,18eac <ML_queryDBSelect+0x2e4>
   18cd4:	3c1e001c 	lui	s8,0x1c
   18cd8:	8e620000 	lw	v0,0(s3)
--
   192cc:	afb50044 	sw	s5,68(sp)
   192d0:	afb40040 	sw	s4,64(sp)
   192d4:	afb3003c 	sw	s3,60(sp)
   192d8:	afb20038 	sw	s2,56(sp)
   192dc:	afb10034 	sw	s1,52(sp)
   192e0:	104000bb 	beqz	v0,195d0 <ML_addEntry+0x324>
   192e4:	00808025 	move	s0,a0
   192e8:	3c17002b 	lui	s7,0x2b
   192ec:	26110420 	addiu	s1,s0,1056
   192f0:	3c13001c 	lui	s3,0x1c
   192f4:	3c12001c 	lui	s2,0x1c
   192f8:	266603e8 	addiu	a2,s3,1000
   192fc:	2645796c 	addiu	a1,s2,31084
   19300:	0c006936 	jal	1a4d8 <replace>
   19304:	02202025 	move	a0,s1
   19308:	10400006 	beqz	v0,19324 <ML_addEntry+0x78>
   1930c:	0040a025 	move	s4,v0
   19310:	02202025 	move	a0,s1
   19314:	0c069681 	jal	1a5a04 <strcpy>
   19318:	00402825 	move	a1,v0
   1931c:	0c067e00 	jal	19f800 <free>
   19320:	02802025 	move	a0,s4
   19324:	3c15001c 	lui	s5,0x1c
   19328:	3c14001c 	lui	s4,0x1c
   1932c:	26a603ec 	addiu	a2,s5,1004
   19330:	268503f0 	addiu	a1,s4,1008
   19334:	0c006936 	jal	1a4d8 <replace>
   19338:	02202025 	move	a0,s1
   1933c:	10400006 	beqz	v0,19358 <ML_addEntry+0xac>
   19340:	0040b025 	move	s6,v0
   19344:	02202025 	move	a0,s1
   19348:	0c069681 	jal	1a5a04 <strcpy>
   1934c:	00402825 	move	a1,v0
   19350:	0c067e00 	jal	19f800 <free>
   19354:	02c02025 	move	a0,s6
   19358:	266603e8 	addiu	a2,s3,1000
   1935c:	2645796c 	addiu	a1,s2,31084
   19360:	0c006936 	jal	1a4d8 <replace>
   19364:	02002025 	move	a0,s0
   19368:	10400006 	beqz	v0,19384 <ML_addEntry+0xd8>
   1936c:	0040b025 	move	s6,v0
   19370:	02002025 	move	a0,s0
   19374:	0c069681 	jal	1a5a04 <strcpy>
   19378:	00402825 	move	a1,v0
   1937c:	0c067e00 	jal	19f800 <free>
   19380:	02c02025 	move	a0,s6
   19384:	26a603ec 	addiu	a2,s5,1004
   19388:	268503f0 	addiu	a1,s4,1008
   1938c:	0c006936 	jal	1a4d8 <replace>
   19390:	02002025 	move	a0,s0
   19394:	10400006 	beqz	v0,193b0 <ML_addEntry+0x104>
   19398:	0040b025 	move	s6,v0
   1939c:	02002025 	move	a0,s0
   193a0:	0c069681 	jal	1a5a04 <strcpy>
   193a4:	00402825 	move	a1,v0
   193a8:	0c067e00 	jal	19f800 <free>
   193ac:	02c02025 	move	a0,s6
   193b0:	26040104 	addiu	a0,s0,260
   193b4:	266603e8 	addiu	a2,s3,1000
   193b8:	2645796c 	addiu	a1,s2,31084
   193bc:	0c006936 	jal	1a4d8 <replace>
   193c0:	afa40028 	sw	a0,40(sp)
   193c4:	10400006 	beqz	v0,193e0 <ML_addEntry+0x134>
   193c8:	0040b025 	move	s6,v0
   193cc:	8fa40028 	lw	a0,40(sp)
   193d0:	0c069681 	jal	1a5a04 <strcpy>
   193d4:	00402825 	move	a1,v0
   193d8:	0c067e00 	jal	19f800 <free>
   193dc:	02c02025 	move	a0,s6
   193e0:	8fa40028 	lw	a0,40(sp)
   193e4:	26a603ec 	addiu	a2,s5,1004
   193e8:	0c006936 	jal	1a4d8 <replace>
   193ec:	268503f0 	addiu	a1,s4,1008
   193f0:	10400006 	beqz	v0,1940c <ML_addEntry+0x160>
   193f4:	0040b025 	move	s6,v0
   193f8:	8fa40028 	lw	a0,40(sp)
   193fc:	0c069681 	jal	1a5a04 <strcpy>
   19400:	00402825 	move	a1,v0
   19404:	0c067e00 	jal	19f800 <free>
   19408:	02c02025 	move	a0,s6
   1940c:	26040208 	addiu	a0,s0,520
   19410:	266603e8 	addiu	a2,s3,1000
   19414:	2645796c 	addiu	a1,s2,31084
   19418:	0c006936 	jal	1a4d8 <replace>
   1941c:	afa4002c 	sw	a0,44(sp)
   19420:	10400006 	beqz	v0,1943c <ML_addEntry+0x190>
   19424:	0040b025 	move	s6,v0
   19428:	8fa4002c 	lw	a0,44(sp)
   1942c:	0c069681 	jal	1a5a04 <strcpy>
   19430:	00402825 	move	a1,v0
   19434:	0c067e00 	jal	19f800 <free>
   19438:	02c02025 	move	a0,s6
   1943c:	8fa4002c 	lw	a0,44(sp)
   19440:	26a603ec 	addiu	a2,s5,1004
   19444:	0c006936 	jal	1a4d8 <replace>
   19448:	268503f0 	addiu	a1,s4,1008
   1944c:	10400006 	beqz	v0,19468 <ML_addEntry+0x1bc>
   19450:	0040b025 	move	s6,v0
   19454:	8fa4002c 	lw	a0,44(sp)
   19458:	0c069681 	jal	1a5a04 <strcpy>
   1945c:	00402825 	move	a1,v0
   19460:	0c067e00 	jal	19f800 <free>
   19464:	02c02025 	move	a0,s6
   19468:	2616030c 	addiu	s6,s0,780
   1946c:	266603e8 	addiu	a2,s3,1000
   19470:	2645796c 	addiu	a1,s2,31084
   19474:	0c006936 	jal	1a4d8 <replace>
   19478:	02c02025 	move	a0,s6
   1947c:	10400006 	beqz	v0,19498 <ML_addEntry+0x1ec>
   19480:	00409825 	move	s3,v0
   19484:	02c02025 	move	a0,s6
   19488:	0c069681 	jal	1a5a04 <strcpy>
   1948c:	00402825 	move	a1,v0
   19490:	0c067e00 	jal	19f800 <free>
   19494:	02602025 	move	a0,s3
   19498:	26a603ec 	addiu	a2,s5,1004
   1949c:	268503f0 	addiu	a1,s4,1008
   194a0:	0c006936 	jal	1a4d8 <replace>
   194a4:	02c02025 	move	a0,s6
   194a8:	10400006 	beqz	v0,194c4 <ML_addEntry+0x218>
   194ac:	00409025 	move	s2,v0
   194b0:	02c02025 	move	a0,s6
   194b4:	0c069681 	jal	1a5a04 <strcpy>
   194b8:	00402825 	move	a1,v0
   194bc:	0c067e00 	jal	19f800 <free>
   194c0:	02402025 	move	a0,s2
   194c4:	8e090644 	lw	t1,1604(s0)
   194c8:	29270006 	slti	a3,t1,6
   194cc:	50e0003e 	beqzl	a3,195c8 <ML_addEntry+0x31c>
   194d0:	24090005 	li	t1,5
   194d4:	05230004 	bgezl	t1,194e8 <ML_addEntry+0x23c>
   194d8:	8e08041c 	lw	t0,1052(s0)
   194dc:	ae000644 	sw	zero,1604(s0)
   194e0:	00004825 	move	t1,zero
   194e4:	8e08041c 	lw	t0,1052(s0)
   194e8:	8e0a0418 	lw	t2,1048(s0)
   194ec:	8e0b064c 	lw	t3,1612(s0)
   194f0:	8e0c0648 	lw	t4,1608(s0)
   194f4:	8e0d0640 	lw	t5,1600(s0)
   194f8:	afa80020 	sw	t0,32(sp)
   194fc:	afa9001c 	sw	t1,28(sp)
   19500:	8fa80028 	lw	t0,40(sp)
   19504:	8fa9002c 	lw	t1,44(sp)
   19508:	260e0638 	addiu	t6,s0,1592
   1950c:	3c0f001c 	lui	t7,0x1c
--
   19694:	00808025 	move	s0,a0
   19698:	104000fc 	beqz	v0,19a8c <ML_updateEntry+0x42c>
   1969c:	afa5013c 	sw	a1,316(sp)
   196a0:	3c17002b 	lui	s7,0x2b
   196a4:	24060108 	li	a2,264
   196a8:	00002825 	move	a1,zero
   196ac:	27a40028 	addiu	a0,sp,40
   196b0:	26150420 	addiu	s5,s0,1056
   196b4:	3c12001c 	lui	s2,0x1c
   196b8:	0c067a05 	jal	19e814 <memset>
   196bc:	3c11001c 	lui	s1,0x1c
   196c0:	264603e8 	addiu	a2,s2,1000
   196c4:	2625796c 	addiu	a1,s1,31084
   196c8:	0c006936 	jal	1a4d8 <replace>
   196cc:	02a02025 	move	a0,s5
   196d0:	10400006 	beqz	v0,196ec <ML_updateEntry+0x8c>
   196d4:	00409825 	move	s3,v0
   196d8:	02a02025 	move	a0,s5
   196dc:	0c069681 	jal	1a5a04 <strcpy>
   196e0:	00402825 	move	a1,v0
   196e4:	0c067e00 	jal	19f800 <free>
   196e8:	02602025 	move	a0,s3
   196ec:	3c14001c 	lui	s4,0x1c
   196f0:	3c13001c 	lui	s3,0x1c
   196f4:	268603ec 	addiu	a2,s4,1004
   196f8:	266503f0 	addiu	a1,s3,1008
   196fc:	0c006936 	jal	1a4d8 <replace>
   19700:	02a02025 	move	a0,s5
   19704:	10400006 	beqz	v0,19720 <ML_updateEntry+0xc0>
   19708:	0040b025 	move	s6,v0
   1970c:	02a02025 	move	a0,s5
   19710:	0c069681 	jal	1a5a04 <strcpy>
   19714:	00402825 	move	a1,v0
   19718:	0c067e00 	jal	19f800 <free>
   1971c:	02c02025 	move	a0,s6
   19720:	2616052c 	addiu	s6,s0,1324
   19724:	2625796c 	addiu	a1,s1,31084
   19728:	264603e8 	addiu	a2,s2,1000
   1972c:	0c006936 	jal	1a4d8 <replace>
   19730:	02c02025 	move	a0,s6
   19734:	10400006 	beqz	v0,19750 <ML_updateEntry+0xf0>
   19738:	00402825 	move	a1,v0
   1973c:	02c02025 	move	a0,s6
   19740:	0c069681 	jal	1a5a04 <strcpy>
   19744:	afa20130 	sw	v0,304(sp)
   19748:	0c067e00 	jal	19f800 <free>
   1974c:	8fa40130 	lw	a0,304(sp)
   19750:	266503f0 	addiu	a1,s3,1008
   19754:	268603ec 	addiu	a2,s4,1004
   19758:	0c006936 	jal	1a4d8 <replace>
   1975c:	02c02025 	move	a0,s6
   19760:	10400006 	beqz	v0,1977c <ML_updateEntry+0x11c>
   19764:	00402825 	move	a1,v0
   19768:	02c02025 	move	a0,s6
   1976c:	0c069681 	jal	1a5a04 <strcpy>
   19770:	afa20130 	sw	v0,304(sp)
   19774:	0c067e00 	jal	19f800 <free>
   19778:	8fa40130 	lw	a0,304(sp)
   1977c:	2625796c 	addiu	a1,s1,31084
   19780:	264603e8 	addiu	a2,s2,1000
   19784:	0c006936 	jal	1a4d8 <replace>
   19788:	02002025 	move	a0,s0
   1978c:	10400006 	beqz	v0,197a8 <ML_updateEntry+0x148>
   19790:	00402825 	move	a1,v0
   19794:	02002025 	move	a0,s0
   19798:	0c069681 	jal	1a5a04 <strcpy>
   1979c:	afa20130 	sw	v0,304(sp)
   197a0:	0c067e00 	jal	19f800 <free>
   197a4:	8fa40130 	lw	a0,304(sp)
   197a8:	266503f0 	addiu	a1,s3,1008
   197ac:	268603ec 	addiu	a2,s4,1004
   197b0:	0c006936 	jal	1a4d8 <replace>
   197b4:	02002025 	move	a0,s0
   197b8:	10400006 	beqz	v0,197d4 <ML_updateEntry+0x174>
   197bc:	00402825 	move	a1,v0
   197c0:	02002025 	move	a0,s0
   197c4:	0c069681 	jal	1a5a04 <strcpy>
   197c8:	afa20130 	sw	v0,304(sp)
   197cc:	0c067e00 	jal	19f800 <free>
   197d0:	8fa40130 	lw	a0,304(sp)
   197d4:	26040104 	addiu	a0,s0,260
   197d8:	2625796c 	addiu	a1,s1,31084
   197dc:	264603e8 	addiu	a2,s2,1000
   197e0:	0c006936 	jal	1a4d8 <replace>
   197e4:	afa40130 	sw	a0,304(sp)
   197e8:	10400006 	beqz	v0,19804 <ML_updateEntry+0x1a4>
   197ec:	00402825 	move	a1,v0
   197f0:	8fa40130 	lw	a0,304(sp)
   197f4:	0c069681 	jal	1a5a04 <strcpy>
   197f8:	afa20134 	sw	v0,308(sp)
   197fc:	0c067e00 	jal	19f800 <free>
   19800:	8fa40134 	lw	a0,308(sp)
   19804:	8fa40130 	lw	a0,304(sp)
   19808:	266503f0 	addiu	a1,s3,1008
   1980c:	0c006936 	jal	1a4d8 <replace>
   19810:	268603ec 	addiu	a2,s4,1004
   19814:	10400006 	beqz	v0,19830 <ML_updateEntry+0x1d0>
   19818:	00402825 	move	a1,v0
   1981c:	8fa40130 	lw	a0,304(sp)
   19820:	0c069681 	jal	1a5a04 <strcpy>
   19824:	afa20134 	sw	v0,308(sp)
   19828:	0c067e00 	jal	19f800 <free>
   1982c:	8fa40134 	lw	a0,308(sp)
   19830:	26040208 	addiu	a0,s0,520
   19834:	2625796c 	addiu	a1,s1,31084
   19838:	264603e8 	addiu	a2,s2,1000
   1983c:	0c006936 	jal	1a4d8 <replace>
   19840:	afa40134 	sw	a0,308(sp)
   19844:	10400006 	beqz	v0,19860 <ML_updateEntry+0x200>
   19848:	00402825 	move	a1,v0
   1984c:	8fa40134 	lw	a0,308(sp)
   19850:	0c069681 	jal	1a5a04 <strcpy>
   19854:	afa20138 	sw	v0,312(sp)
   19858:	0c067e00 	jal	19f800 <free>
   1985c:	8fa40138 	lw	a0,312(sp)
   19860:	8fa40134 	lw	a0,308(sp)
   19864:	266503f0 	addiu	a1,s3,1008
   19868:	0c006936 	jal	1a4d8 <replace>
   1986c:	268603ec 	addiu	a2,s4,1004
   19870:	10400006 	beqz	v0,1988c <ML_updateEntry+0x22c>
   19874:	00402825 	move	a1,v0
   19878:	8fa40134 	lw	a0,308(sp)
   1987c:	0c069681 	jal	1a5a04 <strcpy>
   19880:	afa20138 	sw	v0,312(sp)
   19884:	0c067e00 	jal	19f800 <free>
   19888:	8fa40138 	lw	a0,312(sp)
   1988c:	2604030c 	addiu	a0,s0,780
   19890:	2625796c 	addiu	a1,s1,31084
   19894:	264603e8 	addiu	a2,s2,1000
   19898:	0c006936 	jal	1a4d8 <replace>
   1989c:	afa40138 	sw	a0,312(sp)
   198a0:	10400006 	beqz	v0,198bc <ML_updateEntry+0x25c>
   198a4:	00402825 	move	a1,v0
   198a8:	8fa40138 	lw	a0,312(sp)
   198ac:	0c069681 	jal	1a5a04 <strcpy>
   198b0:	afa20140 	sw	v0,320(sp)
   198b4:	0c067e00 	jal	19f800 <free>
   198b8:	8fa40140 	lw	a0,320(sp)
   198bc:	8fa40138 	lw	a0,312(sp)
   198c0:	266503f0 	addiu	a1,s3,1008
   198c4:	0c006936 	jal	1a4d8 <replace>
   198c8:	268603ec 	addiu	a2,s4,1004
   198cc:	10400006 	beqz	v0,198e8 <ML_updateEntry+0x288>
   198d0:	00402825 	move	a1,v0
   198d4:	8fa40138 	lw	a0,312(sp)
   198d8:	0c069681 	jal	1a5a04 <strcpy>
   198dc:	afa20140 	sw	v0,320(sp)
   198e0:	0c067e00 	jal	19f800 <free>
   198e4:	8fa40140 	lw	a0,320(sp)
   198e8:	8e070644 	lw	a3,1604(s0)
   198ec:	28e80006 	slti	t0,a3,6
   198f0:	11000046 	beqz	t0,19a0c <ML_updateEntry+0x3ac>
   198f4:	8faa013c 	lw	t2,316(sp)
   198f8:	04e20001 	bltzl	a3,19900 <ML_updateEntry+0x2a0>
   198fc:	ae000644 	sw	zero,1604(s0)
   19900:	8faa013c 	lw	t2,316(sp)
   19904:	814b0000 	lb	t3,0(t2)
   19908:	15600046 	bnez	t3,19a24 <ML_updateEntry+0x3c4>
   1990c:	8fa5013c 	lw	a1,316(sp)
   19910:	02a02825 	move	a1,s5
   19914:	0c069681 	jal	1a5a04 <strcpy>
   19918:	27a40028 	addiu	a0,sp,40
   1991c:	8e0c041c 	lw	t4,1052(s0)
   19920:	8e0d0644 	lw	t5,1604(s0)
   19924:	8e0e0418 	lw	t6,1048(s0)
   19928:	8e0f064c 	lw	t7,1612(s0)
   1992c:	8e180648 	lw	t8,1608(s0)
   19930:	8e190640 	lw	t9,1600(s0)
--
   19a00:	8fb30154 	lw	s3,340(sp)
   19a04:	03e00008 	jr	ra
   19a08:	27bd0170 	addiu	sp,sp,368
   19a0c:	24090005 	li	t1,5
   19a10:	ae090644 	sw	t1,1604(s0)
   19a14:	814b0000 	lb	t3,0(t2)
   19a18:	1160ffbe 	beqz	t3,19914 <ML_updateEntry+0x2b4>
   19a1c:	02a02825 	move	a1,s5
   19a20:	8fa5013c 	lw	a1,316(sp)
   19a24:	0c069681 	jal	1a5a04 <strcpy>
   19a28:	27a40028 	addiu	a0,sp,40
   19a2c:	264603e8 	addiu	a2,s2,1000
   19a30:	2625796c 	addiu	a1,s1,31084
   19a34:	0c006936 	jal	1a4d8 <replace>
   19a38:	27a40028 	addiu	a0,sp,40
   19a3c:	10400006 	beqz	v0,19a58 <ML_updateEntry+0x3f8>
   19a40:	00409025 	move	s2,v0
   19a44:	27a40028 	addiu	a0,sp,40
   19a48:	0c069681 	jal	1a5a04 <strcpy>
   19a4c:	00402825 	move	a1,v0
   19a50:	0c067e00 	jal	19f800 <free>
   19a54:	02402025 	move	a0,s2
   19a58:	268603ec 	addiu	a2,s4,1004
   19a5c:	266503f0 	addiu	a1,s3,1008
   19a60:	0c006936 	jal	1a4d8 <replace>
   19a64:	27a40028 	addiu	a0,sp,40
   19a68:	1040ffac 	beqz	v0,1991c <ML_updateEntry+0x2bc>
   19a6c:	00408825 	move	s1,v0
   19a70:	27a40028 	addiu	a0,sp,40
   19a74:	0c069681 	jal	1a5a04 <strcpy>
   19a78:	00402825 	move	a1,v0
   19a7c:	0c067e00 	jal	19f800 <free>
   19a80:	02202025 	move	a0,s1
   19a84:	1000ffa6 	b	19920 <ML_updateEntry+0x2c0>
   19a88:	8e0c041c 	lw	t4,1052(s0)
   19a8c:	3c04002b 	lui	a0,0x2b
   19a90:	0c06fcaa 	jal	1bf2a8 <sceIoChdir>
   19a94:	248428e0 	addiu	a0,a0,10464
   19a98:	04400017 	bltz	v0,19af8 <ML_updateEntry+0x498>
   19a9c:	3c03002b 	lui	v1,0x2b
   19aa0:	3c17002b 	lui	s7,0x2b
   19aa4:	26e527d4 	addiu	a1,s7,10196
   19aa8:	0c00c209 	jal	30824 <sqlite3_open>
   19aac:	246427d8 	addiu	a0,v1,10200
   19ab0:	14400011 	bnez	v0,19af8 <ML_updateEntry+0x498>
   19ab4:	3c05001c 	lui	a1,0x1c
   19ab8:	8ee427d4 	lw	a0,10196(s7)
   19abc:	3c11002b 	lui	s1,0x2b
   19ac0:	26281bcc 	addiu	t0,s1,7116
   19ac4:	00003825 	move	a3,zero
   19ac8:	00003025 	move	a2,zero
   19acc:	0c00b861 	jal	2e184 <sqlite3_exec>
--
   19d50:	8fbe0248 	lw	s8,584(sp)
   19d54:	8fb70244 	lw	s7,580(sp)
   19d58:	8fb60240 	lw	s6,576(sp)
   19d5c:	8fb5023c 	lw	s5,572(sp)
   19d60:	8fb40238 	lw	s4,568(sp)
   19d64:	8fb30234 	lw	s3,564(sp)
   19d68:	8fb20230 	lw	s2,560(sp)
   19d6c:	8fb00228 	lw	s0,552(sp)
   19d70:	02201025 	move	v0,s1
   19d74:	8fb1022c 	lw	s1,556(sp)
   19d78:	03e00008 	jr	ra
   19d7c:	27bd0250 	addiu	sp,sp,592
   19d80:	0c006936 	jal	1a4d8 <replace>
   19d84:	00000000 	nop
   19d88:	00409025 	move	s2,v0
   19d8c:	00402825 	move	a1,v0
   19d90:	10400005 	beqz	v0,19da8 <ML_checkFiles+0x280>
   19d94:	02002025 	move	a0,s0
   19d98:	0c069681 	jal	1a5a04 <strcpy>
   19d9c:	00000000 	nop
   19da0:	0c067e00 	jal	19f800 <free>
   19da4:	02402025 	move	a0,s2
   19da8:	8fa50218 	lw	a1,536(sp)
   19dac:	02002025 	move	a0,s0
   19db0:	0c006936 	jal	1a4d8 <replace>
   19db4:	27c603ec 	addiu	a2,s8,1004
   19db8:	00409025 	move	s2,v0
   19dbc:	00402825 	move	a1,v0
   19dc0:	10400005 	beqz	v0,19dd8 <ML_checkFiles+0x2b0>
   19dc4:	02002025 	move	a0,s0
   19dc8:	0c069681 	jal	1a5a04 <strcpy>
   19dcc:	00000000 	nop
   19dd0:	0c067e00 	jal	19f800 <free>
   19dd4:	02402025 	move	a0,s2
   19dd8:	8fa8021c 	lw	t0,540(sp)
   19ddc:	03a03825 	move	a3,sp
   19de0:	24050c00 	li	a1,3072
   19de4:	25060f28 	addiu	a2,t0,3880
   19de8:	0c068cc0 	jal	1a3300 <snprintf>
   19dec:	26c41bd4 	addiu	a0,s6,7124
   19df0:	8ee427d4 	lw	a0,10196(s7)
   19df4:	00004025 	move	t0,zero
   19df8:	27a70210 	addiu	a3,sp,528
   19dfc:	2406ffff 	li	a2,-1
   19e00:	0c00ed5f 	jal	3b57c <sqlite3_prepare_v2>
   19e04:	26c51bd4 	addiu	a1,s6,7124
   19e08:	5440ff8f 	bnezl	v0,19c48 <ML_checkFiles+0x120>
   19e0c:	8e241bd0 	lw	a0,7120(s1)
   19e10:	0c0111f9 	jal	447e4 <sqlite3_step>
   19e14:	8fa40210 	lw	a0,528(sp)
   19e18:	0c01109f 	jal	4427c <sqlite3_finalize>
   19e1c:	8fa40210 	lw	a0,528(sp)
   19e20:	1000ff89 	b	19c48 <ML_checkFiles+0x120>
--
   19f44:	0c06fc94 	jal	1bf250 <sceIoClose>
   19f48:	00402025 	move	a0,v0
   19f4c:	8e241bd0 	lw	a0,7120(s1)
   19f50:	0c0111f9 	jal	447e4 <sqlite3_step>
   19f54:	27b00108 	addiu	s0,sp,264
   19f58:	240c0064 	li	t4,100
   19f5c:	24060108 	li	a2,264
   19f60:	00002825 	move	a1,zero
   19f64:	104cffdd 	beq	v0,t4,19edc <ML_checkFiles+0x3b4>
   19f68:	02002025 	move	a0,s0
   19f6c:	1000ff65 	b	19d04 <ML_checkFiles+0x1dc>
   19f70:	00000000 	nop
   19f74:	0c006936 	jal	1a4d8 <replace>
   19f78:	00000000 	nop
   19f7c:	00409025 	move	s2,v0
   19f80:	00402825 	move	a1,v0
   19f84:	10400005 	beqz	v0,19f9c <ML_checkFiles+0x474>
   19f88:	02002025 	move	a0,s0
   19f8c:	0c069681 	jal	1a5a04 <strcpy>
   19f90:	00000000 	nop
   19f94:	0c067e00 	jal	19f800 <free>
   19f98:	02402025 	move	a0,s2
   19f9c:	8fa50218 	lw	a1,536(sp)
   19fa0:	02002025 	move	a0,s0
   19fa4:	0c006936 	jal	1a4d8 <replace>
   19fa8:	26a603ec 	addiu	a2,s5,1004
   19fac:	00409025 	move	s2,v0
   19fb0:	00402825 	move	a1,v0
   19fb4:	10400005 	beqz	v0,19fcc <ML_checkFiles+0x4a4>
   19fb8:	02002025 	move	a0,s0
   19fbc:	0c069681 	jal	1a5a04 <strcpy>
   19fc0:	00000000 	nop
   19fc4:	0c067e00 	jal	19f800 <free>
   19fc8:	02402025 	move	a0,s2
   19fcc:	03a03825 	move	a3,sp
   19fd0:	27c60f28 	addiu	a2,s8,3880
   19fd4:	24050c00 	li	a1,3072
   19fd8:	0c068cc0 	jal	1a3300 <snprintf>
   19fdc:	26c41bd4 	addiu	a0,s6,7124
   19fe0:	8ee427d4 	lw	a0,10196(s7)
   19fe4:	00004025 	move	t0,zero
   19fe8:	27a70210 	addiu	a3,sp,528
   19fec:	2406ffff 	li	a2,-1
   19ff0:	0c00ed5f 	jal	3b57c <sqlite3_prepare_v2>
   19ff4:	26c51bd4 	addiu	a1,s6,7124
   19ff8:	5440ffb1 	bnezl	v0,19ec0 <ML_checkFiles+0x398>
   19ffc:	8e241bd0 	lw	a0,7120(s1)
   1a000:	0c0111f9 	jal	447e4 <sqlite3_step>
   1a004:	8fa40210 	lw	a0,528(sp)
   1a008:	0c01109f 	jal	4427c <sqlite3_finalize>
   1a00c:	8fa40210 	lw	a0,528(sp)
   1a010:	1000ffab 	b	19ec0 <ML_checkFiles+0x398>
   1a014:	8e241bd0 	lw	a0,7120(s1)
--
   1a5b0:	0040b025 	move	s6,v0
   1a5b4:	02802825 	move	a1,s4
   1a5b8:	1440ffe8 	bnez	v0,1a55c <replace+0x84>
   1a5bc:	02602025 	move	a0,s3
   1a5c0:	02202825 	move	a1,s1
   1a5c4:	0c069681 	jal	1a5a04 <strcpy>
   1a5c8:	02002025 	move	a0,s0
   1a5cc:	8fbf0034 	lw	ra,52(sp)
   1a5d0:	8fbe0030 	lw	s8,48(sp)
   1a5d4:	8fb7002c 	lw	s7,44(sp)
   1a5d8:	8fb60028 	lw	s6,40(sp)
   1a5dc:	8fb50024 	lw	s5,36(sp)
   1a5e0:	8fb40020 	lw	s4,32(sp)
   1a5e4:	8fb20018 	lw	s2,24(sp)
   1a5e8:	8fb10014 	lw	s1,20(sp)
   1a5ec:	8fb00010 	lw	s0,16(sp)
   1a5f0:	02601025 	move	v0,s3
   1a5f4:	8fb3001c 	lw	s3,28(sp)
   1a5f8:	03e00008 	jr	ra
   1a5fc:	27bd0038 	addiu	sp,sp,56
   1a600:	0c067e00 	jal	19f800 <free>
   1a604:	02602025 	move	a0,s3
   1a608:	1000fff0 	b	1a5cc <replace+0xf4>
   1a60c:	00009825 	move	s3,zero

0001a610 <readRGBA>:
   1a610:	27bdfff0 	addiu	sp,sp,-16
   1a614:	afb10004 	sw	s1,4(sp)
   1a618:	3c11001c 	lui	s1,0x1c
   1a61c:	afb00000 	sw	s0,0(sp)
   1a620:	00808025 	move	s0,a0
   1a624:	00a02025 	move	a0,a1
   1a628:	26250f54 	addiu	a1,s1,3924
   1a62c:	afbf000c 	sw	ra,12(sp)
   1a630:	0c069847 	jal	1a611c <strtok>
   1a634:	afb20008 	sw	s2,8(sp)
   1a638:	1040000f 	beqz	v0,1a678 <readRGBA+0x68>
   1a63c:	8fbf000c 	lw	ra,12(sp)
   1a640:	00402025 	move	a0,v0
   1a644:	2612000c 	addiu	s2,s0,12
   1a648:	26310f54 	addiu	s1,s1,3924
--
   1c2ac:	27a50208 	addiu	a1,sp,520
   1c2b0:	0c069681 	jal	1a5a04 <strcpy>
   1c2b4:	afae0240 	sw	t6,576(sp)
   1c2b8:	8fa40240 	lw	a0,576(sp)
   1c2bc:	3c07001c 	lui	a3,0x1c
   1c2c0:	24e51330 	addiu	a1,a3,4912
   1c2c4:	0c006936 	jal	1a4d8 <replace>
   1c2c8:	03a03025 	move	a2,sp
   1c2cc:	8ec82afc 	lw	t0,11004(s6)
   1c2d0:	00402825 	move	a1,v0
   1c2d4:	00084880 	sll	t1,t0,0x2
   1c2d8:	01281821 	addu	v1,t1,t0
   1c2dc:	00035100 	sll	t2,v1,0x4
   1c2e0:	01485823 	subu	t3,t2,t0
   1c2e4:	000b6080 	sll	t4,t3,0x2
   1c2e8:	258d0038 	addiu	t5,t4,56
   1c2ec:	10400021 	beqz	v0,1c374 <skinLoad+0x524>
   1c2f0:	03cd2021 	addu	a0,s8,t5
   1c2f4:	0c069681 	jal	1a5a04 <strcpy>
   1c2f8:	afa20240 	sw	v0,576(sp)
   1c2fc:	0c067e00 	jal	19f800 <free>
   1c300:	8fa40240 	lw	a0,576(sp)
   1c304:	8ece2afc 	lw	t6,11004(s6)
   1c308:	25cf0001 	addiu	t7,t6,1
   1c30c:	1000ff1b 	b	1bf7c <skinLoad+0x12c>
   1c310:	aecf2afc 	sw	t7,11004(s6)
   1c314:	8fa50248 	lw	a1,584(sp)
   1c318:	0c069681 	jal	1a5a04 <strcpy>
   1c31c:	03a02025 	move	a0,sp
   1c320:	0c00579a 	jal	15e68 <directoryUp>
   1c324:	03a02025 	move	a0,sp
   1c328:	0c00579a 	jal	15e68 <directoryUp>
   1c32c:	03a02025 	move	a0,sp
   1c330:	0c06789a 	jal	19e268 <strlen>
   1c334:	03a02025 	move	a0,sp
   1c338:	8fa50240 	lw	a1,576(sp)
   1c33c:	03a25021 	addu	t2,sp,v0
   1c340:	244b0001 	addiu	t3,v0,1
   1c344:	240c002f 	li	t4,47
   1c348:	a14c0000 	sb	t4,0(t2)
   1c34c:	0c069fa9 	jal	1a7ea4 <stpcpy>
--
   1d344:	ae400018 	sw	zero,24(s2)
   1d348:	0c026095 	jal	98254 <oslDeleteImage>
   1d34c:	00000000 	nop
   1d350:	ae40001c 	sw	zero,28(s2)
   1d354:	8e440020 	lw	a0,32(s2)
   1d358:	10800007 	beqz	a0,1d378 <clearMenu+0x70>
   1d35c:	3c030030 	lui	v1,0x30
   1d360:	8c6598a0 	lw	a1,-26464(v1)
   1d364:	50850005 	beql	a0,a1,1d37c <clearMenu+0x74>
   1d368:	8e460024 	lw	a2,36(s2)
   1d36c:	0c026095 	jal	98254 <oslDeleteImage>
   1d370:	00000000 	nop
   1d374:	ae400020 	sw	zero,32(s2)
   1d378:	8e460024 	lw	a2,36(s2)
   1d37c:	26500034 	addiu	s0,s2,52
   1d380:	18c00011 	blez	a2,1d3c8 <clearMenu+0xc0>
   1d384:	00008825 	move	s1,zero
   1d388:	8e040000 	lw	a0,0(s0)
   1d38c:	5080000b 	beqzl	a0,1d3bc <clearMenu+0xb4>
   1d390:	26310001 	addiu	s1,s1,1
   1d394:	0c067e00 	jal	19f800 <free>
   1d398:	26310001 	addiu	s1,s1,1
   1d39c:	8e460024 	lw	a2,36(s2)
   1d3a0:	0226382a 	slt	a3,s1,a2
   1d3a4:	10e00008 	beqz	a3,1d3c8 <clearMenu+0xc0>
   1d3a8:	ae000000 	sw	zero,0(s0)
   1d3ac:	8e040004 	lw	a0,4(s0)
   1d3b0:	1480fff8 	bnez	a0,1d394 <clearMenu+0x8c>
   1d3b4:	26100004 	addiu	s0,s0,4
   1d3b8:	26310001 	addiu	s1,s1,1
   1d3bc:	0226202a 	slt	a0,s1,a2
   1d3c0:	5480fffb 	bnezl	a0,1d3b0 <clearMenu+0xa8>
   1d3c4:	8e040004 	lw	a0,4(s0)
   1d3c8:	8fbf000c 	lw	ra,12(sp)
   1d3cc:	8fb10004 	lw	s1,4(sp)
   1d3d0:	8fb00000 	lw	s0,0(sp)
   1d3d4:	ae400030 	sw	zero,48(s2)
   1d3d8:	ae400024 	sw	zero,36(s2)
   1d3dc:	ae400028 	sw	zero,40(s2)
   1d3e0:	ae404e54 	sw	zero,20052(s2)
   1d3e4:	ae404e58 	sw	zero,20056(s2)
--
   240e0:	0c026095 	jal	98254 <oslDeleteImage>
   240e4:	ae62bda4 	sw	v0,-16988(s3)
   240e8:	8e6dbda4 	lw	t5,-16988(s3)
   240ec:	adb7002c 	sw	s7,44(t5)
   240f0:	1000fc58 	b	23254 <playFile+0x28c>
   240f4:	adbe0030 	sw	s8,48(t5)
   240f8:	0c069681 	jal	1a5a04 <strcpy>
   240fc:	26440420 	addiu	a0,s2,1056
   24100:	1000fc7c 	b	232f4 <playFile+0x32c>
   24104:	8eab0078 	lw	t3,120(s5)
   24108:	0c067dfc 	jal	19f7f0 <malloc>
   2410c:	00000000 	nop
   24110:	1040fc50 	beqz	v0,23254 <playFile+0x28c>
   24114:	0040a025 	move	s4,v0
   24118:	8fa4120c 	lw	a0,4620(sp)
   2411c:	240601ff 	li	a2,511
   24120:	0c06fc96 	jal	1bf258 <sceIoOpen>
   24124:	24050001 	li	a1,1
   24128:	04410031 	bgez	v0,241f0 <playFile+0x1228>
   2412c:	0040a825 	move	s5,v0
   24130:	0c067e00 	jal	19f800 <free>
   24134:	02802025 	move	a0,s4
   24138:	1000fc47 	b	23258 <playFile+0x290>
   2413c:	8e0ea1b4 	lw	t6,-24140(s0)
   24140:	1000fd1b 	b	235b0 <playFile+0x5e8>
   24144:	0000a025 	move	s4,zero
   24148:	3c1e001c 	lui	s8,0x1c
   2414c:	02a02025 	move	a0,s5
   24150:	0c005a80 	jal	16a00 <SCROBBLER_addTrack>
   24154:	27c63d34 	addiu	a2,s8,15668
   24158:	0c003c99 	jal	f264 <unsetAudioFunctions>
   2415c:	00000000 	nop
   24160:	8fb3123c 	lw	s3,4668(sp)
   24164:	8e64bda4 	lw	a0,-16988(s3)
   24168:	5080fd7e 	beqzl	a0,23764 <playFile+0x79c>
   2416c:	8fa41244 	lw	a0,4676(sp)
   24170:	0c026095 	jal	98254 <oslDeleteImage>
   24174:	00000000 	nop
   24178:	1000fd79 	b	23760 <playFile+0x798>
   2417c:	ae60bda4 	sw	zero,-16988(s3)
   24180:	3c188000 	lui	t8,0x8000
--
   241f8:	00402025 	move	a0,v0
   241fc:	0c06fc9c 	jal	1bf270 <sceIoLseek>
   24200:	00063fc3 	sra	a3,a2,0x1f
   24204:	8fa60098 	lw	a2,152(sp)
   24208:	02802825 	move	a1,s4
   2420c:	0c06fc98 	jal	1bf260 <sceIoRead>
   24210:	02a02025 	move	a0,s5
   24214:	0c06fc94 	jal	1bf250 <sceIoClose>
   24218:	02a02025 	move	a0,s5
   2421c:	8fa50098 	lw	a1,152(sp)
   24220:	3c07001f 	lui	a3,0x1f
   24224:	24e620bc 	addiu	a2,a3,8380
   24228:	0c0286c6 	jal	a1b18 <oslSetTempFileData>
   2422c:	02802025 	move	a0,s4
   24230:	3c08001f 	lui	t0,0x1f
   24234:	8d0420b4 	lw	a0,8372(t0)
   24238:	24060003 	li	a2,3
   2423c:	0c028852 	jal	a2148 <oslLoadImageFileJPG>
   24240:	2405000a 	li	a1,10
   24244:	02802025 	move	a0,s4
   24248:	0c067e00 	jal	19f800 <free>
   2424c:	0040b025 	move	s6,v0
   24250:	1000ff92 	b	2409c <playFile+0x10d4>
   24254:	00000000 	nop
   24258:	0015f042 	srl	s8,s5,0x1
   2425c:	03fe9825 	or	s3,ra,s8
   24260:	44932800 	mtc1	s3,$f5
   24264:	00000000 	nop
   24268:	468029a0 	cvt.s.w	$f6,$f5
   2426c:	1000ff67 	b	2400c <playFile+0x1044>
   24270:	460631c0 	add.s	$f7,$f6,$f6
   24274:	2f350708 	sltiu	s5,t9,1800
   24278:	12a0ff7a 	beqz	s5,24064 <playFile+0x109c>
   2427c:	00000000 	nop
   24280:	1000fd49 	b	237a8 <playFile+0x7e0>
   24284:	00000000 	nop
   24288:	2f250e10 	sltiu	a1,t9,3600
   2428c:	10a0ff75 	beqz	a1,24064 <playFile+0x109c>
   24290:	00000000 	nop
   24294:	1000fd44 	b	237a8 <playFile+0x7e0>
   24298:	00000000 	nop
--
   25490:	250521a8 	addiu	a1,t0,8616
   25494:	0c0678a3 	jal	19e28c <strcmp>
   25498:	27a40380 	addiu	a0,sp,896
   2549c:	1440004f 	bnez	v0,255dc <gui_player+0x674>
   254a0:	8e30a1b4 	lw	s0,-24140(s1)
   254a4:	0c000353 	jal	d4c <M3U_clear>
   254a8:	00000000 	nop
   254ac:	8e2aa1b4 	lw	t2,-24140(s1)
   254b0:	3c0b001c 	lui	t3,0x1c
   254b4:	3c0c001c 	lui	t4,0x1c
   254b8:	25440708 	addiu	a0,t2,1800
   254bc:	25661f84 	addiu	a2,t3,8068
   254c0:	0c006936 	jal	1a4d8 <replace>
   254c4:	25851f74 	addiu	a1,t4,8052
   254c8:	10400007 	beqz	v0,254e8 <gui_player+0x580>
   254cc:	00402025 	move	a0,v0
   254d0:	0c000195 	jal	654 <M3U_open>
   254d4:	afa2038c 	sw	v0,908(sp)
   254d8:	0c06fca6 	jal	1bf298 <sceIoRemove>
   254dc:	8fa4038c 	lw	a0,908(sp)
   254e0:	0c067e00 	jal	19f800 <free>
   254e4:	8fa4038c 	lw	a0,908(sp)
   254e8:	8e2da1b4 	lw	t5,-24140(s1)
   254ec:	03a02825 	move	a1,sp
   254f0:	0c0059aa 	jal	166a8 <readBookmark>
   254f4:	25a40708 	addiu	a0,t5,1800
   254f8:	8e2ea1b4 	lw	t6,-24140(s1)
   254fc:	0c06fca6 	jal	1bf298 <sceIoRemove>
   25500:	25c40708 	addiu	a0,t6,1800
   25504:	0c00037a 	jal	de8 <M3U_getPlaylist>
   25508:	00000000 	nop
   2550c:	8fa60110 	lw	a2,272(sp)
   25510:	8fa70114 	lw	a3,276(sp)
   25514:	8fa50000 	lw	a1,0(sp)
   25518:	0c009268 	jal	249a0 <playPlaylist>
   2551c:	00402025 	move	a0,v0
   25520:	1000ffa1 	b	253a8 <gui_player+0x440>
   25524:	00000000 	nop
   25528:	0c000353 	jal	d4c <M3U_clear>
   2552c:	00000000 	nop
   25530:	8e2fa1b4 	lw	t7,-24140(s1)
--
   261b8:	afb30010 	sw	s3,16(sp)
   261bc:	afb2000c 	sw	s2,12(sp)
   261c0:	afb10008 	sw	s1,8(sp)
   261c4:	afb00004 	sw	s0,4(sp)
   261c8:	ac800004 	sw	zero,4(a0)
   261cc:	0c00026e 	jal	9b8 <M3U_getSongCount>
   261d0:	0080a025 	move	s4,a0
   261d4:	28430001 	slti	v1,v0,1
   261d8:	00032023 	negu	a0,v1
   261dc:	ae820024 	sw	v0,36(s4)
   261e0:	1840001b 	blez	v0,26250 <buildMenuFromPlaylist+0xa8>
   261e4:	ae840000 	sw	a0,0(s4)
   261e8:	26910034 	addiu	s1,s4,52
   261ec:	00009025 	move	s2,zero
   261f0:	3c150030 	lui	s5,0x30
   261f4:	0c000271 	jal	9c4 <M3U_getSong>
   261f8:	02402025 	move	a0,s2
   261fc:	8e240000 	lw	a0,0(s1)
   26200:	10800003 	beqz	a0,26210 <buildMenuFromPlaylist+0x68>
   26204:	00409825 	move	s3,v0
   26208:	0c067e00 	jal	19f800 <free>
   2620c:	00000000 	nop
   26210:	0c067dfc 	jal	19f7f0 <malloc>
   26214:	24040518 	li	a0,1304
   26218:	00408025 	move	s0,v0
   2621c:	2665010c 	addiu	a1,s3,268
   26220:	24440004 	addiu	a0,v0,4
   26224:	1040000a 	beqz	v0,26250 <buildMenuFromPlaylist+0xa8>
   26228:	ae220000 	sw	v0,0(s1)
   2622c:	0c069681 	jal	1a5a04 <strcpy>
   26230:	26520001 	addiu	s2,s2,1
   26234:	8e820024 	lw	v0,36(s4)
   26238:	8ea598ac 	lw	a1,-26452(s5)
   2623c:	0242302a 	slt	a2,s2,v0
   26240:	ae000510 	sw	zero,1296(s0)
   26244:	ae050000 	sw	a1,0(s0)
   26248:	14c0ffea 	bnez	a2,261f4 <buildMenuFromPlaylist+0x4c>
   2624c:	26310004 	addiu	s1,s1,4
   26250:	8fbf001c 	lw	ra,28(sp)
   26254:	8fb50018 	lw	s5,24(sp)
   26258:	8fb40014 	lw	s4,20(sp)
--
   27628:	afa0006c 	sw	zero,108(sp)
   2762c:	afa00070 	sw	zero,112(sp)
   27630:	afa00074 	sw	zero,116(sp)
   27634:	afa00078 	sw	zero,120(sp)
   27638:	afa0007c 	sw	zero,124(sp)
   2763c:	afa00080 	sw	zero,128(sp)
   27640:	afa00084 	sw	zero,132(sp)
   27644:	afa00088 	sw	zero,136(sp)
   27648:	afa0008c 	sw	zero,140(sp)
   2764c:	afa00090 	sw	zero,144(sp)
   27650:	a7a00094 	sh	zero,148(sp)
   27654:	26910034 	addiu	s1,s4,52
   27658:	26100034 	addiu	s0,s0,52
   2765c:	0000b025 	move	s6,zero
   27660:	10000002 	b	2766c <buildSettingsMenu+0xa8>
   27664:	26b52574 	addiu	s5,s5,9588
   27668:	0260b025 	move	s6,s3
   2766c:	8e240000 	lw	a0,0(s1)
   27670:	10800003 	beqz	a0,27680 <buildSettingsMenu+0xbc>
   27674:	00000000 	nop
   27678:	0c067e00 	jal	19f800 <free>
   2767c:	00000000 	nop
   27680:	0c067dfc 	jal	19f7f0 <malloc>
   27684:	24040518 	li	a0,1304
   27688:	1040002a 	beqz	v0,27734 <buildSettingsMenu+0x170>
   2768c:	ae220000 	sw	v0,0(s1)
   27690:	8e040000 	lw	a0,0(s0)
   27694:	10800003 	beqz	a0,276a4 <buildSettingsMenu+0xe0>
   27698:	00000000 	nop
   2769c:	0c067e00 	jal	19f800 <free>
   276a0:	00000000 	nop
   276a4:	0c067dfc 	jal	19f7f0 <malloc>
   276a8:	24040518 	li	a0,1304
   276ac:	26d30001 	addiu	s3,s6,1
   276b0:	02603825 	move	a3,s3
   276b4:	02a03025 	move	a2,s5
   276b8:	24050064 	li	a1,100
   276bc:	03a02025 	move	a0,sp
   276c0:	1040001c 	beqz	v0,27734 <buildSettingsMenu+0x170>
   276c4:	ae020000 	sw	v0,0(s0)
   276c8:	0c068cc0 	jal	1a3300 <snprintf>
   276cc:	00000000 	nop
   276d0:	8e320000 	lw	s2,0(s1)
   276d4:	0c0073bf 	jal	1cefc <langGetString>
   276d8:	03a02025 	move	a0,sp
   276dc:	00402825 	move	a1,v0
   276e0:	0c069681 	jal	1a5a04 <strcpy>
   276e4:	26440004 	addiu	a0,s2,4
   276e8:	8e270000 	lw	a3,0(s1)
   276ec:	24060032 	li	a2,50
--
   2b754:	03e00008 	jr	ra
   2b758:	27bd0290 	addiu	sp,sp,656

0002b75c <addMenuElement>:
   2b75c:	27bdffe8 	addiu	sp,sp,-24
   2b760:	afb10004 	sw	s1,4(sp)
   2b764:	afb00000 	sw	s0,0(sp)
   2b768:	2491000c 	addiu	s1,a0,12
   2b76c:	3c100030 	lui	s0,0x30
   2b770:	2610a1c8 	addiu	s0,s0,-24120
   2b774:	00111080 	sll	v0,s1,0x2
   2b778:	02021821 	addu	v1,s0,v0
   2b77c:	8c640004 	lw	a0,4(v1)
   2b780:	afb40010 	sw	s4,16(sp)
   2b784:	afb3000c 	sw	s3,12(sp)
   2b788:	afbf0014 	sw	ra,20(sp)
   2b78c:	afb20008 	sw	s2,8(sp)
   2b790:	00a09825 	move	s3,a1
   2b794:	10800003 	beqz	a0,2b7a4 <addMenuElement+0x48>
   2b798:	00c0a025 	move	s4,a2
   2b79c:	0c067e00 	jal	19f800 <free>
   2b7a0:	00000000 	nop
   2b7a4:	0c067dfc 	jal	19f7f0 <malloc>
   2b7a8:	24040518 	li	a0,1304
   2b7ac:	00112080 	sll	a0,s1,0x2
   2b7b0:	02042821 	addu	a1,s0,a0
   2b7b4:	00409025 	move	s2,v0
   2b7b8:	1040000f 	beqz	v0,2b7f8 <addMenuElement+0x9c>
   2b7bc:	aca20004 	sw	v0,4(a1)
   2b7c0:	02602825 	move	a1,s3
   2b7c4:	0c069681 	jal	1a5a04 <strcpy>
   2b7c8:	24440004 	addiu	a0,v0,4
   2b7cc:	ae400000 	sw	zero,0(s2)
   2b7d0:	ae540510 	sw	s4,1296(s2)
   2b7d4:	00001025 	move	v0,zero
   2b7d8:	8fbf0014 	lw	ra,20(sp)
   2b7dc:	8fb40010 	lw	s4,16(sp)
   2b7e0:	8fb3000c 	lw	s3,12(sp)
   2b7e4:	8fb20008 	lw	s2,8(sp)
   2b7e8:	8fb10004 	lw	s1,4(sp)
   2b7ec:	8fb00000 	lw	s0,0(sp)
--
   2b8c8:	8f19a574 	lw	t9,-23180(t8)
   2b8cc:	8e04001c 	lw	a0,28(s0)
   2b8d0:	3c05001c 	lui	a1,0x1c
   2b8d4:	8f230014 	lw	v1,20(t9)
   2b8d8:	94870002 	lhu	a3,2(a0)
   2b8dc:	24a43314 	addiu	a0,a1,13076
   2b8e0:	00434021 	addu	t0,v0,v1
   2b8e4:	15000002 	bnez	t0,2b8f0 <buildMainMenu+0xf0>
   2b8e8:	00e8001a 	div	zero,a3,t0
   2b8ec:	0007000d 	break	0x7
   2b8f0:	ae020028 	sw	v0,40(s0)
   2b8f4:	ae40a1c8 	sw	zero,-24120(s2)
   2b8f8:	ae004e54 	sw	zero,20052(s0)
   2b8fc:	ae000004 	sw	zero,4(s0)
   2b900:	00001012 	mflo	v0
   2b904:	0c0073bf 	jal	1cefc <langGetString>
   2b908:	ae020008 	sw	v0,8(s0)
   2b90c:	8e040034 	lw	a0,52(s0)
   2b910:	10800003 	beqz	a0,2b920 <buildMainMenu+0x120>
   2b914:	00409025 	move	s2,v0
   2b918:	0c067e00 	jal	19f800 <free>
   2b91c:	00000000 	nop
   2b920:	0c067dfc 	jal	19f7f0 <malloc>
   2b924:	24040518 	li	a0,1304
   2b928:	00408825 	move	s1,v0
   2b92c:	10400008 	beqz	v0,2b950 <buildMainMenu+0x150>
   2b930:	ae020034 	sw	v0,52(s0)
   2b934:	02402825 	move	a1,s2
   2b938:	0c069681 	jal	1a5a04 <strcpy>
   2b93c:	24440004 	addiu	a0,v0,4
   2b940:	3c090003 	lui	t1,0x3
   2b944:	2526b288 	addiu	a2,t1,-19832
   2b948:	ae200000 	sw	zero,0(s1)
   2b94c:	ae260510 	sw	a2,1296(s1)
   2b950:	3c1f001c 	lui	ra,0x1c
   2b954:	27e43320 	addiu	a0,ra,13088
   2b958:	0c0073bf 	jal	1cefc <langGetString>
   2b95c:	00000000 	nop
   2b960:	8e040038 	lw	a0,56(s0)
   2b964:	10800003 	beqz	a0,2b974 <buildMainMenu+0x174>
   2b968:	00409025 	move	s2,v0
   2b96c:	0c067e00 	jal	19f800 <free>
   2b970:	00000000 	nop
   2b974:	0c067dfc 	jal	19f7f0 <malloc>
   2b978:	24040518 	li	a0,1304
   2b97c:	00408825 	move	s1,v0
   2b980:	10400008 	beqz	v0,2b9a4 <buildMainMenu+0x1a4>
   2b984:	ae020038 	sw	v0,56(s0)
   2b988:	02402825 	move	a1,s2
   2b98c:	0c069681 	jal	1a5a04 <strcpy>
   2b990:	24440004 	addiu	a0,v0,4
   2b994:	3c0a0003 	lui	t2,0x3
   2b998:	254ba524 	addiu	t3,t2,-23260
   2b99c:	ae200000 	sw	zero,0(s1)
   2b9a0:	ae2b0510 	sw	t3,1296(s1)
   2b9a4:	3c0c001c 	lui	t4,0x1c
   2b9a8:	0c0073bf 	jal	1cefc <langGetString>
   2b9ac:	25843330 	addiu	a0,t4,13104
   2b9b0:	8e04003c 	lw	a0,60(s0)
   2b9b4:	10800003 	beqz	a0,2b9c4 <buildMainMenu+0x1c4>
   2b9b8:	00409025 	move	s2,v0
   2b9bc:	0c067e00 	jal	19f800 <free>
   2b9c0:	00000000 	nop
   2b9c4:	0c067dfc 	jal	19f7f0 <malloc>
   2b9c8:	24040518 	li	a0,1304
   2b9cc:	00408825 	move	s1,v0
   2b9d0:	10400008 	beqz	v0,2b9f4 <buildMainMenu+0x1f4>
   2b9d4:	ae02003c 	sw	v0,60(s0)
   2b9d8:	02402825 	move	a1,s2
   2b9dc:	0c069681 	jal	1a5a04 <strcpy>
   2b9e0:	24440004 	addiu	a0,v0,4
   2b9e4:	3c0d0003 	lui	t5,0x3
   2b9e8:	25aea784 	addiu	t6,t5,-22652
   2b9ec:	ae200000 	sw	zero,0(s1)
   2b9f0:	ae2e0510 	sw	t6,1296(s1)
   2b9f4:	3c0f001c 	lui	t7,0x1c
   2b9f8:	0c0073bf 	jal	1cefc <langGetString>
   2b9fc:	25e43340 	addiu	a0,t7,13120
   2ba00:	8e040040 	lw	a0,64(s0)
   2ba04:	10800003 	beqz	a0,2ba14 <buildMainMenu+0x214>
   2ba08:	00409025 	move	s2,v0
   2ba0c:	0c067e00 	jal	19f800 <free>
   2ba10:	00000000 	nop
   2ba14:	0c067dfc 	jal	19f7f0 <malloc>
   2ba18:	24040518 	li	a0,1304
   2ba1c:	00408825 	move	s1,v0
   2ba20:	10400008 	beqz	v0,2ba44 <buildMainMenu+0x244>
   2ba24:	ae020040 	sw	v0,64(s0)
   2ba28:	02402825 	move	a1,s2
   2ba2c:	0c069681 	jal	1a5a04 <strcpy>
   2ba30:	24440004 	addiu	a0,v0,4
   2ba34:	3c180003 	lui	t8,0x3
   2ba38:	2719a9ec 	addiu	t9,t8,-22036
   2ba3c:	ae200000 	sw	zero,0(s1)
   2ba40:	ae390510 	sw	t9,1296(s1)
   2ba44:	3c04001c 	lui	a0,0x1c
   2ba48:	0c0073bf 	jal	1cefc <langGetString>
   2ba4c:	24843350 	addiu	a0,a0,13136
   2ba50:	8e040044 	lw	a0,68(s0)
   2ba54:	10800003 	beqz	a0,2ba64 <buildMainMenu+0x264>
   2ba58:	00409025 	move	s2,v0
   2ba5c:	0c067e00 	jal	19f800 <free>
   2ba60:	00000000 	nop
   2ba64:	0c067dfc 	jal	19f7f0 <malloc>
   2ba68:	24040518 	li	a0,1304
   2ba6c:	00408825 	move	s1,v0
   2ba70:	10400008 	beqz	v0,2ba94 <buildMainMenu+0x294>
   2ba74:	ae020044 	sw	v0,68(s0)
   2ba78:	02402825 	move	a1,s2
   2ba7c:	0c069681 	jal	1a5a04 <strcpy>
   2ba80:	24440004 	addiu	a0,v0,4
   2ba84:	3c030003 	lui	v1,0x3
   2ba88:	2467ac34 	addiu	a3,v1,-21452
   2ba8c:	ae200000 	sw	zero,0(s1)
   2ba90:	ae270510 	sw	a3,1296(s1)
   2ba94:	3c05001c 	lui	a1,0x1c
   2ba98:	0c0073bf 	jal	1cefc <langGetString>
   2ba9c:	24a43360 	addiu	a0,a1,13152
   2baa0:	8e040048 	lw	a0,72(s0)
   2baa4:	10800003 	beqz	a0,2bab4 <buildMainMenu+0x2b4>
   2baa8:	00409025 	move	s2,v0
   2baac:	0c067e00 	jal	19f800 <free>
   2bab0:	00000000 	nop
   2bab4:	0c067dfc 	jal	19f7f0 <malloc>
   2bab8:	24040518 	li	a0,1304
   2babc:	00408825 	move	s1,v0
   2bac0:	10400008 	beqz	v0,2bae4 <buildMainMenu+0x2e4>
   2bac4:	ae020048 	sw	v0,72(s0)
   2bac8:	02402825 	move	a1,s2
   2bacc:	0c069681 	jal	1a5a04 <strcpy>
   2bad0:	24440004 	addiu	a0,v0,4
   2bad4:	3c080003 	lui	t0,0x3
   2bad8:	2502a204 	addiu	v0,t0,-24060
   2badc:	ae200000 	sw	zero,0(s1)
   2bae0:	ae220510 	sw	v0,1296(s1)
   2bae4:	3c09001c 	lui	t1,0x1c
   2bae8:	0c0073bf 	jal	1cefc <langGetString>
   2baec:	25243370 	addiu	a0,t1,13168
   2baf0:	8e04004c 	lw	a0,76(s0)
   2baf4:	10800003 	beqz	a0,2bb04 <buildMainMenu+0x304>
   2baf8:	00409025 	move	s2,v0
   2bafc:	0c067e00 	jal	19f800 <free>
   2bb00:	00000000 	nop
   2bb04:	0c067dfc 	jal	19f7f0 <malloc>
   2bb08:	24040518 	li	a0,1304
   2bb0c:	00408825 	move	s1,v0
   2bb10:	10400008 	beqz	v0,2bb34 <buildMainMenu+0x334>
   2bb14:	ae02004c 	sw	v0,76(s0)
   2bb18:	02402825 	move	a1,s2
   2bb1c:	0c069681 	jal	1a5a04 <strcpy>
   2bb20:	24440004 	addiu	a0,v0,4
   2bb24:	3c060003 	lui	a2,0x3
   2bb28:	24cab650 	addiu	t2,a2,-18864
   2bb2c:	ae200000 	sw	zero,0(s1)
   2bb30:	ae2a0510 	sw	t2,1296(s1)
   2bb34:	3c1f001c 	lui	ra,0x1c
   2bb38:	27e433e0 	addiu	a0,ra,13280
   2bb3c:	0c0073bf 	jal	1cefc <langGetString>
   2bb40:	00000000 	nop
   2bb44:	8e040050 	lw	a0,80(s0)
   2bb48:	10800003 	beqz	a0,2bb58 <buildMainMenu+0x358>
   2bb4c:	00409025 	move	s2,v0
   2bb50:	0c067e00 	jal	19f800 <free>
   2bb54:	00000000 	nop
   2bb58:	0c067dfc 	jal	19f7f0 <malloc>
   2bb5c:	24040518 	li	a0,1304
   2bb60:	00408825 	move	s1,v0
   2bb64:	10400006 	beqz	v0,2bb80 <buildMainMenu+0x380>
   2bb68:	ae020050 	sw	v0,80(s0)
   2bb6c:	02402825 	move	a1,s2
   2bb70:	0c069681 	jal	1a5a04 <strcpy>
   2bb74:	24440004 	addiu	a0,v0,4
   2bb78:	ae200000 	sw	zero,0(s1)
   2bb7c:	ae200510 	sw	zero,1296(s1)
   2bb80:	8fbf000c 	lw	ra,12(sp)
   2bb84:	240b0008 	li	t3,8
   2bb88:	8fb20008 	lw	s2,8(sp)
   2bb8c:	8fb10004 	lw	s1,4(sp)
   2bb90:	ae0b0024 	sw	t3,36(s0)
   2bb94:	00001025 	move	v0,zero
   2bb98:	8fb00000 	lw	s0,0(sp)
   2bb9c:	03e00008 	jr	ra
   2bba0:	27bd0010 	addiu	sp,sp,16
--
   2bcf4:	00592021 	addu	a0,v0,t9
   2bcf8:	14800002 	bnez	a0,2bd04 <buildOrderByMenu+0xf0>
   2bcfc:	0204001a 	div	zero,s0,a0
   2bd00:	0007000d 	break	0x7
   2bd04:	ae420028 	sw	v0,40(s2)
   2bd08:	24020009 	li	v0,9
   2bd0c:	ae20f02c 	sw	zero,-4052(s1)
   2bd10:	ae404e54 	sw	zero,20052(s2)
   2bd14:	ae400004 	sw	zero,4(s2)
   2bd18:	ae420024 	sw	v0,36(s2)
   2bd1c:	02408025 	move	s0,s2
   2bd20:	00008825 	move	s1,zero
   2bd24:	24f43378 	addiu	s4,a3,13176
   2bd28:	26735e7c 	addiu	s3,s3,24188
   2bd2c:	247519e0 	addiu	s5,v1,6624
   2bd30:	00004012 	mflo	t0
   2bd34:	ae480008 	sw	t0,8(s2)
   2bd38:	8e040034 	lw	a0,52(s0)
   2bd3c:	10800003 	beqz	a0,2bd4c <buildOrderByMenu+0x138>
   2bd40:	00000000 	nop
   2bd44:	0c067e00 	jal	19f800 <free>
   2bd48:	00000000 	nop
   2bd4c:	0c067dfc 	jal	19f7f0 <malloc>
   2bd50:	24040518 	li	a0,1304
   2bd54:	26310001 	addiu	s1,s1,1
   2bd58:	02203825 	move	a3,s1
   2bd5c:	02803025 	move	a2,s4
   2bd60:	24050108 	li	a1,264
   2bd64:	02602025 	move	a0,s3
   2bd68:	1040000f 	beqz	v0,2bda8 <buildOrderByMenu+0x194>
   2bd6c:	ae020034 	sw	v0,52(s0)
   2bd70:	ac400000 	sw	zero,0(v0)
   2bd74:	0c068cc0 	jal	1a3300 <snprintf>
   2bd78:	ac400510 	sw	zero,1296(v0)
   2bd7c:	8e120034 	lw	s2,52(s0)
   2bd80:	0c0073bf 	jal	1cefc <langGetString>
   2bd84:	02602025 	move	a0,s3
   2bd88:	00403825 	move	a3,v0
   2bd8c:	02a03025 	move	a2,s5
   2bd90:	24050108 	li	a1,264
   2bd94:	0c068cc0 	jal	1a3300 <snprintf>
--
   2dcec:	54800001 	bnezl	a0,2dcf4 <pthread_key_delete.isra.0+0x70>
   2dcf0:	ac830008 	sw	v1,8(a0)
   2dcf4:	54600001 	bnezl	v1,2dcfc <pthread_key_delete.isra.0+0x78>
   2dcf8:	ac640010 	sw	a0,16(v1)
   2dcfc:	8e020000 	lw	v0,0(s0)
   2dd00:	8c440098 	lw	a0,152(v0)
   2dd04:	10900096 	beq	a0,s0,2df60 <pthread_key_delete.isra.0+0x2dc>
   2dd08:	8c44009c 	lw	a0,156(v0)
   2dd0c:	50900001 	beql	a0,s0,2dd14 <pthread_key_delete.isra.0+0x90>
   2dd10:	ac43009c 	sw	v1,156(v0)
   2dd14:	8e030014 	lw	v1,20(s0)
   2dd18:	10600002 	beqz	v1,2dd24 <pthread_key_delete.isra.0+0xa0>
   2dd1c:	8e02000c 	lw	v0,12(s0)
   2dd20:	ac62000c 	sw	v0,12(v1)
   2dd24:	54400001 	bnezl	v0,2dd2c <pthread_key_delete.isra.0+0xa8>
   2dd28:	ac430014 	sw	v1,20(v0)
   2dd2c:	8e030004 	lw	v1,4(s0)
   2dd30:	8c64000c 	lw	a0,12(v1)
   2dd34:	50900001 	beql	a0,s0,2dd3c <pthread_key_delete.isra.0+0xb8>
   2dd38:	ac62000c 	sw	v0,12(v1)
   2dd3c:	0c067e00 	jal	19f800 <free>
   2dd40:	02002025 	move	a0,s0
   2dd44:	0c00b6d8 	jal	2db60 <pthread_mutex_unlock>
   2dd48:	02402025 	move	a0,s2
   2dd4c:	8e30000c 	lw	s0,12(s1)
   2dd50:	5600ffe0 	bnezl	s0,2dcd4 <pthread_key_delete.isra.0+0x50>
   2dd54:	8e120000 	lw	s2,0(s0)
   2dd58:	0c00b6d8 	jal	2db60 <pthread_mutex_unlock>
   2dd5c:	26240008 	addiu	a0,s1,8
   2dd60:	0c06fb10 	jal	1bec40 <pte_osTlsFree>
   2dd64:	8e240000 	lw	a0,0(s1)
   2dd68:	8e220004 	lw	v0,4(s1)
   2dd6c:	10400015 	beqz	v0,2ddc4 <pthread_key_delete.isra.0+0x140>
   2dd70:	8fbf0024 	lw	ra,36(sp)
   2dd74:	8e300008 	lw	s0,8(s1)
   2dd78:	12000013 	beqz	s0,2ddc8 <pthread_key_delete.isra.0+0x144>
   2dd7c:	8fb30020 	lw	s3,32(sp)
   2dd80:	3c12002e 	lui	s2,0x2e
   2dd84:	2e02fffd 	sltiu	v0,s0,-3
   2dd88:	10400015 	beqz	v0,2dde0 <pthread_key_delete.isra.0+0x15c>
   2dd8c:	00003025 	move	a2,zero
--
   2de9c:	ac830008 	sw	v1,8(a0)
   2dea0:	54600001 	bnezl	v1,2dea8 <pthread_key_delete.isra.0+0x224>
   2dea4:	ac640010 	sw	a0,16(v1)
   2dea8:	8e020000 	lw	v0,0(s0)
   2deac:	8c440098 	lw	a0,152(v0)
   2deb0:	50900001 	beql	a0,s0,2deb8 <pthread_key_delete.isra.0+0x234>
   2deb4:	ac430098 	sw	v1,152(v0)
   2deb8:	8c44009c 	lw	a0,156(v0)
   2debc:	50900001 	beql	a0,s0,2dec4 <pthread_key_delete.isra.0+0x240>
   2dec0:	ac43009c 	sw	v1,156(v0)
   2dec4:	8e030014 	lw	v1,20(s0)
   2dec8:	10600002 	beqz	v1,2ded4 <pthread_key_delete.isra.0+0x250>
   2decc:	8e02000c 	lw	v0,12(s0)
   2ded0:	ac62000c 	sw	v0,12(v1)
   2ded4:	54400001 	bnezl	v0,2dedc <pthread_key_delete.isra.0+0x258>
   2ded8:	ac430014 	sw	v1,20(v0)
   2dedc:	8e030004 	lw	v1,4(s0)
   2dee0:	8c64000c 	lw	a0,12(v1)
   2dee4:	50900001 	beql	a0,s0,2deec <pthread_key_delete.isra.0+0x268>
   2dee8:	ac62000c 	sw	v0,12(v1)
   2deec:	0c067e00 	jal	19f800 <free>
   2def0:	02002025 	move	a0,s0
   2def4:	1000ff74 	b	2dcc8 <pthread_key_delete.isra.0+0x44>
   2def8:	8e30000c 	lw	s0,12(s1)
   2defc:	8c4262cc 	lw	v0,25292(v0)
   2df00:	24030001 	li	v1,1
   2df04:	1040001c 	beqz	v0,2df78 <pthread_key_delete.isra.0+0x2f4>
   2df08:	ae030008 	sw	v1,8(s0)
   2df0c:	0c06faf9 	jal	1bebe4 <pte_osTlsGetValue>
   2df10:	8c440000 	lw	a0,0(v0)
   2df14:	10400018 	beqz	v0,2df78 <pthread_key_delete.isra.0+0x2f4>
   2df18:	00000000 	nop
   2df1c:	8c420004 	lw	v0,4(v0)
   2df20:	ae020010 	sw	v0,16(s0)
   2df24:	8e03000c 	lw	v1,12(s0)
   2df28:	24020001 	li	v0,1
   2df2c:	5462ffa1 	bnel	v1,v0,2ddb4 <pthread_key_delete.isra.0+0x130>
   2df30:	ae200008 	sw	zero,8(s1)
   2df34:	8e020008 	lw	v0,8(s0)
   2df38:	1043ff9d 	beq	v0,v1,2ddb0 <pthread_key_delete.isra.0+0x12c>
   2df3c:	2442ffff 	addiu	v0,v0,-1
   2df40:	1000ffb9 	b	2de28 <pthread_key_delete.isra.0+0x1a4>
   2df44:	ae020008 	sw	v0,8(s0)
   2df48:	0c06fa30 	jal	1be8c0 <pte_osSemaphoreDelete>
   2df4c:	8e040000 	lw	a0,0(s0)
   2df50:	0c067e00 	jal	19f800 <free>
   2df54:	02002025 	move	a0,s0
   2df58:	1000ff9a 	b	2ddc4 <pthread_key_delete.isra.0+0x140>
   2df5c:	8fbf0024 	lw	ra,36(sp)
   2df60:	1490ff6c 	bne	a0,s0,2dd14 <pthread_key_delete.isra.0+0x90>
   2df64:	ac430098 	sw	v1,152(v0)
   2df68:	1000ff6a 	b	2dd14 <pthread_key_delete.isra.0+0x90>
   2df6c:	ac43009c 	sw	v1,156(v0)
   2df70:	1000ffde 	b	2deec <pthread_key_delete.isra.0+0x268>
   2df74:	ac62000c 	sw	v0,12(v1)
   2df78:	0c00b652 	jal	2d948 <pthread_self.part.0>
   2df7c:	00000000 	nop
   2df80:	1000ffe8 	b	2df24 <pthread_key_delete.isra.0+0x2a0>
   2df84:	ae020010 	sw	v0,16(s0)
   2df88:	0c00b652 	jal	2d948 <pthread_self.part.0>
   2df8c:	afa30008 	sw	v1,8(sp)
   2df90:	1000ffb8 	b	2de74 <pthread_key_delete.isra.0+0x1f0>
   2df94:	8fa30008 	lw	v1,8(sp)

0002df98 <pthread_init>:
   2df98:	27bdffe8 	addiu	sp,sp,-24
--
   2e048:	248462c0 	addiu	a0,a0,25280
   2e04c:	3c04002e 	lui	a0,0x2e
   2e050:	0c06f9d5 	jal	1be754 <pte_osMutexCreate>
   2e054:	248462bc 	addiu	a0,a0,25276
   2e058:	3c04002e 	lui	a0,0x2e
   2e05c:	0c06f9d5 	jal	1be754 <pte_osMutexCreate>
   2e060:	248462b8 	addiu	a0,a0,25272
   2e064:	3c04002e 	lui	a0,0x2e
   2e068:	0c06f9d5 	jal	1be754 <pte_osMutexCreate>
   2e06c:	248462b4 	addiu	a0,a0,25268
   2e070:	3c04002e 	lui	a0,0x2e
   2e074:	0c06f9d5 	jal	1be754 <pte_osMutexCreate>
   2e078:	248462b0 	addiu	a0,a0,25264
   2e07c:	8fbf0014 	lw	ra,20(sp)
   2e080:	8e2262d0 	lw	v0,25296(s1)
   2e084:	8fb20010 	lw	s2,16(sp)
   2e088:	8fb1000c 	lw	s1,12(sp)
   2e08c:	8fb00008 	lw	s0,8(sp)
   2e090:	03e00008 	jr	ra
   2e094:	27bd0018 	addiu	sp,sp,24
   2e098:	0c067e00 	jal	19f800 <free>
   2e09c:	00000000 	nop
   2e0a0:	8e2362d0 	lw	v1,25296(s1)
   2e0a4:	3c02002e 	lui	v0,0x2e
   2e0a8:	14600003 	bnez	v1,2e0b8 <pthread_init+0x120>
   2e0ac:	ac4062c8 	sw	zero,25288(v0)
   2e0b0:	1000ffe1 	b	2e038 <pthread_init+0xa0>
   2e0b4:	3c12002e 	lui	s2,0x2e
   2e0b8:	8e5062cc 	lw	s0,25292(s2)
   2e0bc:	5200000e 	beqzl	s0,2e0f8 <pthread_init+0x160>
   2e0c0:	3c02002e 	lui	v0,0x2e
   2e0c4:	02002025 	move	a0,s0
   2e0c8:	0c00b721 	jal	2dc84 <pthread_key_delete.isra.0>
   2e0cc:	afa20000 	sw	v0,0(sp)
   2e0d0:	8fa20000 	lw	v0,0(sp)
   2e0d4:	ae4062cc 	sw	zero,25292(s2)
   2e0d8:	8c4462c8 	lw	a0,25288(v0)
   2e0dc:	50800006 	beqzl	a0,2e0f8 <pthread_init+0x160>
   2e0e0:	3c02002e 	lui	v0,0x2e
   2e0e4:	0c00b721 	jal	2dc84 <pthread_key_delete.isra.0>
   2e0e8:	afa20000 	sw	v0,0(sp)
   2e0ec:	8fa20000 	lw	v0,0(sp)
   2e0f0:	ac4062c8 	sw	zero,25288(v0)
   2e0f4:	3c02002e 	lui	v0,0x2e
   2e0f8:	8c4462c4 	lw	a0,25284(v0)
   2e0fc:	0c06f9f8 	jal	1be7e0 <pte_osMutexLock>
   2e100:	00409025 	move	s2,v0
   2e104:	3c02001f 	lui	v0,0x1f
   2e108:	8c50169c 	lw	s0,5788(v0)
   2e10c:	24020001 	li	v0,1
   2e110:	12020007 	beq	s0,v0,2e130 <pthread_init+0x198>
   2e114:	00000000 	nop
   2e118:	02002025 	move	a0,s0
   2e11c:	0c067e00 	jal	19f800 <free>
   2e120:	8e100008 	lw	s0,8(s0)
   2e124:	24020001 	li	v0,1
   2e128:	5602fffc 	bnel	s0,v0,2e11c <pthread_init+0x184>
   2e12c:	02002025 	move	a0,s0
   2e130:	0c06fa01 	jal	1be804 <pte_osMutexUnlock>
   2e134:	8e4462c4 	lw	a0,25284(s2)
   2e138:	0c06f9bb 	jal	1be6ec <pte_osTerminate>
   2e13c:	ae2062d0 	sw	zero,25296(s1)
   2e140:	1000ffbd 	b	2e038 <pthread_init+0xa0>
   2e144:	00000000 	nop
   2e148:	0c067e00 	jal	19f800 <free>
   2e14c:	02002025 	move	a0,s0
   2e150:	8e2262d0 	lw	v0,25296(s1)
   2e154:	3c03002e 	lui	v1,0x2e
   2e158:	1040ffd5 	beqz	v0,2e0b0 <pthread_init+0x118>
   2e15c:	ac6062cc 	sw	zero,25292(v1)
   2e160:	3c02002e 	lui	v0,0x2e
   2e164:	1000ffdd 	b	2e0dc <pthread_init+0x144>
   2e168:	8c4462c8 	lw	a0,25288(v0)
   2e16c:	8e2362d0 	lw	v1,25296(s1)
   2e170:	3c02002e 	lui	v0,0x2e
   2e174:	1460ffd3 	bnez	v1,2e0c4 <pthread_init+0x12c>
   2e178:	ac4062c8 	sw	zero,25288(v0)
   2e17c:	1000ffae 	b	2e038 <pthread_init+0xa0>
   2e180:	3c12002e 	lui	s2,0x2e

0002e184 <sqlite3_exec>:
   2e184:	27bdffb0 	addiu	sp,sp,-80
   2e188:	afb30034 	sw	s3,52(sp)
   2e18c:	afbf004c 	sw	ra,76(sp)
   2e190:	afbe0048 	sw	s8,72(sp)
--

000978ac <oslSetSysDisplayListSize>:
   978ac:	27bdfff0 	addiu	sp,sp,-16
   978b0:	afb00004 	sw	s0,4(sp)
   978b4:	3c10002e 	lui	s0,0x2e
   978b8:	8e0266c0 	lw	v0,26304(s0)
   978bc:	afb10008 	sw	s1,8(sp)
   978c0:	afbf000c 	sw	ra,12(sp)
   978c4:	10400007 	beqz	v0,978e4 <oslSetSysDisplayListSize+0x38>
   978c8:	00808825 	move	s1,a0
   978cc:	0c055042 	jal	154108 <sceGuFinish>
   978d0:	00000000 	nop
   978d4:	00002825 	move	a1,zero
   978d8:	0c05528f 	jal	154a3c <sceGuSync>
   978dc:	00002025 	move	a0,zero
   978e0:	ae0066c0 	sw	zero,26304(s0)
   978e4:	3c10002e 	lui	s0,0x2e
   978e8:	8e0466dc 	lw	a0,26332(s0)
   978ec:	10800004 	beqz	a0,97900 <oslSetSysDisplayListSize+0x54>
   978f0:	02202825 	move	a1,s1
   978f4:	0c067e00 	jal	19f800 <free>
   978f8:	00000000 	nop
   978fc:	02202825 	move	a1,s1
   97900:	0c06a39c 	jal	1a8e70 <memalign>
   97904:	24040010 	li	a0,16
   97908:	8fbf000c 	lw	ra,12(sp)
   9790c:	8fb10008 	lw	s1,8(sp)
   97910:	ae0266dc 	sw	v0,26332(s0)
   97914:	8fb00004 	lw	s0,4(sp)
   97918:	03e00008 	jr	ra
   9791c:	27bd0010 	addiu	sp,sp,16

00097920 <oslInitGfx>:
   97920:	27bdffd0 	addiu	sp,sp,-48
   97924:	afb40018 	sw	s4,24(sp)
   97928:	3c14002e 	lui	s4,0x2e
   9792c:	afb20010 	sw	s2,16(sp)
   97930:	8e9266dc 	lw	s2,26332(s4)
   97934:	3c02001f 	lui	v0,0x1f
   97938:	afb1000c 	sw	s1,12(sp)
   9793c:	afb00008 	sw	s0,8(sp)
--
   97d40:	8fb30014 	lw	s3,20(sp)
   97d44:	8fb20010 	lw	s2,16(sp)
   97d48:	8fb1000c 	lw	s1,12(sp)
   97d4c:	8fb00008 	lw	s0,8(sp)
   97d50:	03e00008 	jr	ra
   97d54:	27bd0030 	addiu	sp,sp,48
   97d58:	0c026fa6 	jal	9be98 <oslSetupFTrigo>
   97d5c:	3c13002e 	lui	s3,0x2e
   97d60:	8e6266c0 	lw	v0,26304(s3)
   97d64:	10400008 	beqz	v0,97d88 <oslInitGfx+0x468>
   97d68:	8e8466dc 	lw	a0,26332(s4)
   97d6c:	0c055042 	jal	154108 <sceGuFinish>
   97d70:	00000000 	nop
   97d74:	00002825 	move	a1,zero
   97d78:	0c05528f 	jal	154a3c <sceGuSync>
   97d7c:	00002025 	move	a0,zero
   97d80:	ae6066c0 	sw	zero,26304(s3)
   97d84:	8e8466dc 	lw	a0,26332(s4)
   97d88:	10800004 	beqz	a0,97d9c <oslInitGfx+0x47c>
   97d8c:	3c050010 	lui	a1,0x10
   97d90:	0c067e00 	jal	19f800 <free>
   97d94:	00000000 	nop
   97d98:	3c050010 	lui	a1,0x10
   97d9c:	0c06a39c 	jal	1a8e70 <memalign>
   97da0:	24040010 	li	a0,16
   97da4:	0c0550f1 	jal	1543c4 <sceGuInit>
   97da8:	ae8266dc 	sw	v0,26332(s4)
   97dac:	1000fef0 	b	97970 <oslInitGfx+0x50>
   97db0:	8e8566dc 	lw	a1,26332(s4)
   97db4:	8fbf002c 	lw	ra,44(sp)
   97db8:	8fb70024 	lw	s7,36(sp)
   97dbc:	8fb60020 	lw	s6,32(sp)
   97dc0:	8fb5001c 	lw	s5,28(sp)
   97dc4:	8fb40018 	lw	s4,24(sp)
   97dc8:	8fb30014 	lw	s3,20(sp)
   97dcc:	8fb20010 	lw	s2,16(sp)
   97dd0:	8fb1000c 	lw	s1,12(sp)
   97dd4:	8fb00008 	lw	s0,8(sp)
   97dd8:	08028106 	j	a0418 <oslInitConsole>
   97ddc:	27bd0030 	addiu	sp,sp,48

--

00097f5c <oslSetScreenClipping>:
   97f5c:	27bdfff8 	addiu	sp,sp,-8
   97f60:	afbf0004 	sw	ra,4(sp)
   97f64:	0c055194 	jal	154650 <sceGuScissor>
   97f68:	00000000 	nop
   97f6c:	8fbf0004 	lw	ra,4(sp)
   97f70:	24040002 	li	a0,2
   97f74:	08054f3c 	j	153cf0 <sceGuEnable>
   97f78:	27bd0008 	addiu	sp,sp,8

00097f7c <oslEndGfx>:
   97f7c:	27bdfff0 	addiu	sp,sp,-16
   97f80:	afbf000c 	sw	ra,12(sp)
   97f84:	0c05529f 	jal	154a7c <sceGuTerm>
   97f88:	00000000 	nop
   97f8c:	3c02002e 	lui	v0,0x2e
   97f90:	8c4466dc 	lw	a0,26332(v0)
   97f94:	10800006 	beqz	a0,97fb0 <oslEndGfx+0x34>
   97f98:	8fbf000c 	lw	ra,12(sp)
   97f9c:	0c067e00 	jal	19f800 <free>
   97fa0:	afa20000 	sw	v0,0(sp)
   97fa4:	8fa20000 	lw	v0,0(sp)
   97fa8:	ac4066dc 	sw	zero,26332(v0)
   97fac:	8fbf000c 	lw	ra,12(sp)
   97fb0:	03e00008 	jr	ra
   97fb4:	27bd0010 	addiu	sp,sp,16

00097fb8 <oslSetDepthTest>:
   97fb8:	27bdfff8 	addiu	sp,sp,-8
   97fbc:	afb00000 	sw	s0,0(sp)
   97fc0:	afbf0004 	sw	ra,4(sp)
   97fc4:	10800009 	beqz	a0,97fec <oslSetDepthTest+0x34>
   97fc8:	00808025 	move	s0,a0
   97fcc:	0c054f3c 	jal	153cf0 <sceGuEnable>
   97fd0:	24040001 	li	a0,1
   97fd4:	8fbf0004 	lw	ra,4(sp)
   97fd8:	3c02002e 	lui	v0,0x2e
   97fdc:	ac5066b0 	sw	s0,26288(v0)
   97fe0:	8fb00000 	lw	s0,0(sp)
   97fe4:	03e00008 	jr	ra
--
   981f4:	afa9000c 	sw	t1,12(sp)
   981f8:	afa30008 	sw	v1,8(sp)
   981fc:	afa50004 	sw	a1,4(sp)
   98200:	0c027014 	jal	9c050 <oslGetNextPower2>
   98204:	afa60000 	sw	a2,0(sp)
   98208:	8fa9000c 	lw	t1,12(sp)
   9820c:	8fa30008 	lw	v1,8(sp)
   98210:	8fa50004 	lw	a1,4(sp)
   98214:	1000ffa5 	b	980ac <oslCreateImage+0xa0>
   98218:	8fa60000 	lw	a2,0(sp)
   9821c:	00c02025 	move	a0,a2
   98220:	afa90008 	sw	t1,8(sp)
   98224:	afa50004 	sw	a1,4(sp)
   98228:	0c027014 	jal	9c050 <oslGetNextPower2>
   9822c:	afa60000 	sw	a2,0(sp)
   98230:	3043ffff 	andi	v1,v0,0xffff
   98234:	8fa90008 	lw	t1,8(sp)
   98238:	8fa50004 	lw	a1,4(sp)
   9823c:	1000ff97 	b	9809c <oslCreateImage+0x90>
   98240:	8fa60000 	lw	a2,0(sp)
   98244:	0c067e00 	jal	19f800 <free>
   98248:	02002025 	move	a0,s0
   9824c:	1000ffd3 	b	9819c <oslCreateImage+0x190>
   98250:	00008025 	move	s0,zero

00098254 <oslDeleteImage>:
   98254:	90820010 	lbu	v0,16(a0)
   98258:	30420002 	andi	v0,v0,0x2
   9825c:	10400003 	beqz	v0,9826c <oslDeleteImage+0x18>
   98260:	00801825 	move	v1,a0
   98264:	08067e00 	j	19f800 <free>
   98268:	00000000 	nop
   9826c:	27bdfff0 	addiu	sp,sp,-16
   98270:	afbf000c 	sw	ra,12(sp)
   98274:	8c84000c 	lw	a0,12(a0)
   98278:	10800006 	beqz	a0,98294 <oslDeleteImage+0x40>
   9827c:	24050002 	li	a1,2
   98280:	84620018 	lh	v0,24(v1)
   98284:	1045000d 	beq	v0,a1,982bc <oslDeleteImage+0x68>
   98288:	24050001 	li	a1,1
   9828c:	50450010 	beql	v0,a1,982d0 <oslDeleteImage+0x7c>
   98290:	8c650014 	lw	a1,20(v1)
   98294:	8c64001c 	lw	a0,28(v1)
   98298:	10800005 	beqz	a0,982b0 <oslDeleteImage+0x5c>
   9829c:	8fbf000c 	lw	ra,12(sp)
   982a0:	0c027522 	jal	9d488 <oslDeletePalette>
   982a4:	afa30000 	sw	v1,0(sp)
   982a8:	8fa30000 	lw	v1,0(sp)
   982ac:	8fbf000c 	lw	ra,12(sp)
   982b0:	00602025 	move	a0,v1
   982b4:	08067e00 	j	19f800 <free>
   982b8:	27bd0010 	addiu	sp,sp,16
   982bc:	0c067e00 	jal	19f800 <free>
   982c0:	afa30000 	sw	v1,0(sp)
   982c4:	8fa30000 	lw	v1,0(sp)
   982c8:	1000fff2 	b	98294 <oslDeleteImage+0x40>
   982cc:	ac60000c 	sw	zero,12(v1)
   982d0:	0c0287bf 	jal	a1efc <oslVramMgrFreeBlock>
   982d4:	afa30000 	sw	v1,0(sp)
   982d8:	1000ffee 	b	98294 <oslDeleteImage+0x40>
   982dc:	8fa30000 	lw	v1,0(sp)

000982e0 <oslFreeImageData>:
   982e0:	8c83000c 	lw	v1,12(a0)
   982e4:	10600006 	beqz	v1,98300 <oslFreeImageData+0x20>
   982e8:	24050002 	li	a1,2
   982ec:	84820018 	lh	v0,24(a0)
   982f0:	10450007 	beq	v0,a1,98310 <oslFreeImageData+0x30>
   982f4:	24050001 	li	a1,1
   982f8:	50450003 	beql	v0,a1,98308 <oslFreeImageData+0x28>
   982fc:	8c850014 	lw	a1,20(a0)
   98300:	03e00008 	jr	ra
   98304:	00000000 	nop
   98308:	080287bf 	j	a1efc <oslVramMgrFreeBlock>
   9830c:	00602025 	move	a0,v1
   98310:	27bdfff0 	addiu	sp,sp,-16
   98314:	afa40000 	sw	a0,0(sp)
   98318:	afbf000c 	sw	ra,12(sp)
   9831c:	0c067e00 	jal	19f800 <free>
   98320:	00602025 	move	a0,v1
   98324:	8fa20000 	lw	v0,0(sp)
   98328:	ac40000c 	sw	zero,12(v0)
   9832c:	8fbf000c 	lw	ra,12(sp)
   98330:	03e00008 	jr	ra
   98334:	27bd0010 	addiu	sp,sp,16

00098338 <oslAllocImageData>:
   98338:	27bdfff0 	addiu	sp,sp,-16
   9833c:	afbf000c 	sw	ra,12(sp)
   98340:	00803025 	move	a2,a0
   98344:	8c84000c 	lw	a0,12(a0)
   98348:	10800007 	beqz	a0,98368 <oslAllocImageData+0x30>
   9834c:	30a30007 	andi	v1,a1,0x7
   98350:	84c20018 	lh	v0,24(a2)
   98354:	24050002 	li	a1,2
   98358:	10450024 	beq	v0,a1,983ec <oslAllocImageData+0xb4>
   9835c:	24050001 	li	a1,1
   98360:	50450029 	beql	v0,a1,98408 <oslAllocImageData+0xd0>
   98364:	8cc50014 	lw	a1,20(a2)
--
   983a0:	8fbf000c 	lw	ra,12(sp)
   983a4:	03e00008 	jr	ra
   983a8:	27bd0010 	addiu	sp,sp,16
   983ac:	acc2000c 	sw	v0,12(a2)
   983b0:	a4c30018 	sh	v1,24(a2)
   983b4:	8fbf000c 	lw	ra,12(sp)
   983b8:	03e00008 	jr	ra
   983bc:	27bd0010 	addiu	sp,sp,16
   983c0:	8cc40014 	lw	a0,20(a2)
   983c4:	afa30004 	sw	v1,4(sp)
   983c8:	0c02872d 	jal	a1cb4 <oslVramMgrAllocBlock>
   983cc:	afa60000 	sw	a2,0(sp)
   983d0:	8fa60000 	lw	a2,0(sp)
   983d4:	8fa30004 	lw	v1,4(sp)
   983d8:	acc2000c 	sw	v0,12(a2)
   983dc:	a4c30018 	sh	v1,24(a2)
   983e0:	8fbf000c 	lw	ra,12(sp)
   983e4:	03e00008 	jr	ra
   983e8:	27bd0010 	addiu	sp,sp,16
   983ec:	afa60004 	sw	a2,4(sp)
   983f0:	0c067e00 	jal	19f800 <free>
   983f4:	afa30000 	sw	v1,0(sp)
   983f8:	8fa60004 	lw	a2,4(sp)
   983fc:	8fa30000 	lw	v1,0(sp)
   98400:	1000ffd9 	b	98368 <oslAllocImageData+0x30>
   98404:	acc0000c 	sw	zero,12(a2)
   98408:	afa30004 	sw	v1,4(sp)
   9840c:	0c0287bf 	jal	a1efc <oslVramMgrFreeBlock>
   98410:	afa60000 	sw	a2,0(sp)
   98414:	8fa30004 	lw	v1,4(sp)
   98418:	1000ffd3 	b	98368 <oslAllocImageData+0x30>
   9841c:	8fa60000 	lw	a2,0(sp)

00098420 <oslUncacheImage>:
   98420:	1080000f 	beqz	a0,98460 <oslUncacheImage+0x40>
   98424:	00801025 	move	v0,a0
   98428:	27bdfff0 	addiu	sp,sp,-16
   9842c:	afbf000c 	sw	ra,12(sp)
   98430:	8c850014 	lw	a1,20(a0)
   98434:	8c84000c 	lw	a0,12(a0)
   98438:	0c06fd1a 	jal	1bf468 <sceKernelDcacheWritebackInvalidateRange>
--
   99af8:	8fa30048 	lw	v1,72(sp)
   99afc:	00608025 	move	s0,v1
   99b00:	0043a021 	addu	s4,v0,v1
   99b04:	8fc60000 	lw	a2,0(s8)
   99b08:	8624001a 	lh	a0,26(s1)
   99b0c:	24050003 	li	a1,3
   99b10:	0c025c84 	jal	97210 <oslConvertColor>
   99b14:	27de0004 	addiu	s8,s8,4
   99b18:	00403825 	move	a3,v0
   99b1c:	02002825 	move	a1,s0
   99b20:	02a03025 	move	a2,s5
   99b24:	02202025 	move	a0,s1
   99b28:	0c02675d 	jal	99d74 <oslSetImagePixel>
   99b2c:	26100001 	addiu	s0,s0,1
   99b30:	5614fff5 	bnel	s0,s4,99b08 <oslScaleImage+0x6b4>
   99b34:	8fc60000 	lw	a2,0(s8)
   99b38:	8fa20030 	lw	v0,48(sp)
   99b3c:	26f70001 	addiu	s7,s7,1
   99b40:	5457ff80 	bnel	v0,s7,99944 <oslScaleImage+0x4f0>
   99b44:	96d40002 	lhu	s4,2(s6)
   99b48:	0c067e00 	jal	19f800 <free>
   99b4c:	8fa40010 	lw	a0,16(sp)
   99b50:	0c067e00 	jal	19f800 <free>
   99b54:	8fa40020 	lw	a0,32(sp)
   99b58:	0c067e00 	jal	19f800 <free>
   99b5c:	8fa4001c 	lw	a0,28(sp)
   99b60:	0c067e00 	jal	19f800 <free>
   99b64:	8fa40018 	lw	a0,24(sp)
   99b68:	0c067e00 	jal	19f800 <free>
   99b6c:	8fa40014 	lw	a0,20(sp)
   99b70:	8fa40028 	lw	a0,40(sp)
   99b74:	8fbf0074 	lw	ra,116(sp)
   99b78:	8fbe0070 	lw	s8,112(sp)
   99b7c:	8fb7006c 	lw	s7,108(sp)
   99b80:	8fb60068 	lw	s6,104(sp)
   99b84:	8fb50064 	lw	s5,100(sp)
   99b88:	8fb40060 	lw	s4,96(sp)
   99b8c:	8fb3005c 	lw	s3,92(sp)
   99b90:	8fb20058 	lw	s2,88(sp)
   99b94:	8fb10054 	lw	s1,84(sp)
   99b98:	8fb00050 	lw	s0,80(sp)
   99b9c:	c7bf00a4 	lwc1	$f31,164(sp)
   99ba0:	c7be00a0 	lwc1	$f30,160(sp)
   99ba4:	c7bd009c 	lwc1	$f29,156(sp)
   99ba8:	c7bc0098 	lwc1	$f28,152(sp)
   99bac:	c7bb0094 	lwc1	$f27,148(sp)
   99bb0:	c7ba0090 	lwc1	$f26,144(sp)
   99bb4:	c7b9008c 	lwc1	$f25,140(sp)
   99bb8:	c7b80088 	lwc1	$f24,136(sp)
--
   9a3f4:	8cc50054 	lw	a1,84(a2)
   9a3f8:	ac45ffe4 	sw	a1,-28(v0)
   9a3fc:	8cc50058 	lw	a1,88(a2)
   9a400:	ac45ffe8 	sw	a1,-24(v0)
   9a404:	8cc5005c 	lw	a1,92(a2)
   9a408:	ac45ffec 	sw	a1,-20(v0)
   9a40c:	ac5efff0 	sw	s8,-16(v0)
   9a410:	ac53fff4 	sw	s3,-12(v0)
   9a414:	ac4ffff8 	sw	t7,-8(v0)
   9a418:	1478ffb7 	bne	v1,t8,9a2f8 <oslSwizzleImage+0x140>
   9a41c:	ac4cfffc 	sw	t4,-4(v0)
   9a420:	8faf0000 	lw	t7,0(sp)
   9a424:	8fa50004 	lw	a1,4(sp)
   9a428:	8fa20008 	lw	v0,8(sp)
   9a42c:	25ce0001 	addiu	t6,t6,1
   9a430:	00b12821 	addu	a1,a1,s1
   9a434:	01af6821 	addu	t5,t5,t7
   9a438:	144effa4 	bne	v0,t6,9a2cc <oslSwizzleImage+0x114>
   9a43c:	030fc021 	addu	t8,t8,t7
   9a440:	8fa4000c 	lw	a0,12(sp)
   9a444:	0c067e00 	jal	19f800 <free>
   9a448:	00000000 	nop
   9a44c:	8ee50014 	lw	a1,20(s7)
   9a450:	0c06fd1a 	jal	1bf468 <sceKernelDcacheWritebackInvalidateRange>
   9a454:	8ee4000c 	lw	a0,12(s7)
   9a458:	92e20010 	lbu	v0,16(s7)
   9a45c:	34420001 	ori	v0,v0,0x1
   9a460:	a2e20010 	sb	v0,16(s7)
   9a464:	8fbf0034 	lw	ra,52(sp)
   9a468:	8fbe0030 	lw	s8,48(sp)
   9a46c:	8fb7002c 	lw	s7,44(sp)
   9a470:	8fb60028 	lw	s6,40(sp)
   9a474:	8fb50024 	lw	s5,36(sp)
   9a478:	8fb40020 	lw	s4,32(sp)
   9a47c:	8fb3001c 	lw	s3,28(sp)
   9a480:	8fb20018 	lw	s2,24(sp)
   9a484:	8fb10014 	lw	s1,20(sp)
   9a488:	8fb00010 	lw	s0,16(sp)
   9a48c:	03e00008 	jr	ra
   9a490:	27bd0038 	addiu	sp,sp,56
   9a494:	8fbf0034 	lw	ra,52(sp)
--
   9b4bc:	ae030018 	sw	v1,24(s0)
   9b4c0:	ae020030 	sw	v0,48(s0)
   9b4c4:	24050001 	li	a1,1
   9b4c8:	0c0679c3 	jal	19e70c <calloc>
   9b4cc:	00042080 	sll	a0,a0,0x2
   9b4d0:	1040000e 	beqz	v0,9b50c <oslInitOskEx+0xe0>
   9b4d4:	00000000 	nop
   9b4d8:	ae020034 	sw	v0,52(s0)
   9b4dc:	8fbf000c 	lw	ra,12(sp)
   9b4e0:	8fb20008 	lw	s2,8(sp)
   9b4e4:	8fb10004 	lw	s1,4(sp)
   9b4e8:	02001025 	move	v0,s0
   9b4ec:	8fb00000 	lw	s0,0(sp)
   9b4f0:	03e00008 	jr	ra
   9b4f4:	27bd0010 	addiu	sp,sp,16
   9b4f8:	00802825 	move	a1,a0
   9b4fc:	0c06fc86 	jal	1bf218 <sceUtilityGetSystemParamInt>
   9b500:	24040008 	li	a0,8
   9b504:	1000ffde 	b	9b480 <oslInitOskEx+0x54>
   9b508:	26050008 	addiu	a1,s0,8
   9b50c:	0c067e00 	jal	19f800 <free>
   9b510:	02002025 	move	a0,s0
   9b514:	1000fff1 	b	9b4dc <oslInitOskEx+0xb0>
   9b518:	00008025 	move	s0,zero

0009b51c <oslInitOskDataEx>:
   9b51c:	10800007 	beqz	a0,9b53c <oslInitOskDataEx+0x20>
   9b520:	00000000 	nop
   9b524:	04a00005 	bltz	a1,9b53c <oslInitOskDataEx+0x20>
   9b528:	00000000 	nop
   9b52c:	8c820030 	lw	v0,48(a0)
   9b530:	00a2102a 	slt	v0,a1,v0
   9b534:	14400003 	bnez	v0,9b544 <oslInitOskDataEx+0x28>
   9b538:	00000000 	nop
   9b53c:	03e00008 	jr	ra
   9b540:	00001025 	move	v0,zero
   9b544:	27bdffe0 	addiu	sp,sp,-32
   9b548:	afa40000 	sw	a0,0(sp)
   9b54c:	25040001 	addiu	a0,t0,1
   9b550:	00042040 	sll	a0,a0,0x1
   9b554:	afb20018 	sw	s2,24(sp)
--
   9b79c:	8c436724 	lw	v1,26404(v0)
   9b7a0:	10830003 	beq	a0,v1,9b7b0 <oslEndOskEx+0x20>
   9b7a4:	00000000 	nop
   9b7a8:	03e00008 	jr	ra
   9b7ac:	00000000 	nop
   9b7b0:	27bdfff0 	addiu	sp,sp,-16
   9b7b4:	afb00000 	sw	s0,0(sp)
   9b7b8:	afbf000c 	sw	ra,12(sp)
   9b7bc:	afb20008 	sw	s2,8(sp)
   9b7c0:	afb10004 	sw	s1,4(sp)
   9b7c4:	8c830030 	lw	v1,48(a0)
   9b7c8:	00808025 	move	s0,a0
   9b7cc:	1860000d 	blez	v1,9b804 <oslEndOskEx+0x74>
   9b7d0:	ac406724 	sw	zero,26404(v0)
   9b7d4:	00009025 	move	s2,zero
   9b7d8:	00008825 	move	s1,zero
   9b7dc:	8e020034 	lw	v0,52(s0)
   9b7e0:	26310001 	addiu	s1,s1,1
   9b7e4:	00521021 	addu	v0,v0,s2
   9b7e8:	8c440028 	lw	a0,40(v0)
   9b7ec:	0c067e00 	jal	19f800 <free>
   9b7f0:	26520034 	addiu	s2,s2,52
   9b7f4:	8e020030 	lw	v0,48(s0)
   9b7f8:	0222102a 	slt	v0,s1,v0
   9b7fc:	5440fff8 	bnezl	v0,9b7e0 <oslEndOskEx+0x50>
   9b800:	8e020034 	lw	v0,52(s0)
   9b804:	0c067e00 	jal	19f800 <free>
   9b808:	8e040034 	lw	a0,52(s0)
   9b80c:	8fbf000c 	lw	ra,12(sp)
   9b810:	8fb20008 	lw	s2,8(sp)
   9b814:	8fb10004 	lw	s1,4(sp)
   9b818:	02002025 	move	a0,s0
   9b81c:	8fb00000 	lw	s0,0(sp)
   9b820:	08067e00 	j	19f800 <free>
   9b824:	27bd0010 	addiu	sp,sp,16

0009b828 <oslDrawOsk>:
   9b828:	27bdfff8 	addiu	sp,sp,-8
   9b82c:	afbf0004 	sw	ra,4(sp)
   9b830:	0c06fc84 	jal	1bf210 <sceUtilityOskGetStatus>
   9b834:	00000000 	nop
   9b838:	24030002 	li	v1,2
   9b83c:	10430007 	beq	v0,v1,9b85c <oslDrawOsk+0x34>
   9b840:	24030003 	li	v1,3
   9b844:	10430003 	beq	v0,v1,9b854 <oslDrawOsk+0x2c>
   9b848:	8fbf0004 	lw	ra,4(sp)
   9b84c:	03e00008 	jr	ra
--
   9b99c:	24c60001 	addiu	a2,a2,1
   9b9a0:	8c420034 	lw	v0,52(v0)
   9b9a4:	8c470028 	lw	a3,40(v0)
   9b9a8:	00e51021 	addu	v0,a3,a1
   9b9ac:	94420000 	lhu	v0,0(v0)
   9b9b0:	1440fff3 	bnez	v0,9b980 <oslOskGetTextUCS2+0x30>
   9b9b4:	24a50002 	addiu	a1,a1,2
   9b9b8:	00063040 	sll	a2,a2,0x1
   9b9bc:	00862021 	addu	a0,a0,a2
   9b9c0:	03e00008 	jr	ra
   9b9c4:	a4800000 	sh	zero,0(a0)

0009b9c8 <oslEndOsk>:
   9b9c8:	27bdfff0 	addiu	sp,sp,-16
   9b9cc:	afb10004 	sw	s1,4(sp)
   9b9d0:	3c11002e 	lui	s1,0x2e
   9b9d4:	8e24672c 	lw	a0,26412(s1)
   9b9d8:	afb00000 	sw	s0,0(sp)
   9b9dc:	3c10002e 	lui	s0,0x2e
   9b9e0:	afbf000c 	sw	ra,12(sp)
   9b9e4:	0c067e00 	jal	19f800 <free>
   9b9e8:	afb20008 	sw	s2,8(sp)
   9b9ec:	0c067e00 	jal	19f800 <free>
   9b9f0:	8e046728 	lw	a0,26408(s0)
   9b9f4:	3c02002e 	lui	v0,0x2e
   9b9f8:	8c526724 	lw	s2,26404(v0)
   9b9fc:	ae20672c 	sw	zero,26412(s1)
   9ba00:	12400019 	beqz	s2,9ba68 <oslEndOsk+0xa0>
   9ba04:	ae006728 	sw	zero,26408(s0)
   9ba08:	8e430030 	lw	v1,48(s2)
   9ba0c:	1860000d 	blez	v1,9ba44 <oslEndOsk+0x7c>
   9ba10:	ac406724 	sw	zero,26404(v0)
   9ba14:	00008825 	move	s1,zero
   9ba18:	00008025 	move	s0,zero
   9ba1c:	8e420034 	lw	v0,52(s2)
   9ba20:	26100001 	addiu	s0,s0,1
   9ba24:	00511021 	addu	v0,v0,s1
   9ba28:	8c440028 	lw	a0,40(v0)
   9ba2c:	0c067e00 	jal	19f800 <free>
   9ba30:	26310034 	addiu	s1,s1,52
   9ba34:	8e420030 	lw	v0,48(s2)
   9ba38:	0202102a 	slt	v0,s0,v0
   9ba3c:	5440fff8 	bnezl	v0,9ba20 <oslEndOsk+0x58>
   9ba40:	8e420034 	lw	v0,52(s2)
   9ba44:	0c067e00 	jal	19f800 <free>
   9ba48:	8e440034 	lw	a0,52(s2)
   9ba4c:	8fbf000c 	lw	ra,12(sp)
   9ba50:	8fb10004 	lw	s1,4(sp)
   9ba54:	8fb00000 	lw	s0,0(sp)
   9ba58:	02402025 	move	a0,s2
   9ba5c:	8fb20008 	lw	s2,8(sp)
   9ba60:	08067e00 	j	19f800 <free>
   9ba64:	27bd0010 	addiu	sp,sp,16
   9ba68:	8fbf000c 	lw	ra,12(sp)
   9ba6c:	8fb20008 	lw	s2,8(sp)
   9ba70:	8fb10004 	lw	s1,4(sp)
   9ba74:	8fb00000 	lw	s0,0(sp)
   9ba78:	03e00008 	jr	ra
   9ba7c:	27bd0010 	addiu	sp,sp,16

0009ba80 <oslInitOsk>:
   9ba80:	27bdffd0 	addiu	sp,sp,-48
   9ba84:	afb20014 	sw	s2,20(sp)
   9ba88:	3c12002e 	lui	s2,0x2e
   9ba8c:	8e42672c 	lw	v0,26412(s2)
--
   9bb84:	80840000 	lb	a0,0(a0)
   9bb88:	26100001 	addiu	s0,s0,1
   9bb8c:	00431021 	addu	v0,v0,v1
   9bb90:	a4440000 	sh	a0,0(v0)
   9bb94:	0c06789a 	jal	19e268 <strlen>
   9bb98:	02202025 	move	a0,s1
   9bb9c:	0050102b 	sltu	v0,v0,s0
   9bba0:	02302021 	addu	a0,s1,s0
   9bba4:	1040fff6 	beqz	v0,9bb80 <oslInitOsk+0x100>
   9bba8:	00101840 	sll	v1,s0,0x1
   9bbac:	02a02825 	move	a1,s5
   9bbb0:	0c026d0b 	jal	9b42c <oslInitOskEx>
   9bbb4:	24040001 	li	a0,1
   9bbb8:	00408025 	move	s0,v0
   9bbbc:	10400004 	beqz	v0,9bbd0 <oslInitOsk+0x150>
   9bbc0:	8e54672c 	lw	s4,26412(s2)
   9bbc4:	8c420030 	lw	v0,48(v0)
   9bbc8:	5c400027 	bgtzl	v0,9bc68 <oslInitOsk+0x1e8>
   9bbcc:	26c40001 	addiu	a0,s6,1
   9bbd0:	3c11002e 	lui	s1,0x2e
   9bbd4:	0c067e00 	jal	19f800 <free>
   9bbd8:	02802025 	move	a0,s4
   9bbdc:	0c067e00 	jal	19f800 <free>
   9bbe0:	8e646728 	lw	a0,26408(s3)
   9bbe4:	8e346724 	lw	s4,26404(s1)
   9bbe8:	ae40672c 	sw	zero,26412(s2)
   9bbec:	1280ffb1 	beqz	s4,9bab4 <oslInitOsk+0x34>
   9bbf0:	ae606728 	sw	zero,26408(s3)
   9bbf4:	8e820030 	lw	v0,48(s4)
   9bbf8:	ae206724 	sw	zero,26404(s1)
   9bbfc:	00008025 	move	s0,zero
   9bc00:	1840000b 	blez	v0,9bc30 <oslInitOsk+0x1b0>
   9bc04:	00008825 	move	s1,zero
   9bc08:	8e820034 	lw	v0,52(s4)
   9bc0c:	26100001 	addiu	s0,s0,1
   9bc10:	00511021 	addu	v0,v0,s1
   9bc14:	8c440028 	lw	a0,40(v0)
   9bc18:	0c067e00 	jal	19f800 <free>
   9bc1c:	26310034 	addiu	s1,s1,52
   9bc20:	8e820030 	lw	v0,48(s4)
   9bc24:	0202102a 	slt	v0,s0,v0
   9bc28:	5440fff8 	bnezl	v0,9bc0c <oslInitOsk+0x18c>
   9bc2c:	8e820034 	lw	v0,52(s4)
   9bc30:	0c067e00 	jal	19f800 <free>
   9bc34:	8e840034 	lw	a0,52(s4)
   9bc38:	8fbf002c 	lw	ra,44(sp)
   9bc3c:	8fb70028 	lw	s7,40(sp)
   9bc40:	8fb60024 	lw	s6,36(sp)
   9bc44:	8fb50020 	lw	s5,32(sp)
   9bc48:	8fb30018 	lw	s3,24(sp)
   9bc4c:	8fb20014 	lw	s2,20(sp)
   9bc50:	8fb10010 	lw	s1,16(sp)
   9bc54:	8fb0000c 	lw	s0,12(sp)
   9bc58:	02802025 	move	a0,s4
   9bc5c:	8fb4001c 	lw	s4,28(sp)
   9bc60:	08067e00 	j	19f800 <free>
   9bc64:	27bd0030 	addiu	sp,sp,48
   9bc68:	00042040 	sll	a0,a0,0x1
   9bc6c:	0c067dfc 	jal	19f7f0 <malloc>
   9bc70:	8e756728 	lw	s5,26408(s3)
   9bc74:	1040ffd6 	beqz	v0,9bbd0 <oslInitOsk+0x150>
   9bc78:	00002825 	move	a1,zero
   9bc7c:	8e040034 	lw	a0,52(s0)
   9bc80:	24060034 	li	a2,52
--
   9d348:	afb10010 	sw	s1,16(sp)
   9d34c:	00808825 	move	s1,a0
   9d350:	2404000c 	li	a0,12
   9d354:	afbf0014 	sw	ra,20(sp)
   9d358:	afb0000c 	sw	s0,12(sp)
   9d35c:	afa50004 	sw	a1,4(sp)
   9d360:	0c067dfc 	jal	19f7f0 <malloc>
   9d364:	afa60000 	sw	a2,0(sp)
   9d368:	1040000d 	beqz	v0,9d3a0 <oslCreatePaletteEx+0x5c>
   9d36c:	8fa60000 	lw	a2,0(sp)
   9d370:	8fa50004 	lw	a1,4(sp)
   9d374:	00408025 	move	s0,v0
   9d378:	24020002 	li	v0,2
   9d37c:	a6060000 	sh	a2,0(s0)
   9d380:	a6110002 	sh	s1,2(s0)
   9d384:	10a20008 	beq	a1,v0,9d3a8 <oslCreatePaletteEx+0x64>
   9d388:	a6050004 	sh	a1,4(s0)
   9d38c:	24020001 	li	v0,1
   9d390:	10a2001d 	beq	a1,v0,9d408 <oslCreatePaletteEx+0xc4>
   9d394:	3c02001d 	lui	v0,0x1d
   9d398:	0c067e00 	jal	19f800 <free>
   9d39c:	02002025 	move	a0,s0
   9d3a0:	10000013 	b	9d3f0 <oslCreatePaletteEx+0xac>
   9d3a4:	00008025 	move	s0,zero
   9d3a8:	3c02001d 	lui	v0,0x1d
   9d3ac:	24422ec8 	addiu	v0,v0,11976
   9d3b0:	00063080 	sll	a2,a2,0x2
   9d3b4:	00c23021 	addu	a2,a2,v0
   9d3b8:	8cc20000 	lw	v0,0(a2)
   9d3bc:	24040010 	li	a0,16
   9d3c0:	02220018 	mult	s1,v0
   9d3c4:	00003012 	mflo	a2
   9d3c8:	000630c3 	sra	a2,a2,0x3
   9d3cc:	00c02825 	move	a1,a2
   9d3d0:	0c06a39c 	jal	1a8e70 <memalign>
   9d3d4:	afa60000 	sw	a2,0(sp)
   9d3d8:	8fa60000 	lw	a2,0(sp)
   9d3dc:	00402025 	move	a0,v0
   9d3e0:	1080ffed 	beqz	a0,9d398 <oslCreatePaletteEx+0x54>
   9d3e4:	ae040008 	sw	a0,8(s0)
   9d3e8:	0c067a05 	jal	19e814 <memset>
--
   9d484:	27bd0010 	addiu	sp,sp,16

0009d488 <oslDeletePalette>:
   9d488:	1080000d 	beqz	a0,9d4c0 <oslDeletePalette+0x38>
   9d48c:	00000000 	nop
   9d490:	27bdfff0 	addiu	sp,sp,-16
   9d494:	afbf000c 	sw	ra,12(sp)
   9d498:	84820004 	lh	v0,4(a0)
   9d49c:	00801825 	move	v1,a0
   9d4a0:	24040002 	li	a0,2
   9d4a4:	10440008 	beq	v0,a0,9d4c8 <oslDeletePalette+0x40>
   9d4a8:	24040001 	li	a0,1
   9d4ac:	1044000e 	beq	v0,a0,9d4e8 <oslDeletePalette+0x60>
   9d4b0:	8fbf000c 	lw	ra,12(sp)
   9d4b4:	00602025 	move	a0,v1
   9d4b8:	08067e00 	j	19f800 <free>
   9d4bc:	27bd0010 	addiu	sp,sp,16
   9d4c0:	03e00008 	jr	ra
   9d4c4:	00000000 	nop
   9d4c8:	8c640008 	lw	a0,8(v1)
   9d4cc:	0c067e00 	jal	19f800 <free>
   9d4d0:	afa30000 	sw	v1,0(sp)
   9d4d4:	8fa30000 	lw	v1,0(sp)
   9d4d8:	8fbf000c 	lw	ra,12(sp)
   9d4dc:	27bd0010 	addiu	sp,sp,16
   9d4e0:	08067e00 	j	19f800 <free>
   9d4e4:	00602025 	move	a0,v1
   9d4e8:	84620000 	lh	v0,0(v1)
   9d4ec:	3c04001d 	lui	a0,0x1d
   9d4f0:	24842ec8 	addiu	a0,a0,11976
   9d4f4:	00021080 	sll	v0,v0,0x2
   9d4f8:	00441021 	addu	v0,v0,a0
   9d4fc:	84650002 	lh	a1,2(v1)
   9d500:	8c420000 	lw	v0,0(v0)
   9d504:	8c640008 	lw	a0,8(v1)
   9d508:	afa30000 	sw	v1,0(sp)
   9d50c:	00a20018 	mult	a1,v0
   9d510:	0c0287bf 	jal	a1efc <oslVramMgrFreeBlock>
   9d514:	00002812 	mflo	a1
   9d518:	8fa30000 	lw	v1,0(sp)
   9d51c:	8fbf000c 	lw	ra,12(sp)
--
   9efdc:	ac430000 	sw	v1,0(v0)
   9efe0:	8e82001c 	lw	v0,28(s4)
   9efe4:	96a5001e 	lhu	a1,30(s5)
   9efe8:	84430002 	lh	v1,2(v0)
   9efec:	0065182d 	min	v1,v1,a1
   9eff0:	0083182a 	slt	v1,a0,v1
   9eff4:	5460fff3 	bnezl	v1,9efc4 <oslLoadFont+0x380>
   9eff8:	8ea30020 	lw	v1,32(s5)
   9effc:	1000ff7f 	b	9edfc <oslLoadFont+0x1b8>
   9f000:	8c440008 	lw	a0,8(v0)
   9f004:	8eb3000c 	lw	s3,12(s5)
   9f008:	24060100 	li	a2,256
   9f00c:	02202025 	move	a0,s1
   9f010:	0c067a05 	jal	19e814 <memset>
   9f014:	326500ff 	andi	a1,s3,0xff
   9f018:	ae12000c 	sw	s2,12(s0)
   9f01c:	1000ff3b 	b	9ed0c <oslLoadFont+0xc8>
   9f020:	ae130010 	sw	s3,16(s0)
   9f024:	0c026095 	jal	98254 <oslDeleteImage>
   9f028:	02802025 	move	a0,s4
   9f02c:	0c067e00 	jal	19f800 <free>
   9f030:	02c02025 	move	a0,s6
   9f034:	0c067e00 	jal	19f800 <free>
   9f038:	02202025 	move	a0,s1
   9f03c:	0c067e00 	jal	19f800 <free>
   9f040:	02002025 	move	a0,s0
   9f044:	00008025 	move	s0,zero
   9f048:	8fbf0034 	lw	ra,52(sp)
   9f04c:	8fbe0030 	lw	s8,48(sp)
   9f050:	8fb7002c 	lw	s7,44(sp)
   9f054:	8fb60028 	lw	s6,40(sp)
   9f058:	8fb50024 	lw	s5,36(sp)
   9f05c:	8fb40020 	lw	s4,32(sp)
   9f060:	8fb3001c 	lw	s3,28(sp)
   9f064:	8fb20018 	lw	s2,24(sp)
   9f068:	8fb10014 	lw	s1,20(sp)
   9f06c:	02001025 	move	v0,s0
   9f070:	8fb00010 	lw	s0,16(sp)
   9f074:	03e00008 	jr	ra
   9f078:	27bd0038 	addiu	sp,sp,56
   9f07c:	0c067e00 	jal	19f800 <free>
   9f080:	02002025 	move	a0,s0
   9f084:	1000fff0 	b	9f048 <oslLoadFont+0x404>
   9f088:	00008025 	move	s0,zero

0009f08c <updateIntraFontCharWidth>:
   9f08c:	10800037 	beqz	a0,9f16c <updateIntraFontCharWidth+0xe0>
   9f090:	00000000 	nop
   9f094:	10a00035 	beqz	a1,9f16c <updateIntraFontCharWidth+0xe0>
   9f098:	00000000 	nop
   9f09c:	27bdffd8 	addiu	sp,sp,-40
   9f0a0:	afb40018 	sw	s4,24(sp)
   9f0a4:	afb1000c 	sw	s1,12(sp)
   9f0a8:	afbf001c 	sw	ra,28(sp)
   9f0ac:	afb30014 	sw	s3,20(sp)
   9f0b0:	afb20010 	sw	s2,16(sp)
   9f0b4:	afb00008 	sw	s0,8(sp)
   9f0b8:	e7b40024 	swc1	$f20,36(sp)
   9f0bc:	94a3005a 	lhu	v1,90(a1)
   9f0c0:	8c820004 	lw	v0,4(a0)
   9f0c4:	00a08825 	move	s1,a1
--
   9f27c:	44030000 	mfc1	v1,$f0
   9f280:	00000000 	nop
   9f284:	00741825 	or	v1,v1,s4
   9f288:	1613fff1 	bne	s0,s3,9f250 <oslLoadIntraFontFile+0xc4>
   9f28c:	a0430000 	sb	v1,0(v0)
   9f290:	9622005a 	lhu	v0,90(s1)
   9f294:	aea20014 	sw	v0,20(s5)
   9f298:	8fbf0024 	lw	ra,36(sp)
   9f29c:	8fb4001c 	lw	s4,28(sp)
   9f2a0:	8fb30018 	lw	s3,24(sp)
   9f2a4:	8fb20014 	lw	s2,20(sp)
   9f2a8:	8fb10010 	lw	s1,16(sp)
   9f2ac:	8fb0000c 	lw	s0,12(sp)
   9f2b0:	c7b4002c 	lwc1	$f20,44(sp)
   9f2b4:	02a01025 	move	v0,s5
   9f2b8:	8fb50020 	lw	s5,32(sp)
   9f2bc:	03e00008 	jr	ra
   9f2c0:	27bd0030 	addiu	sp,sp,48
   9f2c4:	0c0294c5 	jal	a5314 <intraFontUnload>
   9f2c8:	02202025 	move	a0,s1
   9f2cc:	0c067e00 	jal	19f800 <free>
   9f2d0:	02a02025 	move	a0,s5
   9f2d4:	1000fff0 	b	9f298 <oslLoadIntraFontFile+0x10c>
   9f2d8:	0000a825 	move	s5,zero
   9f2dc:	0c067e00 	jal	19f800 <free>
   9f2e0:	02a02025 	move	a0,s5
   9f2e4:	0c02bb7e 	jal	aedf8 <oslHandleLoadNoFailError>
   9f2e8:	02002025 	move	a0,s0
   9f2ec:	1000ffea 	b	9f298 <oslLoadIntraFontFile+0x10c>
   9f2f0:	0000a825 	move	s5,zero

0009f2f4 <oslLoadAltIntraFontFile>:
   9f2f4:	10800005 	beqz	a0,9f30c <oslLoadAltIntraFontFile+0x18>
   9f2f8:	00000000 	nop
   9f2fc:	8c830020 	lw	v1,32(a0)
   9f300:	24020002 	li	v0,2
   9f304:	10620003 	beq	v1,v0,9f314 <oslLoadAltIntraFontFile+0x20>
   9f308:	00000000 	nop
   9f30c:	03e00008 	jr	ra
   9f310:	00000000 	nop
   9f314:	27bdfff0 	addiu	sp,sp,-16
   9f318:	afb00008 	sw	s0,8(sp)
   9f31c:	afbf000c 	sw	ra,12(sp)
   9f320:	8c820024 	lw	v0,36(a0)
   9f324:	afa40000 	sw	a0,0(sp)
--
   9f57c:	1040001d 	beqz	v0,9f5f4 <oslLoadFontFile+0x240>
   9f580:	8fa50168 	lw	a1,360(sp)
   9f584:	96420004 	lhu	v0,4(s2)
   9f588:	02403825 	move	a3,s2
   9f58c:	24060001 	li	a2,1
   9f590:	00021080 	sll	v0,v0,0x2
   9f594:	02021021 	addu	v0,s0,v0
   9f598:	8c420000 	lw	v0,0(v0)
   9f59c:	8c420008 	lw	v0,8(v0)
   9f5a0:	0040f809 	jalr	v0
   9f5a4:	02602025 	move	a0,s3
   9f5a8:	18400010 	blez	v0,9f5ec <oslLoadFontFile+0x238>
   9f5ac:	97a2011e 	lhu	v0,286(sp)
   9f5b0:	afb30140 	sw	s3,320(sp)
   9f5b4:	1440001d 	bnez	v0,9f62c <oslLoadFontFile+0x278>
   9f5b8:	a7a2015e 	sh	v0,350(sp)
   9f5bc:	27a40140 	addiu	a0,sp,320
   9f5c0:	0c027b11 	jal	9ec44 <oslLoadFont>
   9f5c4:	afa00160 	sw	zero,352(sp)
   9f5c8:	00408025 	move	s0,v0
   9f5cc:	0c067e00 	jal	19f800 <free>
   9f5d0:	02602025 	move	a0,s3
   9f5d4:	0c02858d 	jal	a1634 <VirtualFileClose>
   9f5d8:	02402025 	move	a0,s2
   9f5dc:	12000007 	beqz	s0,9f5fc <oslLoadFontFile+0x248>
   9f5e0:	24020001 	li	v0,1
   9f5e4:	10000008 	b	9f608 <oslLoadFontFile+0x254>
   9f5e8:	ae020020 	sw	v0,32(s0)
   9f5ec:	0c067e00 	jal	19f800 <free>
   9f5f0:	02602025 	move	a0,s3
   9f5f4:	0c02858d 	jal	a1634 <VirtualFileClose>
   9f5f8:	02402025 	move	a0,s2
   9f5fc:	0c02bb7e 	jal	aedf8 <oslHandleLoadNoFailError>
   9f600:	02202025 	move	a0,s1
   9f604:	00008025 	move	s0,zero
   9f608:	8fbf0184 	lw	ra,388(sp)
   9f60c:	8fb40180 	lw	s4,384(sp)
   9f610:	8fb3017c 	lw	s3,380(sp)
   9f614:	8fb20178 	lw	s2,376(sp)
   9f618:	8fb10174 	lw	s1,372(sp)
   9f61c:	02001025 	move	v0,s0
   9f620:	8fb00170 	lw	s0,368(sp)
   9f624:	03e00008 	jr	ra
   9f628:	27bd0188 	addiu	sp,sp,392
   9f62c:	00022880 	sll	a1,v0,0x2
   9f630:	00a02025 	move	a0,a1
   9f634:	0c067dfc 	jal	19f7f0 <malloc>
   9f638:	afa50168 	sw	a1,360(sp)
   9f63c:	00402025 	move	a0,v0
   9f640:	1040ffde 	beqz	v0,9f5bc <oslLoadFontFile+0x208>
   9f644:	0040a025 	move	s4,v0
   9f648:	96420004 	lhu	v0,4(s2)
   9f64c:	8fa50168 	lw	a1,360(sp)
   9f650:	02403825 	move	a3,s2
   9f654:	00021080 	sll	v0,v0,0x2
   9f658:	02028021 	addu	s0,s0,v0
   9f65c:	8e020000 	lw	v0,0(s0)
   9f660:	8c420008 	lw	v0,8(v0)
   9f664:	0040f809 	jalr	v0
   9f668:	24060001 	li	a2,1
   9f66c:	10400008 	beqz	v0,9f690 <oslLoadFontFile+0x2dc>
   9f670:	27a40140 	addiu	a0,sp,320
   9f674:	0c027b11 	jal	9ec44 <oslLoadFont>
   9f678:	afb40160 	sw	s4,352(sp)
   9f67c:	02802025 	move	a0,s4
   9f680:	0c067e00 	jal	19f800 <free>
   9f684:	00408025 	move	s0,v0
   9f688:	1000ffd0 	b	9f5cc <oslLoadFontFile+0x218>
   9f68c:	00000000 	nop
   9f690:	02802025 	move	a0,s4
   9f694:	0c067e00 	jal	19f800 <free>
   9f698:	a7a0015e 	sh	zero,350(sp)
   9f69c:	1000ffc8 	b	9f5c0 <oslLoadFontFile+0x20c>
   9f6a0:	27a40140 	addiu	a0,sp,320

0009f6a4 <oslDeleteFont>:
   9f6a4:	1080002d 	beqz	a0,9f75c <oslDeleteFont+0xb8>
   9f6a8:	00000000 	nop
   9f6ac:	27bdfff0 	addiu	sp,sp,-16
   9f6b0:	afbf000c 	sw	ra,12(sp)
   9f6b4:	8c830020 	lw	v1,32(a0)
   9f6b8:	00801025 	move	v0,a0
   9f6bc:	24040002 	li	a0,2
   9f6c0:	10640006 	beq	v1,a0,9f6dc <oslDeleteFont+0x38>
   9f6c4:	24040001 	li	a0,1
   9f6c8:	10640016 	beq	v1,a0,9f724 <oslDeleteFont+0x80>
   9f6cc:	8fbf000c 	lw	ra,12(sp)
   9f6d0:	00402025 	move	a0,v0
   9f6d4:	08067e00 	j	19f800 <free>
   9f6d8:	27bd0010 	addiu	sp,sp,16
   9f6dc:	8c440024 	lw	a0,36(v0)
--
   9f6e4:	10600008 	beqz	v1,9f708 <oslDeleteFont+0x64>
   9f6e8:	00000000 	nop
   9f6ec:	00602025 	move	a0,v1
   9f6f0:	0c0294c5 	jal	a5314 <intraFontUnload>
   9f6f4:	afa20000 	sw	v0,0(sp)
   9f6f8:	8fa20000 	lw	v0,0(sp)
   9f6fc:	8c430024 	lw	v1,36(v0)
   9f700:	ac60002c 	sw	zero,44(v1)
   9f704:	8c440024 	lw	a0,36(v0)
   9f708:	0c0294c5 	jal	a5314 <intraFontUnload>
   9f70c:	afa20000 	sw	v0,0(sp)
   9f710:	8fa20000 	lw	v0,0(sp)
   9f714:	8fbf000c 	lw	ra,12(sp)
   9f718:	27bd0010 	addiu	sp,sp,16
   9f71c:	08067e00 	j	19f800 <free>
   9f720:	00402025 	move	a0,v0
   9f724:	8c440000 	lw	a0,0(v0)
   9f728:	0c026095 	jal	98254 <oslDeleteImage>
   9f72c:	afa20000 	sw	v0,0(sp)
   9f730:	8fa20000 	lw	v0,0(sp)
   9f734:	0c067e00 	jal	19f800 <free>
   9f738:	8c440008 	lw	a0,8(v0)
   9f73c:	8fa20000 	lw	v0,0(sp)
   9f740:	0c067e00 	jal	19f800 <free>
   9f744:	8c440004 	lw	a0,4(v0)
   9f748:	8fa20000 	lw	v0,0(sp)
   9f74c:	8fbf000c 	lw	ra,12(sp)
   9f750:	27bd0010 	addiu	sp,sp,16
   9f754:	08067e00 	j	19f800 <free>
   9f758:	00402025 	move	a0,v0
   9f75c:	03e00008 	jr	ra
   9f760:	00000000 	nop

0009f764 <oslDrawTextTileBack>:
   9f764:	27bdffe0 	addiu	sp,sp,-32
   9f768:	3c02001f 	lui	v0,0x1f
   9f76c:	afb20010 	sw	s2,16(sp)
   9f770:	00809025 	move	s2,a0
   9f774:	8c442084 	lw	a0,8324(v0)
   9f778:	3c02001f 	lui	v0,0x1f
   9f77c:	afb1000c 	sw	s1,12(sp)
   9f780:	00a08825 	move	s1,a1
   9f784:	8c452040 	lw	a1,8256(v0)
   9f788:	afa60004 	sw	a2,4(sp)
--
   a15d4:	2631fff0 	addiu	s1,s1,-16
   a15d8:	10000002 	b	a15e4 <VirtualFileOpen+0x154>
   a15dc:	26107488 	addiu	s0,s0,29832
   a15e0:	02208025 	move	s0,s1
   a15e4:	8e15000c 	lw	s5,12(s0)
   a15e8:	12a00005 	beqz	s5,a1600 <VirtualFileOpen+0x170>
   a15ec:	02e02025 	move	a0,s7
   a15f0:	0c0678a3 	jal	19e28c <strcmp>
   a15f4:	8e050000 	lw	a1,0(s0)
   a15f8:	50400007 	beqzl	v0,a1618 <VirtualFileOpen+0x188>
   a15fc:	8e120004 	lw	s2,4(s0)
   a1600:	26940001 	addiu	s4,s4,1
   a1604:	169efff6 	bne	s4,s8,a15e0 <VirtualFileOpen+0x150>
   a1608:	26310010 	addiu	s1,s1,16
   a160c:	3c02001f 	lui	v0,0x1f
   a1610:	1000ffb0 	b	a14d4 <VirtualFileOpen+0x44>
   a1614:	8c5420b8 	lw	s4,8376(v0)
   a1618:	8e130008 	lw	s3,8(s0)
   a161c:	1000ffad 	b	a14d4 <VirtualFileOpen+0x44>
   a1620:	8eb40000 	lw	s4,0(s5)
   a1624:	0c067e00 	jal	19f800 <free>
   a1628:	02002025 	move	a0,s0
   a162c:	1000ffcf 	b	a156c <VirtualFileOpen+0xdc>
   a1630:	00008825 	move	s1,zero

000a1634 <VirtualFileClose>:
   a1634:	27bdfff0 	addiu	sp,sp,-16
   a1638:	afbf000c 	sw	ra,12(sp)
   a163c:	94820004 	lhu	v0,4(a0)
   a1640:	3c03002e 	lui	v1,0x2e
   a1644:	246374a8 	addiu	v1,v1,29864
   a1648:	00021080 	sll	v0,v0,0x2
   a164c:	00431021 	addu	v0,v0,v1
   a1650:	8c420000 	lw	v0,0(v0)
   a1654:	afa40000 	sw	a0,0(sp)
   a1658:	8c420004 	lw	v0,4(v0)
   a165c:	0040f809 	jalr	v0
   a1660:	00000000 	nop
   a1664:	14400004 	bnez	v0,a1678 <VirtualFileClose+0x44>
   a1668:	8fa40000 	lw	a0,0(sp)
   a166c:	8fbf000c 	lw	ra,12(sp)
   a1670:	03e00008 	jr	ra
   a1674:	27bd0010 	addiu	sp,sp,16
   a1678:	0c067e00 	jal	19f800 <free>
   a167c:	afa20000 	sw	v0,0(sp)
   a1680:	8fbf000c 	lw	ra,12(sp)
   a1684:	8fa20000 	lw	v0,0(sp)
   a1688:	03e00008 	jr	ra
   a168c:	27bd0010 	addiu	sp,sp,16

000a1690 <oslAddVirtualFileList>:
   a1690:	27bdffe0 	addiu	sp,sp,-32
   a1694:	afb00010 	sw	s0,16(sp)
   a1698:	3c10002e 	lui	s0,0x2e
   a169c:	8e06749c 	lw	a2,29852(s0)
   a16a0:	3c08002e 	lui	t0,0x2e
   a16a4:	8d027498 	lw	v0,29848(t0)
   a16a8:	00c51821 	addu	v1,a2,a1
   a16ac:	3c09002e 	lui	t1,0x2e
   a16b0:	0043382a 	slt	a3,v0,v1
   a16b4:	afb20018 	sw	s2,24(sp)
   a16b8:	afb10014 	sw	s1,20(sp)
   a16bc:	8d2274a0 	lw	v0,29856(t1)
   a16c0:	afbf001c 	sw	ra,28(sp)
--
   a1ab8:	0040f809 	jalr	v0
   a1abc:	24061000 	li	a2,4096
   a1ac0:	28431000 	slti	v1,v0,4096
   a1ac4:	26251000 	addiu	a1,s1,4096
   a1ac8:	02002025 	move	a0,s0
   a1acc:	1060ffec 	beqz	v1,a1a80 <oslReadEntireFileToMemory+0x54>
   a1ad0:	02429021 	addu	s2,s2,v0
   a1ad4:	56a00001 	bnezl	s5,a1adc <oslReadEntireFileToMemory+0xb0>
   a1ad8:	aeb20000 	sw	s2,0(s5)
   a1adc:	8fbf001c 	lw	ra,28(sp)
   a1ae0:	8fb60018 	lw	s6,24(sp)
   a1ae4:	8fb50014 	lw	s5,20(sp)
   a1ae8:	8fb40010 	lw	s4,16(sp)
   a1aec:	8fb3000c 	lw	s3,12(sp)
   a1af0:	8fb20008 	lw	s2,8(sp)
   a1af4:	8fb10004 	lw	s1,4(sp)
   a1af8:	02001025 	move	v0,s0
   a1afc:	8fb00000 	lw	s0,0(sp)
   a1b00:	03e00008 	jr	ra
   a1b04:	27bd0020 	addiu	sp,sp,32
   a1b08:	0c067e00 	jal	19f800 <free>
   a1b0c:	02002025 	move	a0,s0
   a1b10:	1000fff2 	b	a1adc <oslReadEntireFileToMemory+0xb0>
   a1b14:	00008025 	move	s0,zero

000a1b18 <oslSetTempFileData>:
   a1b18:	3c02002e 	lui	v0,0x2e
   a1b1c:	24427488 	addiu	v0,v0,29832
   a1b20:	ac440004 	sw	a0,4(v0)
   a1b24:	ac450008 	sw	a1,8(v0)
   a1b28:	03e00008 	jr	ra
   a1b2c:	ac46000c 	sw	a2,12(v0)

000a1b30 <oslVfpu_sinf>:
   a1b30:	3c02002e 	lui	v0,0x2e
   a1b34:	24447500 	addiu	a0,v0,29952
   a1b38:	e44c7500 	swc1	$f12,29952(v0)
   a1b3c:	e48d0004 	swc1	$f13,4(a0)
   a1b40:	c8800000 	lv.s	S000.s,0(a0)
   a1b44:	c8810004 	lv.s	S010.s,4(a0)
   a1b48:	d0650002 	vcst.s	S020.s,VFPU_2_PI
--
   a22d4:	00c23025 	or	a2,a2,v0
   a22d8:	00c73025 	or	a2,a2,a3
   a22dc:	0c025c84 	jal	97210 <oslConvertColor>
   a22e0:	00d33025 	or	a2,a2,s3
   a22e4:	00403825 	move	a3,v0
   a22e8:	02802825 	move	a1,s4
   a22ec:	2606ffff 	addiu	a2,s0,-1
   a22f0:	0c02675d 	jal	99d74 <oslSetImagePixel>
   a22f4:	02402025 	move	a0,s2
   a22f8:	8fa2001c 	lw	v0,28(sp)
   a22fc:	26940001 	addiu	s4,s4,1
   a2300:	0282102b 	sltu	v0,s4,v0
   a2304:	1440ffe7 	bnez	v0,a22a4 <oslLoadImageFileJPG+0x15c>
   a2308:	8fa20024 	lw	v0,36(sp)
   a230c:	8fa2008c 	lw	v0,140(sp)
   a2310:	8fa30020 	lw	v1,32(sp)
   a2314:	0043102b 	sltu	v0,v0,v1
   a2318:	1440ffdb 	bnez	v0,a2288 <oslLoadImageFileJPG+0x140>
   a231c:	24060001 	li	a2,1
   a2320:	8fa40254 	lw	a0,596(sp)
   a2324:	0c067e00 	jal	19f800 <free>
   a2328:	00000000 	nop
   a232c:	0c056812 	jal	15a048 <jpeg_finish_decompress>
   a2330:	03a02025 	move	a0,sp
   a2334:	0c056655 	jal	159954 <jpeg_destroy_decompress>
   a2338:	03a02025 	move	a0,sp
   a233c:	0c068b1a 	jal	1a2c68 <fclose>
   a2340:	02c02025 	move	a0,s6
   a2344:	0c067e00 	jal	19f800 <free>
   a2348:	02e02025 	move	a0,s7
   a234c:	0c026397 	jal	98e5c <oslImageLocationIsSwizzled>
   a2350:	02a02025 	move	a0,s5
   a2354:	14400029 	bnez	v0,a23fc <oslLoadImageFileJPG+0x2b4>
   a2358:	00000000 	nop
   a235c:	0c026108 	jal	98420 <oslUncacheImage>
   a2360:	02402025 	move	a0,s2
   a2364:	8fbf0284 	lw	ra,644(sp)
   a2368:	8fb70280 	lw	s7,640(sp)
   a236c:	8fb6027c 	lw	s6,636(sp)
   a2370:	8fb50278 	lw	s5,632(sp)
   a2374:	8fb40274 	lw	s4,628(sp)
   a2378:	8fb30270 	lw	s3,624(sp)
   a237c:	8fb10268 	lw	s1,616(sp)
   a2380:	8fb00264 	lw	s0,612(sp)
   a2384:	02401025 	move	v0,s2
   a2388:	8fb2026c 	lw	s2,620(sp)
   a238c:	03e00008 	jr	ra
   a2390:	27bd0288 	addiu	sp,sp,648
   a2394:	0c026095 	jal	98254 <oslDeleteImage>
   a2398:	02402025 	move	a0,s2
   a239c:	03a02025 	move	a0,sp
   a23a0:	0c056655 	jal	159954 <jpeg_destroy_decompress>
   a23a4:	00000000 	nop
   a23a8:	0c068b1a 	jal	1a2c68 <fclose>
   a23ac:	02c02025 	move	a0,s6
   a23b0:	0c067e00 	jal	19f800 <free>
   a23b4:	02e02025 	move	a0,s7
   a23b8:	0c026108 	jal	98420 <oslUncacheImage>
   a23bc:	00002025 	move	a0,zero
   a23c0:	0c02bb7e 	jal	aedf8 <oslHandleLoadNoFailError>
   a23c4:	02002025 	move	a0,s0
   a23c8:	00009025 	move	s2,zero
   a23cc:	8fbf0284 	lw	ra,644(sp)
   a23d0:	8fb70280 	lw	s7,640(sp)
   a23d4:	8fb6027c 	lw	s6,636(sp)
   a23d8:	8fb50278 	lw	s5,632(sp)
   a23dc:	8fb40274 	lw	s4,628(sp)
   a23e0:	8fb30270 	lw	s3,624(sp)
   a23e4:	8fb10268 	lw	s1,616(sp)
   a23e8:	8fb00264 	lw	s0,612(sp)
   a23ec:	02401025 	move	v0,s2
   a23f0:	8fb2026c 	lw	s2,620(sp)
   a23f4:	03e00008 	jr	ra
   a23f8:	27bd0288 	addiu	sp,sp,648
   a23fc:	0c02686e 	jal	9a1b8 <oslSwizzleImage>
   a2400:	02402025 	move	a0,s2
   a2404:	0c026108 	jal	98420 <oslUncacheImage>
   a2408:	02402025 	move	a0,s2
   a240c:	1000fff0 	b	a23d0 <oslLoadImageFileJPG+0x288>
   a2410:	8fbf0284 	lw	ra,644(sp)
   a2414:	0c067e00 	jal	19f800 <free>
   a2418:	02602025 	move	a0,s3
   a241c:	1000ffeb 	b	a23cc <oslLoadImageFileJPG+0x284>
   a2420:	00009025 	move	s2,zero

000a2424 <oslPngReadFn>:
   a2424:	27bdfff0 	addiu	sp,sp,-16
   a2428:	afb00008 	sw	s0,8(sp)
   a242c:	afbf000c 	sw	ra,12(sp)
   a2430:	00a08025 	move	s0,a1
   a2434:	0c02d17a 	jal	b45e8 <png_get_io_ptr>
   a2438:	afa60000 	sw	a2,0(sp)
   a243c:	94430004 	lhu	v1,4(v0)
   a2440:	3c04002e 	lui	a0,0x2e
   a2444:	248474a8 	addiu	a0,a0,29864
   a2448:	00031880 	sll	v1,v1,0x2
   a244c:	00641821 	addu	v1,v1,a0
   a2450:	8c630000 	lw	v1,0(v1)
   a2454:	8fa50000 	lw	a1,0(sp)
   a2458:	8fbf000c 	lw	ra,12(sp)
   a245c:	8c790008 	lw	t9,8(v1)
--
   a3410:	1200001c 	beqz	s0,a3484 <intraFontGetTable+0x100>
   a3414:	00003825 	move	a3,zero
   a3418:	00003025 	move	a2,zero
   a341c:	00002025 	move	a0,zero
   a3420:	00872821 	addu	a1,a0,a3
   a3424:	000518c2 	srl	v1,a1,0x3
   a3428:	02231821 	addu	v1,s1,v1
   a342c:	90630000 	lbu	v1,0(v1)
   a3430:	30a50007 	andi	a1,a1,0x7
   a3434:	00a31807 	srav	v1,v1,a1
   a3438:	30630001 	andi	v1,v1,0x1
   a343c:	00831804 	sllv	v1,v1,a0
   a3440:	24840001 	addiu	a0,a0,1
   a3444:	1604fff6 	bne	s0,a0,a3420 <intraFontGetTable+0x9c>
   a3448:	00c33021 	addu	a2,a2,v1
   a344c:	ad060000 	sw	a2,0(t0)
   a3450:	25080004 	addiu	t0,t0,4
   a3454:	1509fff0 	bne	t0,t1,a3418 <intraFontGetTable+0x94>
   a3458:	00f03821 	addu	a3,a3,s0
   a345c:	02202025 	move	a0,s1
   a3460:	0c067e00 	jal	19f800 <free>
   a3464:	afa20000 	sw	v0,0(sp)
   a3468:	8fa20000 	lw	v0,0(sp)
   a346c:	8fbf0014 	lw	ra,20(sp)
   a3470:	8fb20010 	lw	s2,16(sp)
   a3474:	8fb1000c 	lw	s1,12(sp)
   a3478:	8fb00008 	lw	s0,8(sp)
   a347c:	03e00008 	jr	ra
   a3480:	27bd0018 	addiu	sp,sp,24
   a3484:	25030004 	addiu	v1,t0,4
   a3488:	1069fff4 	beq	v1,t1,a345c <intraFontGetTable+0xd8>
   a348c:	ad000000 	sw	zero,0(t0)
   a3490:	ad000004 	sw	zero,4(t0)
   a3494:	25080008 	addiu	t0,t0,8
   a3498:	5528fffb 	bnel	t1,t0,a3488 <intraFontGetTable+0x104>
   a349c:	25030004 	addiu	v1,t0,4
   a34a0:	1000ffef 	b	a3460 <intraFontGetTable+0xdc>
   a34a4:	02202025 	move	a0,s1
   a34a8:	0c067e00 	jal	19f800 <free>
   a34ac:	02202025 	move	a0,s1
   a34b0:	1000ffee 	b	a346c <intraFontGetTable+0xe8>
   a34b4:	00001025 	move	v0,zero

000a34b8 <intraFontGetBMP>:
   a34b8:	108000de 	beqz	a0,a3834 <intraFontGetBMP+0x37c>
   a34bc:	00000000 	nop
   a34c0:	8c890050 	lw	t1,80(a0)
   a34c4:	31298000 	andi	t1,t1,0x8000
   a34c8:	152000da 	bnez	t1,a3834 <intraFontGetBMP+0x37c>
   a34cc:	00000000 	nop
   a34d0:	90820060 	lbu	v0,96(a0)
   a34d4:	144000ce 	bnez	v0,a3810 <intraFontGetBMP+0x358>
   a34d8:	30c60020 	andi	a2,a2,0x20
   a34dc:	00051080 	sll	v0,a1,0x2
   a34e0:	00451021 	addu	v0,v0,a1
   a34e4:	14c000d5 	bnez	a2,a383c <intraFontGetBMP+0x384>
   a34e8:	00021080 	sll	v0,v0,0x2
   a34ec:	8c830028 	lw	v1,40(a0)
   a34f0:	00621021 	addu	v0,v1,v0
--
   a51c4:	8e040020 	lw	a0,32(s0)
   a51c8:	8e020004 	lw	v0,4(s0)
   a51cc:	00862021 	addu	a0,a0,a2
   a51d0:	8c880010 	lw	t0,16(a0)
   a51d4:	00452021 	addu	a0,v0,a1
   a51d8:	00481021 	addu	v0,v0,t0
   a51dc:	90420005 	lbu	v0,5(v0)
   a51e0:	a0820005 	sb	v0,5(a0)
   a51e4:	8e020020 	lw	v0,32(s0)
   a51e8:	00461021 	addu	v0,v0,a2
   a51ec:	ac450010 	sw	a1,16(v0)
   a51f0:	9602005c 	lhu	v0,92(s0)
   a51f4:	24a50006 	addiu	a1,a1,6
   a51f8:	00e2182a 	slt	v1,a3,v0
   a51fc:	10600032 	beqz	v1,a52c8 <intraFontPreCache+0x390>
   a5200:	24c60014 	addiu	a2,a2,20
   a5204:	1000ffba 	b	a50f0 <intraFontPreCache+0x1b8>
   a5208:	8e030020 	lw	v1,32(s0)
   a520c:	14a0002e 	bnez	a1,a52c8 <intraFontPreCache+0x390>
   a5210:	00000000 	nop
   a5214:	0c067e00 	jal	19f800 <free>
   a5218:	8e040004 	lw	a0,4(s0)
   a521c:	00001025 	move	v0,zero
   a5220:	0c06fd14 	jal	1bf450 <sceKernelDcacheWritebackAll>
   a5224:	ae020004 	sw	v0,4(s0)
   a5228:	8e110010 	lw	s1,16(s0)
   a522c:	8e130014 	lw	s3,20(s0)
   a5230:	8e030008 	lw	v1,8(s0)
   a5234:	00118842 	srl	s1,s1,0x1
   a5238:	02710018 	mult	s3,s1
   a523c:	24040010 	li	a0,16
   a5240:	afa30000 	sw	v1,0(sp)
   a5244:	0c06a39c 	jal	1a8e70 <memalign>
   a5248:	00002812 	mflo	a1
   a524c:	1040002d 	beqz	v0,a5304 <intraFontPreCache+0x3cc>
   a5250:	0040a025 	move	s4,v0
   a5254:	1a600025 	blez	s3,a52ec <intraFontPreCache+0x3b4>
   a5258:	8fa30000 	lw	v1,0(sp)
   a525c:	00114103 	sra	t0,s1,0x4
   a5260:	11000022 	beqz	t0,a52ec <intraFontPreCache+0x3b4>
   a5264:	2509ffff 	addiu	t1,t0,-1
--
   a529c:	ac85ff88 	sw	a1,-120(a0)
   a52a0:	8c65fffc 	lw	a1,-4(v1)
   a52a4:	1466fff6 	bne	v1,a2,a5280 <intraFontPreCache+0x348>
   a52a8:	ac85ff8c 	sw	a1,-116(a0)
   a52ac:	30e30007 	andi	v1,a3,0x7
   a52b0:	10620009 	beq	v1,v0,a52d8 <intraFontPreCache+0x3a0>
   a52b4:	24e70001 	addiu	a3,a3,1
   a52b8:	1267000c 	beq	s3,a3,a52ec <intraFontPreCache+0x3b4>
   a52bc:	26520010 	addiu	s2,s2,16
   a52c0:	1000ffed 	b	a5278 <intraFontPreCache+0x340>
   a52c4:	00c01825 	move	v1,a2
   a52c8:	0c068119 	jal	1a0464 <realloc>
   a52cc:	8e040004 	lw	a0,4(s0)
   a52d0:	1000ffd3 	b	a5220 <intraFontPreCache+0x2e8>
   a52d4:	00000000 	nop
   a52d8:	10f30004 	beq	a3,s3,a52ec <intraFontPreCache+0x3b4>
   a52dc:	01329021 	addu	s2,t1,s2
   a52e0:	26520010 	addiu	s2,s2,16
   a52e4:	1000ffe4 	b	a5278 <intraFontPreCache+0x340>
   a52e8:	00c01825 	move	v1,a2
   a52ec:	0c067e00 	jal	19f800 <free>
   a52f0:	8e040008 	lw	a0,8(s0)
   a52f4:	8e020050 	lw	v0,80(s0)
   a52f8:	ae140008 	sw	s4,8(s0)
   a52fc:	34428000 	ori	v0,v0,0x8000
   a5300:	ae020050 	sw	v0,80(s0)
   a5304:	0c06fd14 	jal	1bf450 <sceKernelDcacheWritebackAll>
   a5308:	00000000 	nop
   a530c:	1000ff3e 	b	a5008 <intraFontPreCache+0xd0>
   a5310:	24020001 	li	v0,1

000a5314 <intraFontUnload>:
   a5314:	10800036 	beqz	a0,a53f0 <intraFontUnload+0xdc>
   a5318:	00000000 	nop
   a531c:	27bdfff8 	addiu	sp,sp,-8
   a5320:	afb00000 	sw	s0,0(sp)
   a5324:	afbf0004 	sw	ra,4(sp)
   a5328:	00808025 	move	s0,a0
   a532c:	8c840000 	lw	a0,0(a0)
   a5330:	50800004 	beqzl	a0,a5344 <intraFontUnload+0x30>
   a5334:	8e040004 	lw	a0,4(s0)
   a5338:	0c067e00 	jal	19f800 <free>
   a533c:	00000000 	nop
   a5340:	8e040004 	lw	a0,4(s0)
   a5344:	50800004 	beqzl	a0,a5358 <intraFontUnload+0x44>
   a5348:	8e040008 	lw	a0,8(s0)
   a534c:	0c067e00 	jal	19f800 <free>
   a5350:	00000000 	nop
   a5354:	8e040008 	lw	a0,8(s0)
   a5358:	50800004 	beqzl	a0,a536c <intraFontUnload+0x58>
   a535c:	92020060 	lbu	v0,96(s0)
   a5360:	0c067e00 	jal	19f800 <free>
   a5364:	00000000 	nop
   a5368:	92020060 	lbu	v0,96(s0)
   a536c:	5440001a 	bnezl	v0,a53d8 <intraFontUnload+0xc4>
   a5370:	8e040024 	lw	a0,36(s0)
   a5374:	8e040018 	lw	a0,24(s0)
   a5378:	50800004 	beqzl	a0,a538c <intraFontUnload+0x78>
   a537c:	8e04001c 	lw	a0,28(s0)
   a5380:	0c067e00 	jal	19f800 <free>
   a5384:	00000000 	nop
   a5388:	8e04001c 	lw	a0,28(s0)
   a538c:	50800004 	beqzl	a0,a53a0 <intraFontUnload+0x8c>
   a5390:	8e040020 	lw	a0,32(s0)
   a5394:	0c067e00 	jal	19f800 <free>
   a5398:	00000000 	nop
   a539c:	8e040020 	lw	a0,32(s0)
   a53a0:	50800004 	beqzl	a0,a53b4 <intraFontUnload+0xa0>
   a53a4:	8e040028 	lw	a0,40(s0)
   a53a8:	0c067e00 	jal	19f800 <free>
   a53ac:	00000000 	nop
   a53b0:	8e040028 	lw	a0,40(s0)
   a53b4:	10800004 	beqz	a0,a53c8 <intraFontUnload+0xb4>
   a53b8:	8fbf0004 	lw	ra,4(sp)
   a53bc:	0c067e00 	jal	19f800 <free>
   a53c0:	00000000 	nop
   a53c4:	8fbf0004 	lw	ra,4(sp)
   a53c8:	02002025 	move	a0,s0
   a53cc:	8fb00000 	lw	s0,0(sp)
   a53d0:	08067e00 	j	19f800 <free>
   a53d4:	27bd0008 	addiu	sp,sp,8
   a53d8:	1480fff8 	bnez	a0,a53bc <intraFontUnload+0xa8>
   a53dc:	8fbf0004 	lw	ra,4(sp)
   a53e0:	02002025 	move	a0,s0
   a53e4:	8fb00000 	lw	s0,0(sp)
   a53e8:	08067e00 	j	19f800 <free>
   a53ec:	27bd0008 	addiu	sp,sp,8
   a53f0:	03e00008 	jr	ra
   a53f4:	00000000 	nop

000a53f8 <intraFontLoadEx>:
   a53f8:	27bdffa8 	addiu	sp,sp,-88
   a53fc:	afb3003c 	sw	s3,60(sp)
   a5400:	00809825 	move	s3,a0
   a5404:	24040068 	li	a0,104
--
   a56b8:	1040016c 	beqz	v0,a5c6c <intraFontLoadEx+0x874>
   a56bc:	00000000 	nop
   a56c0:	8ec30010 	lw	v1,16(s6)
   a56c4:	10600010 	beqz	v1,a5708 <intraFontLoadEx+0x310>
   a56c8:	00000000 	nop
   a56cc:	96aa005c 	lhu	t2,92(s5)
   a56d0:	8ea7001c 	lw	a3,28(s5)
   a56d4:	00403025 	move	a2,v0
   a56d8:	00002825 	move	a1,zero
   a56dc:	3409ffff 	li	t1,0xffff
   a56e0:	8cc30000 	lw	v1,0(a2)
   a56e4:	24a50001 	addiu	a1,a1,1
   a56e8:	24c60004 	addiu	a2,a2,4
   a56ec:	006a402b 	sltu	t0,v1,t2
   a56f0:	0128180a 	movz	v1,t1,t0
   a56f4:	a4e30000 	sh	v1,0(a3)
   a56f8:	8ec30010 	lw	v1,16(s6)
   a56fc:	00a3182b 	sltu	v1,a1,v1
   a5700:	1460fff7 	bnez	v1,a56e0 <intraFontLoadEx+0x2e8>
   a5704:	24e70002 	addiu	a3,a3,2
   a5708:	0c067e00 	jal	19f800 <free>
   a570c:	00402025 	move	a0,v0
   a5710:	8ec6001c 	lw	a2,28(s6)
   a5714:	8ec50014 	lw	a1,20(s6)
   a5718:	0c028ce1 	jal	a3384 <intraFontGetTable>
   a571c:	02402025 	move	a0,s2
   a5720:	10400152 	beqz	v0,a5c6c <intraFontLoadEx+0x874>
   a5724:	afa20024 	sw	v0,36(sp)
   a5728:	0c06805b 	jal	1a016c <ftell>
   a572c:	02402025 	move	a0,s2
   a5730:	0282a023 	subu	s4,s4,v0
   a5734:	0c067dfc 	jal	19f7f0 <malloc>
   a5738:	02802025 	move	a0,s4
   a573c:	afa20008 	sw	v0,8(sp)
   a5740:	10400153 	beqz	v0,a5c90 <intraFontLoadEx+0x898>
   a5744:	aea20004 	sw	v0,4(s5)
   a5748:	00402025 	move	a0,v0
   a574c:	02403825 	move	a3,s2
   a5750:	24060001 	li	a2,1
   a5754:	0c0691c6 	jal	1a4718 <fread>
   a5758:	02802825 	move	a1,s4
--
   a5880:	8fa20014 	lw	v0,20(sp)
   a5884:	02a02025 	move	a0,s5
   a5888:	000c5880 	sll	t3,t4,0x2
   a588c:	004b1021 	addu	v0,v0,t3
   a5890:	94450000 	lhu	a1,0(v0)
   a5894:	016c5821 	addu	t3,t3,t4
   a5898:	0c0293aa 	jal	a4ea8 <intraFontGetID>
   a589c:	000b5880 	sll	t3,t3,0x2
   a58a0:	8fa3001c 	lw	v1,28(sp)
   a58a4:	0043182b 	sltu	v1,v0,v1
   a58a8:	50600007 	beqzl	v1,a58c8 <intraFontLoadEx+0x4d0>
   a58ac:	26940014 	addiu	s4,s4,20
   a58b0:	8eb60028 	lw	s6,40(s5)
   a58b4:	02cbb021 	addu	s6,s6,t3
   a58b8:	96c3000a 	lhu	v1,10(s6)
   a58bc:	106000fc 	beqz	v1,a5cb0 <intraFontLoadEx+0x8b8>
   a58c0:	8fa30024 	lw	v1,36(sp)
   a58c4:	26940014 	addiu	s4,s4,20
   a58c8:	5697ffed 	bnel	s4,s7,a5880 <intraFontLoadEx+0x488>
   a58cc:	968c000a 	lhu	t4,10(s4)
   a58d0:	0c067e00 	jal	19f800 <free>
   a58d4:	03c02025 	move	a0,s8
   a58d8:	0c067e00 	jal	19f800 <free>
   a58dc:	8fa40014 	lw	a0,20(sp)
   a58e0:	0c067e00 	jal	19f800 <free>
   a58e4:	8fa40024 	lw	a0,36(sp)
   a58e8:	0c06fd14 	jal	1bf450 <sceKernelDcacheWritebackAll>
   a58ec:	00000000 	nop
   a58f0:	8fa20018 	lw	v0,24(sp)
   a58f4:	1040000c 	beqz	v0,a5928 <intraFontLoadEx+0x530>
   a58f8:	00000000 	nop
   a58fc:	8fa2000c 	lw	v0,12(sp)
   a5900:	00521021 	addu	v0,v0,s2
   a5904:	24420001 	addiu	v0,v0,1
   a5908:	0222102b 	sltu	v0,s1,v0
   a590c:	14400006 	bnez	v0,a5928 <intraFontLoadEx+0x530>
   a5910:	00000000 	nop
   a5914:	02002825 	move	a1,s0
   a5918:	0c0293ce 	jal	a4f38 <intraFontPreCache>
   a591c:	02a02025 	move	a0,s5
   a5920:	10400017 	beqz	v0,a5980 <intraFontLoadEx+0x588>
   a5924:	00000000 	nop
   a5928:	0c06fd14 	jal	1bf450 <sceKernelDcacheWritebackAll>
   a592c:	00000000 	nop
   a5930:	8fbf0054 	lw	ra,84(sp)
   a5934:	8fbe0050 	lw	s8,80(sp)
   a5938:	8fb7004c 	lw	s7,76(sp)
   a593c:	8fb60048 	lw	s6,72(sp)
   a5940:	8fb40040 	lw	s4,64(sp)
   a5944:	8fb3003c 	lw	s3,60(sp)
   a5948:	8fb20038 	lw	s2,56(sp)
   a594c:	8fb10034 	lw	s1,52(sp)
   a5950:	8fb00030 	lw	s0,48(sp)
   a5954:	02a01025 	move	v0,s5
   a5958:	8fb50044 	lw	s5,68(sp)
   a595c:	03e00008 	jr	ra
   a5960:	27bd0058 	addiu	sp,sp,88
   a5964:	8ec2016c 	lw	v0,364(s6)
   a5968:	5040ff46 	beqzl	v0,a5684 <intraFontLoadEx+0x28c>
   a596c:	8ec30008 	lw	v1,8(s6)
   a5970:	0c067e00 	jal	19f800 <free>
   a5974:	03c02025 	move	a0,s8
   a5978:	0c068b1a 	jal	1a2c68 <fclose>
   a597c:	02402025 	move	a0,s2
   a5980:	0c0294c5 	jal	a5314 <intraFontUnload>
   a5984:	02a02025 	move	a0,s5
   a5988:	8fbf0054 	lw	ra,84(sp)
   a598c:	0000a825 	move	s5,zero
   a5990:	8fbe0050 	lw	s8,80(sp)
   a5994:	8fb7004c 	lw	s7,76(sp)
   a5998:	8fb60048 	lw	s6,72(sp)
   a599c:	8fb40040 	lw	s4,64(sp)
   a59a0:	8fb3003c 	lw	s3,60(sp)
   a59a4:	8fb20038 	lw	s2,56(sp)
   a59a8:	8fb10034 	lw	s1,52(sp)
   a59ac:	8fb00030 	lw	s0,48(sp)
   a59b0:	02a01025 	move	v0,s5
   a59b4:	8fb50044 	lw	s5,68(sp)
   a59b8:	03e00008 	jr	ra
   a59bc:	27bd0058 	addiu	sp,sp,88
   a59c0:	8ec3000c 	lw	v1,12(s6)
--
   a5c1c:	02403825 	move	a3,s2
   a5c20:	24060001 	li	a2,1
   a5c24:	24050180 	li	a1,384
   a5c28:	0c0691c6 	jal	1a4718 <fread>
   a5c2c:	26e47520 	addiu	a0,s7,29984
   a5c30:	24030001 	li	v1,1
   a5c34:	1043fe17 	beq	v0,v1,a5494 <intraFontLoadEx+0x9c>
   a5c38:	3c05001c 	lui	a1,0x1c
   a5c3c:	0c068b1a 	jal	1a2c68 <fclose>
   a5c40:	02402025 	move	a0,s2
   a5c44:	1000ff51 	b	a598c <intraFontLoadEx+0x594>
   a5c48:	8fbf0054 	lw	ra,84(sp)
   a5c4c:	8ea4001c 	lw	a0,28(s5)
   a5c50:	02403825 	move	a3,s2
   a5c54:	24060001 	li	a2,1
   a5c58:	0c0691c6 	jal	1a4718 <fread>
   a5c5c:	00052840 	sll	a1,a1,0x1
   a5c60:	24030001 	li	v1,1
   a5c64:	5043feab 	beql	v0,v1,a5714 <intraFontLoadEx+0x31c>
   a5c68:	8ec6001c 	lw	a2,28(s6)
   a5c6c:	0c067e00 	jal	19f800 <free>
   a5c70:	03c02025 	move	a0,s8
   a5c74:	0c067e00 	jal	19f800 <free>
   a5c78:	8fa40014 	lw	a0,20(sp)
   a5c7c:	1000ff3e 	b	a5978 <intraFontLoadEx+0x580>
   a5c80:	00000000 	nop
   a5c84:	241e001c 	li	s8,28
   a5c88:	1000ff79 	b	a5a70 <intraFontLoadEx+0x678>
   a5c8c:	24080007 	li	t0,7
   a5c90:	0c067e00 	jal	19f800 <free>
   a5c94:	03c02025 	move	a0,s8
   a5c98:	0c067e00 	jal	19f800 <free>
   a5c9c:	8fa40014 	lw	a0,20(sp)
   a5ca0:	0c067e00 	jal	19f800 <free>
   a5ca4:	8fa40024 	lw	a0,36(sp)
   a5ca8:	1000ff33 	b	a5978 <intraFontLoadEx+0x580>
   a5cac:	00000000 	nop
   a5cb0:	00021080 	sll	v0,v0,0x2
   a5cb4:	8fa40008 	lw	a0,8(sp)
   a5cb8:	00621021 	addu	v0,v1,v0
   a5cbc:	8c420000 	lw	v0,0(v0)
   a5cc0:	02c04025 	move	t0,s6
   a5cc4:	00003825 	move	a3,zero
   a5cc8:	00021140 	sll	v0,v0,0x5
   a5ccc:	24060040 	li	a2,64
   a5cd0:	03a02825 	move	a1,sp
   a5cd4:	0c029068 	jal	a41a0 <intraFontGetGlyph>
   a5cd8:	afa20000 	sw	v0,0(sp)
   a5cdc:	92c20008 	lbu	v0,8(s6)
   a5ce0:	7c430040 	ext	v1,v0,0x1,0x1
   a5ce4:	38630001 	xori	v1,v1,0x1
   a5ce8:	00021027 	nor	v0,zero,v0
   a5cec:	306300ff 	andi	v1,v1,0xff
   a5cf0:	30420001 	andi	v0,v0,0x1
--
   a5dc0:	afa2001c 	sw	v0,28(sp)
   a5dc4:	10400021 	beqz	v0,a5e4c <intraFontLoadEx+0xa54>
   a5dc8:	a6a2005c 	sh	v0,92(s5)
   a5dcc:	00401825 	move	v1,v0
   a5dd0:	8ea40020 	lw	a0,32(s5)
   a5dd4:	00021080 	sll	v0,v0,0x2
   a5dd8:	00432821 	addu	a1,v0,v1
   a5ddc:	00052880 	sll	a1,a1,0x2
   a5de0:	0c068119 	jal	1a0464 <realloc>
   a5de4:	afa20028 	sw	v0,40(sp)
   a5de8:	aea20020 	sw	v0,32(s5)
   a5dec:	96620000 	lhu	v0,0(s3)
   a5df0:	02422823 	subu	a1,s2,v0
   a5df4:	30a5ffff 	andi	a1,a1,0xffff
   a5df8:	a6650002 	sh	a1,2(s3)
   a5dfc:	8ea4001c 	lw	a0,28(s5)
   a5e00:	0c068119 	jal	1a0464 <realloc>
   a5e04:	00052840 	sll	a1,a1,0x1
   a5e08:	1000fe64 	b	a579c <intraFontLoadEx+0x3a4>
   a5e0c:	aea2001c 	sw	v0,28(s5)
   a5e10:	0c067e00 	jal	19f800 <free>
   a5e14:	03c02025 	move	a0,s8
   a5e18:	0c067e00 	jal	19f800 <free>
   a5e1c:	8fa40014 	lw	a0,20(sp)
   a5e20:	0c067e00 	jal	19f800 <free>
   a5e24:	8fa40024 	lw	a0,36(sp)
   a5e28:	0c06fd14 	jal	1bf450 <sceKernelDcacheWritebackAll>
   a5e2c:	00000000 	nop
   a5e30:	8fa20018 	lw	v0,24(sp)
   a5e34:	1440feb8 	bnez	v0,a5918 <intraFontLoadEx+0x520>
   a5e38:	02002825 	move	a1,s0
   a5e3c:	0c06fd14 	jal	1bf450 <sceKernelDcacheWritebackAll>
   a5e40:	00000000 	nop
   a5e44:	1000febb 	b	a5934 <intraFontLoadEx+0x53c>
   a5e48:	8fbf0054 	lw	ra,84(sp)
   a5e4c:	0c067e00 	jal	19f800 <free>
   a5e50:	03c02025 	move	a0,s8
   a5e54:	0c067e00 	jal	19f800 <free>
   a5e58:	8fa40014 	lw	a0,20(sp)
   a5e5c:	0c067e00 	jal	19f800 <free>
   a5e60:	8fa40024 	lw	a0,36(sp)
   a5e64:	0c0294c5 	jal	a5314 <intraFontUnload>
   a5e68:	02a02025 	move	a0,s5
   a5e6c:	1000fec7 	b	a598c <intraFontLoadEx+0x594>
   a5e70:	8fbf0054 	lw	ra,84(sp)

000a5e74 <intraFontLoad>:
   a5e74:	00003825 	move	a3,zero
   a5e78:	080294fe 	j	a53f8 <intraFontLoadEx>
   a5e7c:	00003025 	move	a2,zero

000a5e80 <intraFontInit>:
   a5e80:	3c0300ff 	lui	v1,0xff
   a5e84:	3c04002e 	lui	a0,0x2e
   a5e88:	3463ffff 	ori	v1,v1,0xffff
   a5e8c:	ac8376a0 	sw	v1,30368(a0)
   a5e90:	3c0311ff 	lui	v1,0x11ff
   a5e94:	248276a0 	addiu	v0,a0,30368
   a5e98:	3463ffff 	ori	v1,v1,0xffff
   a5e9c:	ac430004 	sw	v1,4(v0)
--
   a75e0:	00000000 	nop
   a75e4:	1040fb8e 	beqz	v0,a6420 <intraFontPrintColumnUCS2Ex+0x23c>
   a75e8:	00409825 	move	s3,v0
   a75ec:	00402025 	move	a0,v0
   a75f0:	24020020 	li	v0,32
   a75f4:	96230000 	lhu	v1,0(s1)
   a75f8:	24840002 	addiu	a0,a0,2
   a75fc:	26310002 	addiu	s1,s1,2
   a7600:	3865000a 	xori	a1,v1,0xa
   a7604:	0045180a 	movz	v1,v0,a1
   a7608:	1632fffa 	bne	s1,s2,a75f4 <intraFontPrintColumnUCS2Ex+0x1410>
   a760c:	a483fffe 	sh	v1,-2(a0)
   a7610:	c7ac0008 	lwc1	$f12,8(sp)
   a7614:	4600b386 	mov.s	$f14,$f22
   a7618:	4600bb46 	mov.s	$f13,$f23
   a761c:	02003025 	move	a2,s0
   a7620:	02602825 	move	a1,s3
   a7624:	0c029879 	jal	a61e4 <intraFontPrintColumnUCS2Ex>
   a7628:	03c02025 	move	a0,s8
   a762c:	02602025 	move	a0,s3
   a7630:	0c067e00 	jal	19f800 <free>
   a7634:	e7a00000 	swc1	$f0,0(sp)
   a7638:	1000fb7a 	b	a6424 <intraFontPrintColumnUCS2Ex+0x240>
   a763c:	c7a00000 	lwc1	$f0,0(sp)
   a7640:	2403ffff 	li	v1,-1
   a7644:	0040c025 	move	t8,v0
   a7648:	afa30000 	sw	v1,0(sp)
   a764c:	2415ffff 	li	s5,-1
   a7650:	afa20020 	sw	v0,32(sp)
   a7654:	24110001 	li	s1,1
   a7658:	10000011 	b	a76a0 <intraFontPrintColumnUCS2Ex+0x14bc>
   a765c:	02c0c825 	move	t9,s6
   a7660:	97230000 	lhu	v1,0(t9)
   a7664:	2402000a 	li	v0,10
   a7668:	1062030a 	beq	v1,v0,a8294 <intraFontPrintColumnUCS2Ex+0x20b0>
   a766c:	24020020 	li	v0,32
   a7670:	14620004 	bne	v1,v0,a7684 <intraFontPrintColumnUCS2Ex+0x14a0>
   a7674:	8fa20000 	lw	v0,0(sp)
   a7678:	0300a825 	move	s5,t8
   a767c:	24420001 	addiu	v0,v0,1
   a7680:	afa20000 	sw	v0,0(sp)
--
   a8c84:	00a32821 	addu	a1,a1,v1
   a8c88:	24060020 	li	a2,32
   a8c8c:	94640000 	lhu	a0,0(v1)
   a8c90:	50870001 	beql	a0,a3,a8c98 <intraFontPrintColumnEx+0xc4>
   a8c94:	a4660000 	sh	a2,0(v1)
   a8c98:	24630002 	addiu	v1,v1,2
   a8c9c:	54a3fffc 	bnel	a1,v1,a8c90 <intraFontPrintColumnEx+0xbc>
   a8ca0:	94640000 	lhu	a0,0(v1)
   a8ca4:	44800000 	mtc1	zero,$f0
   a8ca8:	00000000 	nop
   a8cac:	460e003e 	c.le.s	$f0,$f14
   a8cb0:	00000000 	nop
   a8cb4:	45010014 	bc1t	a8d08 <intraFontPrintColumnEx+0x134>
   a8cb8:	8fa50200 	lw	a1,512(sp)
   a8cbc:	00403025 	move	a2,v0
   a8cc0:	0c028c1d 	jal	a3074 <intraFontMeasureTextUCS2Ex.part.0>
   a8cc4:	01002025 	move	a0,t0
   a8cc8:	8fa20200 	lw	v0,512(sp)
   a8ccc:	13a20004 	beq	sp,v0,a8ce0 <intraFontPrintColumnEx+0x10c>
   a8cd0:	00402025 	move	a0,v0
   a8cd4:	0c067e00 	jal	19f800 <free>
   a8cd8:	e7a00204 	swc1	$f0,516(sp)
   a8cdc:	c7a00204 	lwc1	$f0,516(sp)
   a8ce0:	8fbf021c 	lw	ra,540(sp)
   a8ce4:	8fb00218 	lw	s0,536(sp)
   a8ce8:	03e00008 	jr	ra
   a8cec:	27bd0220 	addiu	sp,sp,544
   a8cf0:	44800000 	mtc1	zero,$f0
   a8cf4:	00000000 	nop
   a8cf8:	460e003e 	c.le.s	$f0,$f14
   a8cfc:	00000000 	nop
   a8d00:	4500000e 	bc1f	a8d3c <intraFontPrintColumnEx+0x168>
   a8d04:	8fa50200 	lw	a1,512(sp)
   a8d08:	44906800 	mtc1	s0,$f13
   a8d0c:	00403025 	move	a2,v0
   a8d10:	0c029879 	jal	a61e4 <intraFontPrintColumnUCS2Ex>
   a8d14:	01002025 	move	a0,t0
   a8d18:	1000ffec 	b	a8ccc <intraFontPrintColumnEx+0xf8>
   a8d1c:	8fa20200 	lw	v0,512(sp)
   a8d20:	8fbf021c 	lw	ra,540(sp)
   a8d24:	8fb00218 	lw	s0,536(sp)
--
   a8ec4:	afa20308 	sw	v0,776(sp)
   a8ec8:	8fa5030c 	lw	a1,780(sp)
   a8ecc:	1040002e 	beqz	v0,a8f88 <intraFontPrintf+0x14c>
   a8ed0:	c7ac0310 	lwc1	$f12,784(sp)
   a8ed4:	92070052 	lbu	a3,82(s0)
   a8ed8:	27a60200 	addiu	a2,sp,512
   a8edc:	00402025 	move	a0,v0
   a8ee0:	0c02ae00 	jal	ab800 <cccCodetoUCS2>
   a8ee4:	e7ac030c 	swc1	$f12,780(sp)
   a8ee8:	8e030050 	lw	v1,80(s0)
   a8eec:	c7ac030c 	lwc1	$f12,780(sp)
   a8ef0:	30632000 	andi	v1,v1,0x2000
   a8ef4:	1460002a 	bnez	v1,a8fa0 <intraFontPrintf+0x164>
   a8ef8:	00403025 	move	a2,v0
   a8efc:	8fa50308 	lw	a1,776(sp)
   a8f00:	44807000 	mtc1	zero,$f14
   a8f04:	4600a346 	mov.s	$f13,$f20
   a8f08:	0c029879 	jal	a61e4 <intraFontPrintColumnUCS2Ex>
   a8f0c:	02002025 	move	a0,s0
   a8f10:	8fa40308 	lw	a0,776(sp)
   a8f14:	0c067e00 	jal	19f800 <free>
   a8f18:	e7a0030c 	swc1	$f0,780(sp)
   a8f1c:	8fbf031c 	lw	ra,796(sp)
   a8f20:	c7a0030c 	lwc1	$f0,780(sp)
   a8f24:	8fb00318 	lw	s0,792(sp)
   a8f28:	c7b40324 	lwc1	$f20,804(sp)
   a8f2c:	03e00008 	jr	ra
   a8f30:	27bd0340 	addiu	sp,sp,832
   a8f34:	27a60200 	addiu	a2,sp,512
   a8f38:	03a02025 	move	a0,sp
   a8f3c:	0c02ae00 	jal	ab800 <cccCodetoUCS2>
   a8f40:	e7ac0308 	swc1	$f12,776(sp)
   a8f44:	8e030050 	lw	v1,80(s0)
   a8f48:	c7ac0308 	lwc1	$f12,776(sp)
   a8f4c:	30632000 	andi	v1,v1,0x2000
   a8f50:	10600003 	beqz	v1,a8f60 <intraFontPrintf+0x124>
   a8f54:	00403025 	move	a2,v0
   a8f58:	1c400013 	bgtz	v0,a8fa8 <intraFontPrintf+0x16c>
   a8f5c:	afbd0308 	sw	sp,776(sp)
   a8f60:	4600a346 	mov.s	$f13,$f20
   a8f64:	44807000 	mtc1	zero,$f14
--
   aa49c:	244276e4 	addiu	v0,v0,30436
   aa4a0:	00461821 	addu	v1,v0,a2
   aa4a4:	90630000 	lbu	v1,0(v1)
   aa4a8:	00804825 	move	t1,a0
   aa4ac:	10600025 	beqz	v1,aa544 <cccSetTable+0xb4>
   aa4b0:	00065080 	sll	t2,a2,0x2
   aa4b4:	3c03002e 	lui	v1,0x2e
   aa4b8:	24637748 	addiu	v1,v1,30536
   aa4bc:	006a2021 	addu	a0,v1,t2
   aa4c0:	8c840000 	lw	a0,0(a0)
   aa4c4:	10800022 	beqz	a0,aa550 <cccSetTable+0xc0>
   aa4c8:	3c08002e 	lui	t0,0x2e
   aa4cc:	27bdffd8 	addiu	sp,sp,-40
   aa4d0:	afbf0024 	sw	ra,36(sp)
   aa4d4:	afa70018 	sw	a3,24(sp)
   aa4d8:	afa50014 	sw	a1,20(sp)
   aa4dc:	afa90010 	sw	t1,16(sp)
   aa4e0:	afa6000c 	sw	a2,12(sp)
   aa4e4:	afa30008 	sw	v1,8(sp)
   aa4e8:	afa20004 	sw	v0,4(sp)
   aa4ec:	0c067e00 	jal	19f800 <free>
   aa4f0:	afaa0000 	sw	t2,0(sp)
   aa4f4:	8fa90010 	lw	t1,16(sp)
   aa4f8:	8faa0000 	lw	t2,0(sp)
   aa4fc:	8fa50014 	lw	a1,20(sp)
   aa500:	8fa6000c 	lw	a2,12(sp)
   aa504:	8fa30008 	lw	v1,8(sp)
   aa508:	8fa20004 	lw	v0,4(sp)
   aa50c:	8fa70018 	lw	a3,24(sp)
   aa510:	3c08002e 	lui	t0,0x2e
   aa514:	250876f8 	addiu	t0,t0,30456
   aa518:	00461021 	addu	v0,v0,a2
   aa51c:	006a1821 	addu	v1,v1,t2
   aa520:	010a4021 	addu	t0,t0,t2
   aa524:	01252821 	addu	a1,t1,a1
   aa528:	a0470000 	sb	a3,0(v0)
   aa52c:	ac690000 	sw	t1,0(v1)
   aa530:	ad050000 	sw	a1,0(t0)
   aa534:	8fbf0024 	lw	ra,36(sp)
   aa538:	00001025 	move	v0,zero
   aa53c:	03e00008 	jr	ra
--
   aa688:	00402025 	move	a0,v0
   aa68c:	8e260008 	lw	a2,8(s1)
   aa690:	0c02a5c0 	jal	a9700 <cccLZRDecompress>
   aa694:	02663021 	addu	a2,s3,a2
   aa698:	0440002d 	bltz	v0,aa750 <cccLoadTable+0x1cc>
   aa69c:	02602025 	move	a0,s3
   aa6a0:	8e220000 	lw	v0,0(s1)
   aa6a4:	92370000 	lbu	s7,0(s1)
   aa6a8:	304200ff 	andi	v0,v0,0xff
   aa6ac:	0017f080 	sll	s8,s7,0x2
   aa6b0:	2c420014 	sltiu	v0,v0,20
   aa6b4:	02b71821 	addu	v1,s5,s7
   aa6b8:	1040ffe7 	beqz	v0,aa658 <cccLoadTable+0xd4>
   aa6bc:	029e2021 	addu	a0,s4,s8
   aa6c0:	90630000 	lbu	v1,0(v1)
   aa6c4:	10600007 	beqz	v1,aa6e4 <cccLoadTable+0x160>
   aa6c8:	8e220010 	lw	v0,16(s1)
   aa6cc:	8c840000 	lw	a0,0(a0)
   aa6d0:	50800005 	beqzl	a0,aa6e8 <cccLoadTable+0x164>
   aa6d4:	26c376f8 	addiu	v1,s6,30456
   aa6d8:	0c067e00 	jal	19f800 <free>
   aa6dc:	afa20000 	sw	v0,0(sp)
   aa6e0:	8fa20000 	lw	v0,0(sp)
   aa6e4:	26c376f8 	addiu	v1,s6,30456
   aa6e8:	02021021 	addu	v0,s0,v0
   aa6ec:	007e1821 	addu	v1,v1,s8
   aa6f0:	02b7b821 	addu	s7,s5,s7
   aa6f4:	ac620000 	sw	v0,0(v1)
   aa6f8:	24020001 	li	v0,1
   aa6fc:	a2e20000 	sb	v0,0(s7)
   aa700:	8e220020 	lw	v0,32(s1)
   aa704:	029e2021 	addu	a0,s4,s8
   aa708:	ac900000 	sw	s0,0(a0)
   aa70c:	1440ffd5 	bnez	v0,aa664 <cccLoadTable+0xe0>
   aa710:	26310020 	addiu	s1,s1,32
   aa714:	0c067e00 	jal	19f800 <free>
   aa718:	02602025 	move	a0,s3
   aa71c:	00001025 	move	v0,zero
   aa720:	8fbf002c 	lw	ra,44(sp)
   aa724:	8fbe0028 	lw	s8,40(sp)
   aa728:	8fb70024 	lw	s7,36(sp)
   aa72c:	8fb60020 	lw	s6,32(sp)
   aa730:	8fb5001c 	lw	s5,28(sp)
   aa734:	8fb40018 	lw	s4,24(sp)
   aa738:	8fb30014 	lw	s3,20(sp)
   aa73c:	8fb20010 	lw	s2,16(sp)
   aa740:	8fb1000c 	lw	s1,12(sp)
   aa744:	8fb00008 	lw	s0,8(sp)
   aa748:	03e00008 	jr	ra
   aa74c:	27bd0030 	addiu	sp,sp,48
   aa750:	0c067e00 	jal	19f800 <free>
   aa754:	afa20000 	sw	v0,0(sp)
   aa758:	0c067e00 	jal	19f800 <free>
   aa75c:	02002025 	move	a0,s0
   aa760:	8fbf002c 	lw	ra,44(sp)
   aa764:	8fa20000 	lw	v0,0(sp)
   aa768:	8fbe0028 	lw	s8,40(sp)
   aa76c:	8fb70024 	lw	s7,36(sp)
   aa770:	8fb60020 	lw	s6,32(sp)
   aa774:	8fb5001c 	lw	s5,28(sp)
   aa778:	8fb40018 	lw	s4,24(sp)
   aa77c:	8fb30014 	lw	s3,20(sp)
   aa780:	8fb20010 	lw	s2,16(sp)
   aa784:	8fb1000c 	lw	s1,12(sp)
   aa788:	8fb00008 	lw	s0,8(sp)
   aa78c:	03e00008 	jr	ra
   aa790:	27bd0030 	addiu	sp,sp,48
   aa794:	3c12002e 	lui	s2,0x2e
   aa798:	3c15002e 	lui	s5,0x2e
   aa79c:	265276e4 	addiu	s2,s2,30436
   aa7a0:	26b576f8 	addiu	s5,s5,30456
   aa7a4:	1000000d 	b	aa7dc <cccLoadTable+0x258>
   aa7a8:	3c14002e 	lui	s4,0x2e
--
   aa7fc:	8e260008 	lw	a2,8(s1)
   aa800:	269e7748 	addiu	s8,s4,30536
   aa804:	0c02a5c0 	jal	a9700 <cccLZRDecompress>
   aa808:	02663021 	addu	a2,s3,a2
   aa80c:	0440ffd0 	bltz	v0,aa750 <cccLoadTable+0x1cc>
   aa810:	02602025 	move	a0,s3
   aa814:	8e220000 	lw	v0,0(s1)
   aa818:	92360000 	lbu	s6,0(s1)
   aa81c:	304200ff 	andi	v0,v0,0xff
   aa820:	0016b880 	sll	s7,s6,0x2
   aa824:	2c420014 	sltiu	v0,v0,20
   aa828:	02561821 	addu	v1,s2,s6
   aa82c:	1040ffe8 	beqz	v0,aa7d0 <cccLoadTable+0x24c>
   aa830:	03d72021 	addu	a0,s8,s7
   aa834:	90630000 	lbu	v1,0(v1)
   aa838:	1060ffdc 	beqz	v1,aa7ac <cccLoadTable+0x228>
   aa83c:	8e220010 	lw	v0,16(s1)
   aa840:	8c840000 	lw	a0,0(a0)
   aa844:	5080ffdb 	beqzl	a0,aa7b4 <cccLoadTable+0x230>
   aa848:	03d7f021 	addu	s8,s8,s7
   aa84c:	0c067e00 	jal	19f800 <free>
   aa850:	afa20000 	sw	v0,0(sp)
   aa854:	1000ffd6 	b	aa7b0 <cccLoadTable+0x22c>
   aa858:	8fa20000 	lw	v0,0(sp)
   aa85c:	0c06fc94 	jal	1bf250 <sceIoClose>
   aa860:	00000000 	nop
   aa864:	0c067e00 	jal	19f800 <free>
   aa868:	02602025 	move	a0,s3
   aa86c:	3c028002 	lui	v0,0x8002
   aa870:	1000ffab 	b	aa720 <cccLoadTable+0x19c>
   aa874:	24420130 	addiu	v0,v0,304
   aa878:	3c028002 	lui	v0,0x8002
   aa87c:	03e00008 	jr	ra
   aa880:	24420325 	addiu	v0,v0,805
   aa884:	0c067e00 	jal	19f800 <free>
   aa888:	02602025 	move	a0,s3
   aa88c:	3c028002 	lui	v0,0x8002
   aa890:	1000ffa3 	b	aa720 <cccLoadTable+0x19c>
   aa894:	244200d9 	addiu	v0,v0,217
   aa898:	0c06fc94 	jal	1bf250 <sceIoClose>
   aa89c:	02002025 	move	a0,s0
   aa8a0:	3c028002 	lui	v0,0x8002
   aa8a4:	1000ff9e 	b	aa720 <cccLoadTable+0x19c>
   aa8a8:	244200d9 	addiu	v0,v0,217

000aa8ac <cccSJIStoUCS2.part.0>:
   aa8ac:	27bdffe0 	addiu	sp,sp,-32
   aa8b0:	afb20010 	sw	s2,16(sp)
   aa8b4:	3c12002e 	lui	s2,0x2e
   aa8b8:	92427798 	lbu	v0,30616(s2)
   aa8bc:	afb00008 	sw	s0,8(sp)
   aa8c0:	afbf001c 	sw	ra,28(sp)
   aa8c4:	afb40018 	sw	s4,24(sp)
   aa8c8:	afb30014 	sw	s3,20(sp)
   aa8cc:	afb1000c 	sw	s1,12(sp)
--
   ab2a8:	92627798 	lbu	v0,30616(s3)
   ab2ac:	afbf0014 	sw	ra,20(sp)
   ab2b0:	afb40010 	sw	s4,16(sp)
   ab2b4:	afb20008 	sw	s2,8(sp)
   ab2b8:	afb10004 	sw	s1,4(sp)
   ab2bc:	10400018 	beqz	v0,ab320 <cccShutDown+0x84>
   ab2c0:	afb00000 	sw	s0,0(sp)
   ab2c4:	3c10002e 	lui	s0,0x2e
   ab2c8:	261076e4 	addiu	s0,s0,30436
   ab2cc:	3c11002e 	lui	s1,0x2e
   ab2d0:	3c12002e 	lui	s2,0x2e
   ab2d4:	26317748 	addiu	s1,s1,30536
   ab2d8:	265276f8 	addiu	s2,s2,30456
   ab2dc:	26140014 	addiu	s4,s0,20
   ab2e0:	92020000 	lbu	v0,0(s0)
   ab2e4:	50400007 	beqzl	v0,ab304 <cccShutDown+0x68>
   ab2e8:	a2000000 	sb	zero,0(s0)
   ab2ec:	8e240000 	lw	a0,0(s1)
   ab2f0:	50800004 	beqzl	a0,ab304 <cccShutDown+0x68>
   ab2f4:	a2000000 	sb	zero,0(s0)
   ab2f8:	0c067e00 	jal	19f800 <free>
   ab2fc:	00000000 	nop
   ab300:	a2000000 	sb	zero,0(s0)
   ab304:	26100001 	addiu	s0,s0,1
   ab308:	ae200000 	sw	zero,0(s1)
   ab30c:	ae400000 	sw	zero,0(s2)
   ab310:	26310004 	addiu	s1,s1,4
   ab314:	1614fff2 	bne	s0,s4,ab2e0 <cccShutDown+0x44>
   ab318:	26520004 	addiu	s2,s2,4
   ab31c:	a2607798 	sb	zero,30616(s3)
   ab320:	8fbf0014 	lw	ra,20(sp)
   ab324:	8fb40010 	lw	s4,16(sp)
   ab328:	8fb3000c 	lw	s3,12(sp)
   ab32c:	8fb20008 	lw	s2,8(sp)
   ab330:	8fb10004 	lw	s1,4(sp)
   ab334:	8fb00000 	lw	s0,0(sp)
   ab338:	03e00008 	jr	ra
   ab33c:	27bd0018 	addiu	sp,sp,24

000ab340 <cccSetErrorCharUCS2>:
   ab340:	3c03002e 	lui	v1,0x2e
--
   abd28:	246377c0 	addiu	v1,v1,30656
   abd2c:	00021080 	sll	v0,v0,0x2
   abd30:	00431021 	addu	v0,v0,v1
   abd34:	2403ffff 	li	v1,-1
   abd38:	ac430000 	sw	v1,0(v0)
   abd3c:	03e00008 	jr	ra
   abd40:	00000000 	nop

000abd44 <oslAudioCallback_DeleteSound_WAV>:
   abd44:	1080001b 	beqz	a0,abdb4 <oslAudioCallback_DeleteSound_WAV+0x70>
   abd48:	00000000 	nop
   abd4c:	8c850044 	lw	a1,68(a0)
   abd50:	10a00018 	beqz	a1,abdb4 <oslAudioCallback_DeleteSound_WAV+0x70>
   abd54:	00000000 	nop
   abd58:	27bdfff0 	addiu	sp,sp,-16
   abd5c:	afbf000c 	sw	ra,12(sp)
   abd60:	8c82005c 	lw	v0,92(a0)
   abd64:	54400009 	bnezl	v0,abd8c <oslAudioCallback_DeleteSound_WAV+0x48>
   abd68:	afa40004 	sw	a0,4(sp)
   abd6c:	afa40000 	sw	a0,0(sp)
   abd70:	0c067e00 	jal	19f800 <free>
   abd74:	8ca40024 	lw	a0,36(a1)
   abd78:	8fa30000 	lw	v1,0(sp)
   abd7c:	8fbf000c 	lw	ra,12(sp)
   abd80:	8c640044 	lw	a0,68(v1)
   abd84:	08067e00 	j	19f800 <free>
   abd88:	27bd0010 	addiu	sp,sp,16
   abd8c:	8ca40010 	lw	a0,16(a1)
   abd90:	0c02858d 	jal	a1634 <VirtualFileClose>
   abd94:	afa50000 	sw	a1,0(sp)
   abd98:	8fa50000 	lw	a1,0(sp)
   abd9c:	8fa30004 	lw	v1,4(sp)
   abda0:	aca00010 	sw	zero,16(a1)
   abda4:	8fbf000c 	lw	ra,12(sp)
   abda8:	8c640044 	lw	a0,68(v1)
   abdac:	08067e00 	j	19f800 <free>
   abdb0:	27bd0010 	addiu	sp,sp,16
   abdb4:	03e00008 	jr	ra
   abdb8:	00000000 	nop

000abdbc <oslAudioChannelThread>:
--
   abf24:	aee30010 	sw	v1,16(s7)
   abf28:	00003812 	mflo	a3
   abf2c:	00873821 	addu	a3,a0,a3
   abf30:	1040ffd9 	beqz	v0,abe98 <oslAudioChannelThread+0xdc>
   abf34:	00e02025 	move	a0,a3
   abf38:	8d080000 	lw	t0,0(t0)
   abf3c:	5503ffd7 	bnel	t0,v1,abe9c <oslAudioChannelThread+0xe0>
   abf40:	02a60018 	mult	s5,a2
   abf44:	8fa40004 	lw	a0,4(sp)
   abf48:	00e02825 	move	a1,a3
   abf4c:	0040f809 	jalr	v0
   abf50:	afa70000 	sw	a3,0(sp)
   abf54:	1000ffd5 	b	abeac <oslAudioChannelThread+0xf0>
   abf58:	8fa70000 	lw	a3,0(sp)
   abf5c:	3c02002e 	lui	v0,0x2e
   abf60:	24427928 	addiu	v0,v0,31016
   abf64:	afa2000c 	sw	v0,12(sp)
   abf68:	02301021 	addu	v0,s1,s0
   abf6c:	2403fffe 	li	v1,-2
   abf70:	ac430000 	sw	v1,0(v0)
   abf74:	0c067e00 	jal	19f800 <free>
   abf78:	02d0b021 	addu	s6,s6,s0
   abf7c:	8fa20004 	lw	v0,4(sp)
   abf80:	8fa3000c 	lw	v1,12(sp)
   abf84:	02021021 	addu	v0,s0,v0
   abf88:	00021080 	sll	v0,v0,0x2
   abf8c:	00629021 	addu	s2,v1,v0
   abf90:	8e440008 	lw	a0,8(s2)
   abf94:	2414ffff 	li	s4,-1
   abf98:	aec00000 	sw	zero,0(s6)
   abf9c:	ae540004 	sw	s4,4(s2)
   abfa0:	10940004 	beq	a0,s4,abfb4 <oslAudioChannelThread+0x1f8>
   abfa4:	ae40000c 	sw	zero,12(s2)
   abfa8:	0c06fc22 	jal	1bf088 <sceAudioChRelease>
   abfac:	00000000 	nop
   abfb0:	ae540008 	sw	s4,8(s2)
   abfb4:	8fa20008 	lw	v0,8(sp)
   abfb8:	8fa30004 	lw	v1,4(sp)
   abfbc:	02308821 	addu	s1,s1,s0
   abfc0:	00002025 	move	a0,zero
   abfc4:	00431021 	addu	v0,v0,v1
--
   adfa4:	8fa403e8 	lw	a0,1000(sp)
   adfa8:	24840010 	addiu	a0,a0,16
   adfac:	1443fff0 	bne	v0,v1,adf70 <oslLoadSoundFileWAV+0x1fc>
   adfb0:	afa403e8 	sw	a0,1000(sp)
   adfb4:	8c470000 	lw	a3,0(v0)
   adfb8:	00804025 	move	t0,a0
   adfbc:	8c430004 	lw	v1,4(v0)
   adfc0:	ad070000 	sw	a3,0(t0)
   adfc4:	8fa703e8 	lw	a3,1000(sp)
   adfc8:	94420008 	lhu	v0,8(v0)
   adfcc:	3c05001c 	lui	a1,0x1c
   adfd0:	ace30004 	sw	v1,4(a3)
   adfd4:	8fa303e8 	lw	v1,1000(sp)
   adfd8:	240600af 	li	a2,175
   adfdc:	24a575b0 	addiu	a1,a1,30128
   adfe0:	03a02025 	move	a0,sp
   adfe4:	0c026bdc 	jal	9af70 <oslMessageBox>
   adfe8:	a4620008 	sh	v0,8(v1)
   adfec:	1000ff9d 	b	ade64 <oslLoadSoundFileWAV+0xf0>
   adff0:	3c02002e 	lui	v0,0x2e
   adff4:	0c067e00 	jal	19f800 <free>
   adff8:	02002025 	move	a0,s0
   adffc:	0c067e00 	jal	19f800 <free>
   ae000:	02202025 	move	a0,s1
   ae004:	0c02bb7e 	jal	aedf8 <oslHandleLoadNoFailError>
   ae008:	02a02025 	move	a0,s5
   ae00c:	1000ffac 	b	adec0 <oslLoadSoundFileWAV+0x14c>
   ae010:	00008025 	move	s0,zero
   ae014:	0c067e00 	jal	19f800 <free>
   ae018:	02002025 	move	a0,s0
   ae01c:	1000fff9 	b	ae004 <oslLoadSoundFileWAV+0x290>
   ae020:	00000000 	nop
   ae024:	0c067e00 	jal	19f800 <free>
   ae028:	02002025 	move	a0,s0
   ae02c:	0c02858d 	jal	a1634 <VirtualFileClose>
   ae030:	02802025 	move	a0,s4
   ae034:	0c067e00 	jal	19f800 <free>
   ae038:	02202025 	move	a0,s1
   ae03c:	1000fff1 	b	ae004 <oslLoadSoundFileWAV+0x290>
   ae040:	00000000 	nop

000ae044 <oslLoadSoundFile>:
   ae044:	1080002b 	beqz	a0,ae0f4 <oslLoadSoundFile+0xb0>
   ae048:	00000000 	nop
   ae04c:	27bdffe8 	addiu	sp,sp,-24
   ae050:	afb10010 	sw	s1,16(sp)
   ae054:	afb0000c 	sw	s0,12(sp)
   ae058:	afbf0014 	sw	ra,20(sp)
   ae05c:	00808025 	move	s0,a0
   ae060:	0c06789a 	jal	19e268 <strlen>
   ae064:	00a08825 	move	s1,a1
   ae068:	2c430004 	sltiu	v1,v0,4
   ae06c:	1460000f 	bnez	v1,ae0ac <oslLoadSoundFile+0x68>
   ae070:	8fbf0014 	lw	ra,20(sp)
   ae074:	2442fffc 	addiu	v0,v0,-4
   ae078:	3c05001c 	lui	a1,0x1c
   ae07c:	02022021 	addu	a0,s0,v0
--
   ae46c:	00e93821 	addu	a3,a3,t1
   ae470:	310a0008 	andi	t2,t0,0x8
   ae474:	00074823 	negu	t1,a3
   ae478:	012a380b 	movn	a3,t1,t2
   ae47c:	31080007 	andi	t0,t0,0x7
   ae480:	00671821 	addu	v1,v1,a3
   ae484:	00c84021 	addu	t0,a2,t0
   ae488:	810a0000 	lb	t2,0(t0)
   ae48c:	0071182c 	max	v1,v1,s1
   ae490:	0070182d 	min	v1,v1,s0
   ae494:	a4430000 	sh	v1,0(v0)
   ae498:	24a5ffff 	addiu	a1,a1,-1
   ae49c:	24420004 	addiu	v0,v0,4
   ae4a0:	014ba021 	addu	s4,t2,t3
   ae4a4:	14a0ffdb 	bnez	a1,ae414 <oslDecodeADMono+0x20c>
   ae4a8:	a443fffe 	sh	v1,-2(v0)
   ae4ac:	000e7080 	sll	t6,t6,0x2
   ae4b0:	01ee8021 	addu	s0,t7,t6
   ae4b4:	adb40008 	sw	s4,8(t5)
   ae4b8:	ada30004 	sw	v1,4(t5)
   ae4bc:	0c067e00 	jal	19f800 <free>
   ae4c0:	adac0000 	sw	t4,0(t5)
   ae4c4:	8fbf0034 	lw	ra,52(sp)
   ae4c8:	8fb50030 	lw	s5,48(sp)
   ae4cc:	8fb4002c 	lw	s4,44(sp)
   ae4d0:	8fb30028 	lw	s3,40(sp)
   ae4d4:	8fb20024 	lw	s2,36(sp)
   ae4d8:	8fb10020 	lw	s1,32(sp)
   ae4dc:	02001025 	move	v0,s0
   ae4e0:	8fb0001c 	lw	s0,28(sp)
   ae4e4:	03e00008 	jr	ra
   ae4e8:	27bd0038 	addiu	sp,sp,56
   ae4ec:	ada60000 	sw	a2,0(t5)
   ae4f0:	1000ff8a 	b	ae31c <oslDecodeADMono+0x114>
   ae4f4:	01e08025 	move	s0,t7

000ae4f8 <oslAudioCallback_AudioCallback_BGM>:
   ae4f8:	27bdffe8 	addiu	sp,sp,-24
   ae4fc:	000410c0 	sll	v0,a0,0x3
   ae500:	00441021 	addu	v0,v0,a0
   ae504:	afb00000 	sw	s0,0(sp)
--
   ae800:	8fb70060 	lw	s7,96(sp)
   ae804:	8fb6005c 	lw	s6,92(sp)
   ae808:	8fb50058 	lw	s5,88(sp)
   ae80c:	8fb40054 	lw	s4,84(sp)
   ae810:	8fb30050 	lw	s3,80(sp)
   ae814:	8fb2004c 	lw	s2,76(sp)
   ae818:	8fb10048 	lw	s1,72(sp)
   ae81c:	02001025 	move	v0,s0
   ae820:	8fb00044 	lw	s0,68(sp)
   ae824:	03e00008 	jr	ra
   ae828:	27bd0068 	addiu	sp,sp,104
   ae82c:	0040f809 	jalr	v0
   ae830:	00000000 	nop
   ae834:	0c06789a 	jal	19e268 <strlen>
   ae838:	02c02025 	move	a0,s6
   ae83c:	2c430040 	sltiu	v1,v0,64
   ae840:	14600016 	bnez	v1,ae89c <oslLoadSoundFileBGM+0x2c8>
   ae844:	24460001 	addiu	a2,v0,1
   ae848:	1000ffca 	b	ae774 <oslLoadSoundFileBGM+0x1a0>
   ae84c:	ae110040 	sw	s1,64(s0)
   ae850:	0c067e00 	jal	19f800 <free>
   ae854:	02002025 	move	a0,s0
   ae858:	0c02858d 	jal	a1634 <VirtualFileClose>
   ae85c:	02202025 	move	a0,s1
   ae860:	0c02bb7e 	jal	aedf8 <oslHandleLoadNoFailError>
   ae864:	02c02025 	move	a0,s6
   ae868:	8fbf0064 	lw	ra,100(sp)
   ae86c:	00008025 	move	s0,zero
   ae870:	8fb70060 	lw	s7,96(sp)
   ae874:	8fb6005c 	lw	s6,92(sp)
   ae878:	8fb50058 	lw	s5,88(sp)
   ae87c:	8fb40054 	lw	s4,84(sp)
   ae880:	8fb30050 	lw	s3,80(sp)
   ae884:	8fb2004c 	lw	s2,76(sp)
   ae888:	8fb10048 	lw	s1,72(sp)
   ae88c:	02001025 	move	v0,s0
   ae890:	8fb00044 	lw	s0,68(sp)
   ae894:	03e00008 	jr	ra
   ae898:	27bd0068 	addiu	sp,sp,104
   ae89c:	02c02825 	move	a1,s6
   ae8a0:	0c067a4c 	jal	19e930 <memcpy>
   ae8a4:	02002025 	move	a0,s0
   ae8a8:	1000ffb2 	b	ae774 <oslLoadSoundFileBGM+0x1a0>
   ae8ac:	ae110040 	sw	s1,64(s0)
   ae8b0:	0c067dfc 	jal	19f7f0 <malloc>
   ae8b4:	2404000c 	li	a0,12
   ae8b8:	1040ffe5 	beqz	v0,ae850 <oslLoadSoundFileBGM+0x27c>
   ae8bc:	0040b825 	move	s7,v0
   ae8c0:	1000ff73 	b	ae690 <oslLoadSoundFileBGM+0xbc>
   ae8c4:	ae020044 	sw	v0,68(s0)
   ae8c8:	0c067e00 	jal	19f800 <free>
   ae8cc:	02002025 	move	a0,s0
   ae8d0:	12e0ffe1 	beqz	s7,ae858 <oslLoadSoundFileBGM+0x284>
   ae8d4:	02e02025 	move	a0,s7
   ae8d8:	0c067e00 	jal	19f800 <free>
   ae8dc:	00000000 	nop
   ae8e0:	1000ffdd 	b	ae858 <oslLoadSoundFileBGM+0x284>
   ae8e4:	00000000 	nop

000ae8e8 <oslFindColorInPalette>:
   ae8e8:	27bdffe8 	addiu	sp,sp,-24
   ae8ec:	afbf0014 	sw	ra,20(sp)
   ae8f0:	afb40010 	sw	s4,16(sp)
   ae8f4:	afb3000c 	sw	s3,12(sp)
   ae8f8:	afb20008 	sw	s2,8(sp)
   ae8fc:	afb10004 	sw	s1,4(sp)
   ae900:	18a0001b 	blez	a1,ae970 <oslFindColorInPalette+0x88>
   ae904:	afb00000 	sw	s0,0(sp)
   ae908:	00c0a025 	move	s4,a2
   ae90c:	00808825 	move	s1,a0
   ae910:	00a09825 	move	s3,a1
   ae914:	10000003 	b	ae924 <oslFindColorInPalette+0x3c>
   ae918:	00008025 	move	s0,zero
   ae91c:	12700015 	beq	s3,s0,ae974 <oslFindColorInPalette+0x8c>
   ae920:	8fbf0014 	lw	ra,20(sp)
--
   af9a4:	0c067dfc 	jal	19f7f0 <malloc>
   af9a8:	24040400 	li	a0,1024
   af9ac:	3c03002f 	lui	v1,0x2f
   af9b0:	afa20028 	sw	v0,40(sp)
   af9b4:	afa30044 	sw	v1,68(sp)
   af9b8:	1440ff04 	bnez	v0,af5cc <oslLoadImageFileGIF+0x68>
   af9bc:	ac6281cc 	sw	v0,-32308(v1)
   af9c0:	1000ff59 	b	af728 <oslLoadImageFileGIF+0x1c4>
   af9c4:	0000f025 	move	s8,zero
   af9c8:	0c02686e 	jal	9a1b8 <oslSwizzleImage>
   af9cc:	03c02025 	move	a0,s8
   af9d0:	0c026108 	jal	98420 <oslUncacheImage>
   af9d4:	03c02025 	move	a0,s8
   af9d8:	17c0ff54 	bnez	s8,af72c <oslLoadImageFileGIF+0x1c8>
   af9dc:	8fbf006c 	lw	ra,108(sp)
   af9e0:	8fa4003c 	lw	a0,60(sp)
   af9e4:	0c02bb7e 	jal	aedf8 <oslHandleLoadNoFailError>
   af9e8:	0000f025 	move	s8,zero
   af9ec:	1000ff4f 	b	af72c <oslLoadImageFileGIF+0x1c8>
   af9f0:	8fbf006c 	lw	ra,108(sp)
   af9f4:	0c067e00 	jal	19f800 <free>
   af9f8:	8c4481cc 	lw	a0,-32308(v0)
   af9fc:	1000ff42 	b	af708 <oslLoadImageFileGIF+0x1a4>
   afa00:	00000000 	nop

000afa04 <DGifDecompressInput>:
   afa04:	27bdffe8 	addiu	sp,sp,-24
   afa08:	afb20008 	sw	s2,8(sp)
   afa0c:	afbf0014 	sw	ra,20(sp)
   afa10:	afb40010 	sw	s4,16(sp)
   afa14:	afb3000c 	sw	s3,12(sp)
   afa18:	afb10004 	sw	s1,4(sp)
   afa1c:	afb00000 	sw	s0,0(sp)
   afa20:	8c900048 	lw	s0,72(a0)
   afa24:	8e060018 	lw	a2,24(s0)
   afa28:	28c2000d 	slti	v0,a2,13
   afa2c:	10400026 	beqz	v0,afac8 <DGifDecompressInput+0xc4>
   afa30:	00809025 	move	s2,a0
   afa34:	8e03002c 	lw	v1,44(s0)
   afa38:	0066102a 	slt	v0,v1,a2
   afa3c:	10400071 	beqz	v0,afc04 <DGifDecompressInput+0x200>
--
   b0394:	ae330004 	sw	s3,4(s1)
   b0398:	ae220000 	sw	v0,0(s1)
   b039c:	ae20003c 	sw	zero,60(s1)
   b03a0:	ae000044 	sw	zero,68(s0)
   b03a4:	02403825 	move	a3,s2
   b03a8:	24060006 	li	a2,6
   b03ac:	24050001 	li	a1,1
   b03b0:	0c0691c6 	jal	1a4718 <fread>
   b03b4:	03a02025 	move	a0,sp
   b03b8:	24030006 	li	v1,6
   b03bc:	1443002c 	bne	v0,v1,b0470 <DGifOpenFileHandle+0x148>
   b03c0:	97a30000 	lhu	v1,0(sp)
   b03c4:	24024947 	li	v0,18759
   b03c8:	10620014 	beq	v1,v0,b041c <DGifOpenFileHandle+0xf4>
   b03cc:	a3a00006 	sb	zero,6(sp)
   b03d0:	12800002 	beqz	s4,b03dc <DGifOpenFileHandle+0xb4>
   b03d4:	24020067 	li	v0,103
   b03d8:	ae820000 	sw	v0,0(s4)
   b03dc:	0c068b1a 	jal	1a2c68 <fclose>
   b03e0:	02402025 	move	a0,s2
   b03e4:	0c067e00 	jal	19f800 <free>
   b03e8:	02202025 	move	a0,s1
   b03ec:	0c067e00 	jal	19f800 <free>
   b03f0:	02002025 	move	a0,s0
   b03f4:	00008025 	move	s0,zero
   b03f8:	8fbf001c 	lw	ra,28(sp)
   b03fc:	8fb40018 	lw	s4,24(sp)
   b0400:	8fb30014 	lw	s3,20(sp)
   b0404:	8fb20010 	lw	s2,16(sp)
   b0408:	8fb1000c 	lw	s1,12(sp)
   b040c:	02001025 	move	v0,s0
   b0410:	8fb00008 	lw	s0,8(sp)
   b0414:	03e00008 	jr	ra
   b0418:	27bd0020 	addiu	sp,sp,32
   b041c:	93a30002 	lbu	v1,2(sp)
   b0420:	24020046 	li	v0,70
   b0424:	1462ffea 	bne	v1,v0,b03d0 <DGifOpenFileHandle+0xa8>
   b0428:	00000000 	nop
   b042c:	0c02c02e 	jal	b00b8 <DGifGetScreenDesc>
   b0430:	02002025 	move	a0,s0
   b0434:	1040ffe9 	beqz	v0,b03dc <DGifOpenFileHandle+0xb4>
   b0438:	83a20004 	lb	v0,4(sp)
   b043c:	ae000040 	sw	zero,64(s0)
   b0440:	38420039 	xori	v0,v0,0x39
   b0444:	2c420001 	sltiu	v0,v0,1
   b0448:	a2226148 	sb	v0,24904(s1)
   b044c:	8fbf001c 	lw	ra,28(sp)
   b0450:	8fb40018 	lw	s4,24(sp)
   b0454:	8fb30014 	lw	s3,20(sp)
   b0458:	8fb20010 	lw	s2,16(sp)
   b045c:	8fb1000c 	lw	s1,12(sp)
   b0460:	02001025 	move	v0,s0
   b0464:	8fb00008 	lw	s0,8(sp)
   b0468:	03e00008 	jr	ra
   b046c:	27bd0020 	addiu	sp,sp,32
   b0470:	1280ffda 	beqz	s4,b03dc <DGifOpenFileHandle+0xb4>
   b0474:	24020066 	li	v0,102
   b0478:	02402025 	move	a0,s2
   b047c:	0c068b1a 	jal	1a2c68 <fclose>
   b0480:	ae820000 	sw	v0,0(s4)
   b0484:	0c067e00 	jal	19f800 <free>
   b0488:	02202025 	move	a0,s1
   b048c:	0c067e00 	jal	19f800 <free>
   b0490:	02002025 	move	a0,s0
   b0494:	1000ffd8 	b	b03f8 <DGifOpenFileHandle+0xd0>
   b0498:	00008025 	move	s0,zero
   b049c:	12800002 	beqz	s4,b04a8 <DGifOpenFileHandle+0x180>
   b04a0:	2402006d 	li	v0,109
   b04a4:	ae820000 	sw	v0,0(s4)
   b04a8:	0c06a2ed 	jal	1a8bb4 <close>
   b04ac:	02602025 	move	a0,s3
   b04b0:	0c067e00 	jal	19f800 <free>
   b04b4:	02002025 	move	a0,s0
   b04b8:	1000ffcf 	b	b03f8 <DGifOpenFileHandle+0xd0>
   b04bc:	00008025 	move	s0,zero
   b04c0:	12800002 	beqz	s4,b04cc <DGifOpenFileHandle+0x1a4>
   b04c4:	2402006d 	li	v0,109
   b04c8:	ae820000 	sw	v0,0(s4)
   b04cc:	0c06a2ed 	jal	1a8bb4 <close>
   b04d0:	02602025 	move	a0,s3
   b04d4:	1000ffc8 	b	b03f8 <DGifOpenFileHandle+0xd0>
   b04d8:	00008025 	move	s0,zero

000b04dc <DGifOpenFileName>:
   b04dc:	27bdfff8 	addiu	sp,sp,-8
   b04e0:	afb00000 	sw	s0,0(sp)
   b04e4:	00a08025 	move	s0,a1
   b04e8:	afbf0004 	sw	ra,4(sp)
   b04ec:	0c06a381 	jal	1a8e04 <open>
   b04f0:	00002825 	move	a1,zero
   b04f4:	2403ffff 	li	v1,-1
   b04f8:	10430006 	beq	v0,v1,b0514 <DGifOpenFileName+0x38>
--
   b0580:	00408825 	move	s1,v0
   b0584:	ae020048 	sw	v0,72(s0)
   b0588:	24020008 	li	v0,8
   b058c:	ae220000 	sw	v0,0(s1)
   b0590:	ae32003c 	sw	s2,60(s1)
   b0594:	1240003a 	beqz	s2,b0680 <DGifOpen+0x14c>
   b0598:	ae130044 	sw	s3,68(s0)
   b059c:	24060006 	li	a2,6
   b05a0:	03a02825 	move	a1,sp
   b05a4:	0240f809 	jalr	s2
   b05a8:	02002025 	move	a0,s0
   b05ac:	24030006 	li	v1,6
   b05b0:	1443002a 	bne	v0,v1,b065c <DGifOpen+0x128>
   b05b4:	97a30000 	lhu	v1,0(sp)
   b05b8:	24024947 	li	v0,18759
   b05bc:	10620012 	beq	v1,v0,b0608 <DGifOpen+0xd4>
   b05c0:	a3a00006 	sb	zero,6(sp)
   b05c4:	12800002 	beqz	s4,b05d0 <DGifOpen+0x9c>
   b05c8:	24020067 	li	v0,103
   b05cc:	ae820000 	sw	v0,0(s4)
   b05d0:	0c067e00 	jal	19f800 <free>
   b05d4:	02202025 	move	a0,s1
   b05d8:	0c067e00 	jal	19f800 <free>
   b05dc:	02002025 	move	a0,s0
   b05e0:	00008025 	move	s0,zero
   b05e4:	8fbf001c 	lw	ra,28(sp)
   b05e8:	8fb40018 	lw	s4,24(sp)
   b05ec:	8fb30014 	lw	s3,20(sp)
   b05f0:	8fb20010 	lw	s2,16(sp)
   b05f4:	8fb1000c 	lw	s1,12(sp)
   b05f8:	02001025 	move	v0,s0
   b05fc:	8fb00008 	lw	s0,8(sp)
   b0600:	03e00008 	jr	ra
   b0604:	27bd0020 	addiu	sp,sp,32
   b0608:	93a30002 	lbu	v1,2(sp)
   b060c:	24020046 	li	v0,70
   b0610:	1462ffec 	bne	v1,v0,b05c4 <DGifOpen+0x90>
   b0614:	00000000 	nop
   b0618:	0c02c02e 	jal	b00b8 <DGifGetScreenDesc>
   b061c:	02002025 	move	a0,s0
   b0620:	1040001e 	beqz	v0,b069c <DGifOpen+0x168>
   b0624:	83a20004 	lb	v0,4(sp)
   b0628:	ae000040 	sw	zero,64(s0)
   b062c:	38420039 	xori	v0,v0,0x39
   b0630:	2c420001 	sltiu	v0,v0,1
   b0634:	a2226148 	sb	v0,24904(s1)
   b0638:	8fbf001c 	lw	ra,28(sp)
   b063c:	8fb40018 	lw	s4,24(sp)
   b0640:	8fb30014 	lw	s3,20(sp)
   b0644:	8fb20010 	lw	s2,16(sp)
   b0648:	8fb1000c 	lw	s1,12(sp)
   b064c:	02001025 	move	v0,s0
   b0650:	8fb00008 	lw	s0,8(sp)
   b0654:	03e00008 	jr	ra
   b0658:	27bd0020 	addiu	sp,sp,32
   b065c:	1280ffdc 	beqz	s4,b05d0 <DGifOpen+0x9c>
   b0660:	24020066 	li	v0,102
   b0664:	02202025 	move	a0,s1
   b0668:	0c067e00 	jal	19f800 <free>
   b066c:	ae820000 	sw	v0,0(s4)
   b0670:	0c067e00 	jal	19f800 <free>
   b0674:	02002025 	move	a0,s0
   b0678:	1000ffda 	b	b05e4 <DGifOpen+0xb0>
   b067c:	00008025 	move	s0,zero
   b0680:	8e270038 	lw	a3,56(s1)
   b0684:	24060006 	li	a2,6
   b0688:	24050001 	li	a1,1
   b068c:	0c0691c6 	jal	1a4718 <fread>
   b0690:	03a02025 	move	a0,sp
   b0694:	1000ffc6 	b	b05b0 <DGifOpen+0x7c>
   b0698:	24030006 	li	v1,6
   b069c:	0c067e00 	jal	19f800 <free>
   b06a0:	02202025 	move	a0,s1
   b06a4:	0c067e00 	jal	19f800 <free>
   b06a8:	02002025 	move	a0,s0
   b06ac:	1280ffcc 	beqz	s4,b05e0 <DGifOpen+0xac>
   b06b0:	24020068 	li	v0,104
   b06b4:	ae820000 	sw	v0,0(s4)
   b06b8:	1000ffca 	b	b05e4 <DGifOpen+0xb0>
   b06bc:	00008025 	move	s0,zero
   b06c0:	1280ffc7 	beqz	s4,b05e0 <DGifOpen+0xac>
   b06c4:	2402006d 	li	v0,109
   b06c8:	ae820000 	sw	v0,0(s4)
   b06cc:	1000ffc5 	b	b05e4 <DGifOpen+0xb0>
   b06d0:	00008025 	move	s0,zero
   b06d4:	12800002 	beqz	s4,b06e0 <DGifOpen+0x1ac>
   b06d8:	2402006d 	li	v0,109
   b06dc:	ae820000 	sw	v0,0(s4)
   b06e0:	0c067e00 	jal	19f800 <free>
   b06e4:	02002025 	move	a0,s0
   b06e8:	1000ffbe 	b	b05e4 <DGifOpen+0xb0>
   b06ec:	00008025 	move	s0,zero

000b06f0 <DGifGetGifVersion>:
   b06f0:	8c820048 	lw	v0,72(a0)
   b06f4:	90426148 	lbu	v0,24904(v0)
   b06f8:	50400004 	beqzl	v0,b070c <DGifGetGifVersion+0x1c>
   b06fc:	3c02001c 	lui	v0,0x1c
   b0700:	3c02001c 	lui	v0,0x1c
   b0704:	03e00008 	jr	ra
   b0708:	24427930 	addiu	v0,v0,31024
   b070c:	03e00008 	jr	ra
   b0710:	24427938 	addiu	v0,v0,31032

000b0714 <DGifGetRecordType>:
   b0714:	8c860048 	lw	a2,72(a0)
   b0718:	8cc20000 	lw	v0,0(a2)
   b071c:	30420008 	andi	v0,v0,0x8
   b0720:	14400004 	bnez	v0,b0734 <DGifGetRecordType+0x20>
--
   b1860:	26040038 	addiu	a0,s0,56
   b1864:	0c02cbe2 	jal	b2f88 <GifFreeSavedImages>
   b1868:	02002025 	move	a0,s0
   b186c:	ae000034 	sw	zero,52(s0)
   b1870:	26040038 	addiu	a0,s0,56
   b1874:	0c02caff 	jal	b2bfc <GifFreeExtensions>
   b1878:	2605003c 	addiu	a1,s0,60
   b187c:	8e040048 	lw	a0,72(s0)
   b1880:	8c820000 	lw	v0,0(a0)
   b1884:	30420008 	andi	v0,v0,0x8
   b1888:	10400015 	beqz	v0,b18e0 <DGifCloseFile+0xe0>
   b188c:	00000000 	nop
   b1890:	8c820038 	lw	v0,56(a0)
   b1894:	10400006 	beqz	v0,b18b0 <DGifCloseFile+0xb0>
   b1898:	00000000 	nop
   b189c:	0c068b1a 	jal	1a2c68 <fclose>
   b18a0:	00402025 	move	a0,v0
   b18a4:	1440001c 	bnez	v0,b1918 <DGifCloseFile+0x118>
   b18a8:	00000000 	nop
   b18ac:	8e040048 	lw	a0,72(s0)
   b18b0:	0c067e00 	jal	19f800 <free>
   b18b4:	00000000 	nop
   b18b8:	0c067e00 	jal	19f800 <free>
   b18bc:	02002025 	move	a0,s0
   b18c0:	56200001 	bnezl	s1,b18c8 <DGifCloseFile+0xc8>
   b18c4:	ae200000 	sw	zero,0(s1)
   b18c8:	8fbf000c 	lw	ra,12(sp)
   b18cc:	8fb10008 	lw	s1,8(sp)
   b18d0:	8fb00004 	lw	s0,4(sp)
   b18d4:	24020001 	li	v0,1
   b18d8:	03e00008 	jr	ra
   b18dc:	27bd0010 	addiu	sp,sp,16
   b18e0:	12200003 	beqz	s1,b18f0 <DGifCloseFile+0xf0>
   b18e4:	2402006f 	li	v0,111
   b18e8:	ae220000 	sw	v0,0(s1)
   b18ec:	8e040048 	lw	a0,72(s0)
   b18f0:	0c067e00 	jal	19f800 <free>
   b18f4:	00000000 	nop
   b18f8:	0c067e00 	jal	19f800 <free>
   b18fc:	02002025 	move	a0,s0
   b1900:	8fbf000c 	lw	ra,12(sp)
   b1904:	8fb10008 	lw	s1,8(sp)
   b1908:	8fb00004 	lw	s0,4(sp)
   b190c:	00001025 	move	v0,zero
   b1910:	03e00008 	jr	ra
   b1914:	27bd0010 	addiu	sp,sp,16
   b1918:	1220fff4 	beqz	s1,b18ec <DGifCloseFile+0xec>
   b191c:	2402006e 	li	v0,110
   b1920:	ae220000 	sw	v0,0(s1)
   b1924:	1000fff2 	b	b18f0 <DGifCloseFile+0xf0>
   b1928:	8e040048 	lw	a0,72(s0)
   b192c:	03e00008 	jr	ra
   b1930:	00001025 	move	v0,zero

000b1934 <DGifGetCode>:
   b1934:	8c870048 	lw	a3,72(a0)
   b1938:	8ce30000 	lw	v1,0(a3)
   b193c:	30630008 	andi	v1,v1,0x8
   b1940:	14600005 	bnez	v1,b1958 <DGifGetCode+0x24>
--
   b1d00:	03a02025 	move	a0,sp
   b1d04:	1000ffe0 	b	b1c88 <DGifGetLZCodes+0xfc>
   b1d08:	24030001 	li	v1,1

000b1d0c <DGifDecreaseImageCounter>:
   b1d0c:	27bdfff8 	addiu	sp,sp,-8
   b1d10:	afb00000 	sw	s0,0(sp)
   b1d14:	afbf0004 	sw	ra,4(sp)
   b1d18:	8c830018 	lw	v1,24(a0)
   b1d1c:	00808025 	move	s0,a0
   b1d20:	8c840034 	lw	a0,52(a0)
   b1d24:	2463ffff 	addiu	v1,v1,-1
   b1d28:	000310c0 	sll	v0,v1,0x3
   b1d2c:	00431021 	addu	v0,v0,v1
   b1d30:	00021080 	sll	v0,v0,0x2
   b1d34:	ae030018 	sw	v1,24(s0)
   b1d38:	00821021 	addu	v0,a0,v0
   b1d3c:	8c420018 	lw	v0,24(v0)
   b1d40:	10400005 	beqz	v0,b1d58 <DGifDecreaseImageCounter+0x4c>
   b1d44:	00602825 	move	a1,v1
   b1d48:	0c067e00 	jal	19f800 <free>
   b1d4c:	00402025 	move	a0,v0
   b1d50:	8e040034 	lw	a0,52(s0)
   b1d54:	8e050018 	lw	a1,24(s0)
   b1d58:	0c02cc33 	jal	b30cc <openbsd_reallocarray>
   b1d5c:	24060024 	li	a2,36
   b1d60:	54400001 	bnezl	v0,b1d68 <DGifDecreaseImageCounter+0x5c>
   b1d64:	ae020034 	sw	v0,52(s0)
   b1d68:	8fbf0004 	lw	ra,4(sp)
   b1d6c:	8fb00000 	lw	s0,0(sp)
   b1d70:	03e00008 	jr	ra
   b1d74:	27bd0008 	addiu	sp,sp,8

000b1d78 <DGifSlurp>:
   b1d78:	27bdffc8 	addiu	sp,sp,-56
   b1d7c:	afb00010 	sw	s0,16(sp)
   b1d80:	afbf0034 	sw	ra,52(sp)
   b1d84:	afbe0030 	sw	s8,48(sp)
   b1d88:	afb7002c 	sw	s7,44(sp)
   b1d8c:	afb60028 	sw	s6,40(sp)
   b1d90:	afb50024 	sw	s5,36(sp)
--
   b1fbc:	00603025 	move	a2,v1
   b1fc0:	8e060024 	lw	a2,36(s0)
   b1fc4:	8ec20034 	lw	v0,52(s6)
   b1fc8:	00461023 	subu	v0,v0,a2
   b1fcc:	0055202b 	sltu	a0,v0,s5
   b1fd0:	1480001a 	bnez	a0,b203c <DGifSlurp+0x2c4>
   b1fd4:	aec20034 	sw	v0,52(s6)
   b1fd8:	2402006c 	li	v0,108
   b1fdc:	ae020040 	sw	v0,64(s0)
   b1fe0:	8e030018 	lw	v1,24(s0)
   b1fe4:	8e040034 	lw	a0,52(s0)
   b1fe8:	2463ffff 	addiu	v1,v1,-1
   b1fec:	000310c0 	sll	v0,v1,0x3
   b1ff0:	00431021 	addu	v0,v0,v1
   b1ff4:	00021080 	sll	v0,v0,0x2
   b1ff8:	ae030018 	sw	v1,24(s0)
   b1ffc:	00821021 	addu	v0,a0,v0
   b2000:	8c420018 	lw	v0,24(v0)
   b2004:	10400005 	beqz	v0,b201c <DGifSlurp+0x2a4>
   b2008:	00602825 	move	a1,v1
   b200c:	0c067e00 	jal	19f800 <free>
   b2010:	00402025 	move	a0,v0
   b2014:	8e040034 	lw	a0,52(s0)
   b2018:	8e050018 	lw	a1,24(s0)
   b201c:	0c02cc33 	jal	b30cc <openbsd_reallocarray>
   b2020:	24060024 	li	a2,36
   b2024:	5440ff8b 	bnezl	v0,b1e54 <DGifSlurp+0xdc>
   b2028:	ae020034 	sw	v0,52(s0)
   b202c:	1000ff8a 	b	b1e58 <DGifSlurp+0xe0>
   b2030:	00001025 	move	v0,zero
   b2034:	1000ffea 	b	b1fe0 <DGifSlurp+0x268>
   b2038:	ae020040 	sw	v0,64(s0)
   b203c:	00770018 	mult	v1,s7
   b2040:	02002025 	move	a0,s0
   b2044:	00002812 	mflo	a1
   b2048:	0c02bf03 	jal	afc0c <DGifDecompressLine>
   b204c:	00e52821 	addu	a1,a3,a1
   b2050:	5454ffe4 	bnel	v0,s4,b1fe4 <DGifSlurp+0x26c>
   b2054:	8e030018 	lw	v1,24(s0)
   b2058:	8ec20034 	lw	v0,52(s6)
   b205c:	54400011 	bnezl	v0,b20a4 <DGifSlurp+0x32c>
--
   b2428:	24060007 	li	a2,7
   b242c:	3a060100 	xori	a2,s0,0x100
   b2430:	0006302b 	sltu	a2,zero,a2
   b2434:	24c60008 	addiu	a2,a2,8
   b2438:	ac660004 	sw	a2,4(v1)
   b243c:	a0600008 	sb	zero,8(v1)
   b2440:	12200007 	beqz	s1,b2460 <GifMakeMapObject+0x11c>
   b2444:	02202825 	move	a1,s1
   b2448:	00103040 	sll	a2,s0,0x1
   b244c:	00d03021 	addu	a2,a2,s0
   b2450:	00402025 	move	a0,v0
   b2454:	0c067a4c 	jal	19e930 <memcpy>
   b2458:	afa30000 	sw	v1,0(sp)
   b245c:	8fa30000 	lw	v1,0(sp)
   b2460:	8fbf0014 	lw	ra,20(sp)
   b2464:	8fb10010 	lw	s1,16(sp)
   b2468:	8fb0000c 	lw	s0,12(sp)
   b246c:	00601025 	move	v0,v1
   b2470:	03e00008 	jr	ra
   b2474:	27bd0018 	addiu	sp,sp,24
   b2478:	0c067e00 	jal	19f800 <free>
   b247c:	00602025 	move	a0,v1
   b2480:	8fbf0014 	lw	ra,20(sp)
   b2484:	00001825 	move	v1,zero
   b2488:	8fb10010 	lw	s1,16(sp)
   b248c:	8fb0000c 	lw	s0,12(sp)
   b2490:	00601025 	move	v0,v1
   b2494:	03e00008 	jr	ra
   b2498:	27bd0018 	addiu	sp,sp,24
   b249c:	03e00008 	jr	ra
   b24a0:	00601025 	move	v0,v1
   b24a4:	1000ffbf 	b	b23a4 <GifMakeMapObject+0x60>
   b24a8:	24020004 	li	v0,4
   b24ac:	1000ffe2 	b	b2438 <GifMakeMapObject+0xf4>
   b24b0:	24060002 	li	a2,2
   b24b4:	1000ffbb 	b	b23a4 <GifMakeMapObject+0x60>
   b24b8:	24020010 	li	v0,16
   b24bc:	1000ffb9 	b	b23a4 <GifMakeMapObject+0x60>
   b24c0:	24020040 	li	v0,64
   b24c4:	1000ffb7 	b	b23a4 <GifMakeMapObject+0x60>
   b24c8:	24020080 	li	v0,128
   b24cc:	1000ffda 	b	b2438 <GifMakeMapObject+0xf4>
   b24d0:	24060001 	li	a2,1
   b24d4:	1000ffd8 	b	b2438 <GifMakeMapObject+0xf4>
   b24d8:	24060003 	li	a2,3
   b24dc:	1000ffd6 	b	b2438 <GifMakeMapObject+0xf4>
   b24e0:	24060004 	li	a2,4
   b24e4:	1000ffd4 	b	b2438 <GifMakeMapObject+0xf4>
   b24e8:	24060005 	li	a2,5
   b24ec:	1000ffd2 	b	b2438 <GifMakeMapObject+0xf4>
   b24f0:	24060006 	li	a2,6

000b24f4 <GifFreeMapObject>:
   b24f4:	1080000b 	beqz	a0,b2524 <GifFreeMapObject+0x30>
   b24f8:	00000000 	nop
   b24fc:	27bdfff0 	addiu	sp,sp,-16
   b2500:	afbf000c 	sw	ra,12(sp)
   b2504:	00801025 	move	v0,a0
   b2508:	8c84000c 	lw	a0,12(a0)
   b250c:	0c067e00 	jal	19f800 <free>
   b2510:	afa20000 	sw	v0,0(sp)
   b2514:	8fa40000 	lw	a0,0(sp)
   b2518:	8fbf000c 	lw	ra,12(sp)
   b251c:	08067e00 	j	19f800 <free>
   b2520:	27bd0010 	addiu	sp,sp,16
   b2524:	03e00008 	jr	ra
   b2528:	00000000 	nop

000b252c <GifUnionColorMap>:
   b252c:	27bdffd8 	addiu	sp,sp,-40
   b2530:	afb40018 	sw	s4,24(sp)
   b2534:	afb30014 	sw	s3,20(sp)
   b2538:	afbf0024 	sw	ra,36(sp)
   b253c:	afb60020 	sw	s6,32(sp)
   b2540:	afb5001c 	sw	s5,28(sp)
   b2544:	afb20010 	sw	s2,16(sp)
   b2548:	afb1000c 	sw	s1,12(sp)
   b254c:	afb00008 	sw	s0,8(sp)
   b2550:	8cb50000 	lw	s5,0(a1)
   b2554:	8c900000 	lw	s0,0(a0)
--
   b2908:	91660000 	lbu	a2,0(t3)
   b290c:	00101840 	sll	v1,s0,0x1
   b2910:	00701821 	addu	v1,v1,s0
   b2914:	00831821 	addu	v1,a0,v1
   b2918:	a0660000 	sb	a2,0(v1)
   b291c:	91670001 	lbu	a3,1(t3)
   b2920:	24420001 	addiu	v0,v0,1
   b2924:	26060001 	addiu	a2,s0,1
   b2928:	a0670001 	sb	a3,1(v1)
   b292c:	91680002 	lbu	t0,2(t3)
   b2930:	a0b00000 	sb	s0,0(a1)
   b2934:	8e470000 	lw	a3,0(s2)
   b2938:	a0680002 	sb	t0,2(v1)
   b293c:	0047182a 	slt	v1,v0,a3
   b2940:	1060ff94 	beqz	v1,b2794 <GifUnionColorMap+0x268>
   b2944:	24a50001 	addiu	a1,a1,1
   b2948:	00c08025 	move	s0,a2
   b294c:	2a030101 	slti	v1,s0,257
   b2950:	5460ff70 	bnezl	v1,b2714 <GifUnionColorMap+0x1e8>
   b2954:	8e4b000c 	lw	t3,12(s2)
   b2958:	0c067e00 	jal	19f800 <free>
   b295c:	afad0000 	sw	t5,0(sp)
   b2960:	0c067e00 	jal	19f800 <free>
   b2964:	8fa40000 	lw	a0,0(sp)
   b2968:	00006825 	move	t5,zero
   b296c:	8fbf0024 	lw	ra,36(sp)
   b2970:	8fb60020 	lw	s6,32(sp)
   b2974:	8fb5001c 	lw	s5,28(sp)
   b2978:	8fb40018 	lw	s4,24(sp)
   b297c:	8fb30014 	lw	s3,20(sp)
   b2980:	8fb20010 	lw	s2,16(sp)
   b2984:	8fb1000c 	lw	s1,12(sp)
   b2988:	8fb00008 	lw	s0,8(sp)
   b298c:	01a01025 	move	v0,t5
   b2990:	03e00008 	jr	ra
   b2994:	27bd0028 	addiu	sp,sp,40
   b2998:	24020001 	li	v0,1
   b299c:	1282ffcd 	beq	s4,v0,b28d4 <GifUnionColorMap+0x3a8>
   b29a0:	24100002 	li	s0,2
   b29a4:	14d0ff96 	bne	a2,s0,b2800 <GifUnionColorMap+0x2d4>
   b29a8:	24140001 	li	s4,1
   b29ac:	24060003 	li	a2,3
   b29b0:	02002825 	move	a1,s0
--
   b2a5c:	24100040 	li	s0,64
   b2a60:	1000fed7 	b	b25c0 <GifUnionColorMap+0x94>
   b2a64:	24020080 	li	v0,128
   b2a68:	24140004 	li	s4,4
   b2a6c:	1000ff60 	b	b27f0 <GifUnionColorMap+0x2c4>
   b2a70:	24100010 	li	s0,16
   b2a74:	24140005 	li	s4,5
   b2a78:	1000ff5d 	b	b27f0 <GifUnionColorMap+0x2c4>
   b2a7c:	24100020 	li	s0,32
   b2a80:	1000fef6 	b	b265c <GifUnionColorMap+0x130>
   b2a84:	24020001 	li	v0,1
   b2a88:	1000fef4 	b	b265c <GifUnionColorMap+0x130>
   b2a8c:	24020007 	li	v0,7
   b2a90:	1000fef2 	b	b265c <GifUnionColorMap+0x130>
   b2a94:	24020006 	li	v0,6
   b2a98:	1000ff8e 	b	b28d4 <GifUnionColorMap+0x3a8>
   b2a9c:	24100004 	li	s0,4
   b2aa0:	24100008 	li	s0,8
   b2aa4:	1000ff8b 	b	b28d4 <GifUnionColorMap+0x3a8>
   b2aa8:	24140003 	li	s4,3
   b2aac:	0c067e00 	jal	19f800 <free>
   b2ab0:	01a02025 	move	a0,t5
   b2ab4:	1000ffad 	b	b296c <GifUnionColorMap+0x440>
   b2ab8:	00006825 	move	t5,zero
   b2abc:	24100008 	li	s0,8
   b2ac0:	1000ff81 	b	b28c8 <GifUnionColorMap+0x39c>
   b2ac4:	24140003 	li	s4,3

000b2ac8 <GifApplyTranslation>:
   b2ac8:	8c83000c 	lw	v1,12(a0)
   b2acc:	8c820008 	lw	v0,8(a0)
   b2ad0:	00620018 	mult	v1,v0
   b2ad4:	00003812 	mflo	a3
   b2ad8:	18e00009 	blez	a3,b2b00 <GifApplyTranslation+0x38>
   b2adc:	00001825 	move	v1,zero
   b2ae0:	8c820018 	lw	v0,24(a0)
   b2ae4:	00431021 	addu	v0,v0,v1
   b2ae8:	90460000 	lbu	a2,0(v0)
   b2aec:	24630001 	addiu	v1,v1,1
   b2af0:	00a63021 	addu	a2,a1,a2
   b2af4:	90c60000 	lbu	a2,0(a2)
--
   b2bf8:	27bd0018 	addiu	sp,sp,24

000b2bfc <GifFreeExtensions>:
   b2bfc:	27bdfff0 	addiu	sp,sp,-16
   b2c00:	afb00000 	sw	s0,0(sp)
   b2c04:	8cb00000 	lw	s0,0(a1)
   b2c08:	afbf000c 	sw	ra,12(sp)
   b2c0c:	afb20008 	sw	s2,8(sp)
   b2c10:	1200001a 	beqz	s0,b2c7c <GifFreeExtensions+0x80>
   b2c14:	afb10004 	sw	s1,4(sp)
   b2c18:	8c830000 	lw	v1,0(a0)
   b2c1c:	00809025 	move	s2,a0
   b2c20:	00031040 	sll	v0,v1,0x1
   b2c24:	00431021 	addu	v0,v0,v1
   b2c28:	00021080 	sll	v0,v0,0x2
   b2c2c:	02021021 	addu	v0,s0,v0
   b2c30:	0202102b 	sltu	v0,s0,v0
   b2c34:	10400017 	beqz	v0,b2c94 <GifFreeExtensions+0x98>
   b2c38:	00a08825 	move	s1,a1
   b2c3c:	8e040004 	lw	a0,4(s0)
   b2c40:	0c067e00 	jal	19f800 <free>
   b2c44:	2610000c 	addiu	s0,s0,12
   b2c48:	8e430000 	lw	v1,0(s2)
   b2c4c:	8e240000 	lw	a0,0(s1)
   b2c50:	00031040 	sll	v0,v1,0x1
   b2c54:	00431021 	addu	v0,v0,v1
   b2c58:	00021080 	sll	v0,v0,0x2
   b2c5c:	00821021 	addu	v0,a0,v0
   b2c60:	0202102b 	sltu	v0,s0,v0
   b2c64:	5440fff6 	bnezl	v0,b2c40 <GifFreeExtensions+0x44>
   b2c68:	8e040004 	lw	a0,4(s0)
   b2c6c:	0c067e00 	jal	19f800 <free>
   b2c70:	00000000 	nop
   b2c74:	ae200000 	sw	zero,0(s1)
   b2c78:	ae400000 	sw	zero,0(s2)
   b2c7c:	8fbf000c 	lw	ra,12(sp)
   b2c80:	8fb20008 	lw	s2,8(sp)
   b2c84:	8fb10004 	lw	s1,4(sp)
   b2c88:	8fb00000 	lw	s0,0(sp)
   b2c8c:	03e00008 	jr	ra
   b2c90:	27bd0010 	addiu	sp,sp,16
   b2c94:	1000fff5 	b	b2c6c <GifFreeExtensions+0x70>
   b2c98:	02002025 	move	a0,s0

000b2c9c <FreeLastSavedImage>:
   b2c9c:	1080003c 	beqz	a0,b2d90 <FreeLastSavedImage+0xf4>
   b2ca0:	00000000 	nop
   b2ca4:	27bdfff0 	addiu	sp,sp,-16
   b2ca8:	afbf000c 	sw	ra,12(sp)
   b2cac:	afb10008 	sw	s1,8(sp)
   b2cb0:	afb00004 	sw	s0,4(sp)
   b2cb4:	8c910034 	lw	s1,52(a0)
   b2cb8:	52200031 	beqzl	s1,b2d80 <FreeLastSavedImage+0xe4>
   b2cbc:	8fbf000c 	lw	ra,12(sp)
   b2cc0:	8c830018 	lw	v1,24(a0)
   b2cc4:	2463ffff 	addiu	v1,v1,-1
   b2cc8:	000310c0 	sll	v0,v1,0x3
   b2ccc:	00431021 	addu	v0,v0,v1
   b2cd0:	00021080 	sll	v0,v0,0x2
   b2cd4:	ac830018 	sw	v1,24(a0)
   b2cd8:	02228821 	addu	s1,s1,v0
   b2cdc:	8e300014 	lw	s0,20(s1)
   b2ce0:	52000007 	beqzl	s0,b2d00 <FreeLastSavedImage+0x64>
   b2ce4:	8e240018 	lw	a0,24(s1)
   b2ce8:	0c067e00 	jal	19f800 <free>
   b2cec:	8e04000c 	lw	a0,12(s0)
   b2cf0:	0c067e00 	jal	19f800 <free>
   b2cf4:	02002025 	move	a0,s0
   b2cf8:	ae200014 	sw	zero,20(s1)
   b2cfc:	8e240018 	lw	a0,24(s1)
   b2d00:	50800004 	beqzl	a0,b2d14 <FreeLastSavedImage+0x78>
   b2d04:	8e300020 	lw	s0,32(s1)
   b2d08:	0c067e00 	jal	19f800 <free>
   b2d0c:	00000000 	nop
   b2d10:	8e300020 	lw	s0,32(s1)
   b2d14:	1200001a 	beqz	s0,b2d80 <FreeLastSavedImage+0xe4>
   b2d18:	8fbf000c 	lw	ra,12(sp)
   b2d1c:	8e23001c 	lw	v1,28(s1)
   b2d20:	00031040 	sll	v0,v1,0x1
   b2d24:	00431021 	addu	v0,v0,v1
   b2d28:	00021080 	sll	v0,v0,0x2
   b2d2c:	02021021 	addu	v0,s0,v0
   b2d30:	0202102b 	sltu	v0,s0,v0
   b2d34:	1040000d 	beqz	v0,b2d6c <FreeLastSavedImage+0xd0>
   b2d38:	02002025 	move	a0,s0
   b2d3c:	8e040004 	lw	a0,4(s0)
   b2d40:	0c067e00 	jal	19f800 <free>
   b2d44:	2610000c 	addiu	s0,s0,12
   b2d48:	8e23001c 	lw	v1,28(s1)
   b2d4c:	8e240020 	lw	a0,32(s1)
   b2d50:	00031040 	sll	v0,v1,0x1
   b2d54:	00431021 	addu	v0,v0,v1
   b2d58:	00021080 	sll	v0,v0,0x2
   b2d5c:	00821021 	addu	v0,a0,v0
   b2d60:	0202102b 	sltu	v0,s0,v0
   b2d64:	5440fff6 	bnezl	v0,b2d40 <FreeLastSavedImage+0xa4>
   b2d68:	8e040004 	lw	a0,4(s0)
   b2d6c:	0c067e00 	jal	19f800 <free>
   b2d70:	00000000 	nop
   b2d74:	ae200020 	sw	zero,32(s1)
   b2d78:	ae20001c 	sw	zero,28(s1)
   b2d7c:	8fbf000c 	lw	ra,12(sp)
   b2d80:	8fb10008 	lw	s1,8(sp)
   b2d84:	8fb00004 	lw	s0,4(sp)
   b2d88:	03e00008 	jr	ra
   b2d8c:	27bd0010 	addiu	sp,sp,16
   b2d90:	03e00008 	jr	ra
   b2d94:	00000000 	nop

000b2d98 <GifMakeSavedImage>:
   b2d98:	27bdfff0 	addiu	sp,sp,-16
   b2d9c:	afb20008 	sw	s2,8(sp)
   b2da0:	afb10004 	sw	s1,4(sp)
   b2da4:	afbf000c 	sw	ra,12(sp)
   b2da8:	afb00000 	sw	s0,0(sp)
   b2dac:	00809025 	move	s2,a0
   b2db0:	8c840034 	lw	a0,52(a0)
   b2db4:	10800059 	beqz	a0,b2f1c <GifMakeSavedImage+0x184>
--
   b2f8c:	00000000 	nop
   b2f90:	27bdfff0 	addiu	sp,sp,-16
   b2f94:	afbf000c 	sw	ra,12(sp)
   b2f98:	afb20008 	sw	s2,8(sp)
   b2f9c:	afb10004 	sw	s1,4(sp)
   b2fa0:	afb00000 	sw	s0,0(sp)
   b2fa4:	8c910034 	lw	s1,52(a0)
   b2fa8:	5220003f 	beqzl	s1,b30a8 <GifFreeSavedImages+0x120>
   b2fac:	8fbf000c 	lw	ra,12(sp)
   b2fb0:	8c830018 	lw	v1,24(a0)
   b2fb4:	000310c0 	sll	v0,v1,0x3
   b2fb8:	00431021 	addu	v0,v0,v1
   b2fbc:	00021080 	sll	v0,v0,0x2
   b2fc0:	02221021 	addu	v0,s1,v0
   b2fc4:	0222102b 	sltu	v0,s1,v0
   b2fc8:	1040003e 	beqz	v0,b30c4 <GifFreeSavedImages+0x13c>
   b2fcc:	00809025 	move	s2,a0
   b2fd0:	8e300014 	lw	s0,20(s1)
   b2fd4:	52000007 	beqzl	s0,b2ff4 <GifFreeSavedImages+0x6c>
   b2fd8:	8e240018 	lw	a0,24(s1)
   b2fdc:	0c067e00 	jal	19f800 <free>
   b2fe0:	8e04000c 	lw	a0,12(s0)
   b2fe4:	0c067e00 	jal	19f800 <free>
   b2fe8:	02002025 	move	a0,s0
   b2fec:	ae200014 	sw	zero,20(s1)
   b2ff0:	8e240018 	lw	a0,24(s1)
   b2ff4:	50800004 	beqzl	a0,b3008 <GifFreeSavedImages+0x80>
   b2ff8:	8e300020 	lw	s0,32(s1)
   b2ffc:	0c067e00 	jal	19f800 <free>
   b3000:	00000000 	nop
   b3004:	8e300020 	lw	s0,32(s1)
   b3008:	5200001a 	beqzl	s0,b3074 <GifFreeSavedImages+0xec>
   b300c:	8e430018 	lw	v1,24(s2)
   b3010:	8e23001c 	lw	v1,28(s1)
   b3014:	00031040 	sll	v0,v1,0x1
   b3018:	00431021 	addu	v0,v0,v1
   b301c:	00021080 	sll	v0,v0,0x2
   b3020:	02021021 	addu	v0,s0,v0
   b3024:	0202102b 	sltu	v0,s0,v0
   b3028:	1040000d 	beqz	v0,b3060 <GifFreeSavedImages+0xd8>
   b302c:	02002025 	move	a0,s0
   b3030:	8e040004 	lw	a0,4(s0)
   b3034:	0c067e00 	jal	19f800 <free>
   b3038:	2610000c 	addiu	s0,s0,12
   b303c:	8e23001c 	lw	v1,28(s1)
   b3040:	8e240020 	lw	a0,32(s1)
   b3044:	00031040 	sll	v0,v1,0x1
   b3048:	00431021 	addu	v0,v0,v1
   b304c:	00021080 	sll	v0,v0,0x2
   b3050:	00821021 	addu	v0,a0,v0
   b3054:	0202102b 	sltu	v0,s0,v0
   b3058:	5440fff6 	bnezl	v0,b3034 <GifFreeSavedImages+0xac>
   b305c:	8e040004 	lw	a0,4(s0)
   b3060:	0c067e00 	jal	19f800 <free>
   b3064:	00000000 	nop
   b3068:	ae200020 	sw	zero,32(s1)
   b306c:	ae20001c 	sw	zero,28(s1)
   b3070:	8e430018 	lw	v1,24(s2)
   b3074:	8e440034 	lw	a0,52(s2)
   b3078:	26310024 	addiu	s1,s1,36
   b307c:	000310c0 	sll	v0,v1,0x3
   b3080:	00431021 	addu	v0,v0,v1
   b3084:	00021080 	sll	v0,v0,0x2
   b3088:	00821021 	addu	v0,a0,v0
   b308c:	0222102b 	sltu	v0,s1,v0
   b3090:	5440ffd0 	bnezl	v0,b2fd4 <GifFreeSavedImages+0x4c>
   b3094:	8e300014 	lw	s0,20(s1)
   b3098:	0c067e00 	jal	19f800 <free>
   b309c:	00000000 	nop
   b30a0:	ae400034 	sw	zero,52(s2)
   b30a4:	8fbf000c 	lw	ra,12(sp)
   b30a8:	8fb20008 	lw	s2,8(sp)
   b30ac:	8fb10004 	lw	s1,4(sp)
   b30b0:	8fb00000 	lw	s0,0(sp)
   b30b4:	03e00008 	jr	ra
   b30b8:	27bd0010 	addiu	sp,sp,16
   b30bc:	03e00008 	jr	ra
   b30c0:	00000000 	nop
   b30c4:	1000fff4 	b	b3098 <GifFreeSavedImages+0x110>
   b30c8:	02202025 	move	a0,s1

000b30cc <openbsd_reallocarray>:
   b30cc:	3c020001 	lui	v0,0x1
   b30d0:	00a2182b 	sltu	v1,a1,v0
   b30d4:	10600013 	beqz	v1,b3124 <openbsd_reallocarray+0x58>
   b30d8:	00a60019 	multu	a1,a2
   b30dc:	00c2102b 	sltu	v0,a2,v0
   b30e0:	14400018 	bnez	v0,b3144 <openbsd_reallocarray+0x78>
--
   b44d0:	24060114 	li	a2,276
   b44d4:	8fbf000c 	lw	ra,12(sp)
   b44d8:	02002025 	move	a0,s0
   b44dc:	8fb00008 	lw	s0,8(sp)
   b44e0:	00402825 	move	a1,v0
   b44e4:	0802f4ee 	j	bd3b8 <png_free>
   b44e8:	27bd0010 	addiu	sp,sp,16
   b44ec:	03e00008 	jr	ra
   b44f0:	00000000 	nop

000b44f4 <png_info_init_3>:
   b44f4:	00801825 	move	v1,a0
   b44f8:	8c840000 	lw	a0,0(a0)
   b44fc:	10800019 	beqz	a0,b4564 <png_info_init_3+0x70>
   b4500:	2ca50114 	sltiu	a1,a1,276
   b4504:	10a00012 	beqz	a1,b4550 <png_info_init_3+0x5c>
   b4508:	24060114 	li	a2,276
   b450c:	27bdfff0 	addiu	sp,sp,-16
   b4510:	afbf000c 	sw	ra,12(sp)
   b4514:	ac600000 	sw	zero,0(v1)
   b4518:	0c067e00 	jal	19f800 <free>
   b451c:	afa30000 	sw	v1,0(sp)
   b4520:	00002025 	move	a0,zero
   b4524:	0c02f431 	jal	bd0c4 <png_malloc_base>
   b4528:	24050114 	li	a1,276
   b452c:	1040000a 	beqz	v0,b4558 <png_info_init_3+0x64>
   b4530:	00402025 	move	a0,v0
   b4534:	8fa30000 	lw	v1,0(sp)
   b4538:	8fbf000c 	lw	ra,12(sp)
   b453c:	24060114 	li	a2,276
   b4540:	ac620000 	sw	v0,0(v1)
   b4544:	00002825 	move	a1,zero
   b4548:	08067a05 	j	19e814 <memset>
   b454c:	27bd0010 	addiu	sp,sp,16
   b4550:	08067a05 	j	19e814 <memset>
   b4554:	00002825 	move	a1,zero
   b4558:	8fbf000c 	lw	ra,12(sp)
   b455c:	03e00008 	jr	ra
   b4560:	27bd0010 	addiu	sp,sp,16
   b4564:	03e00008 	jr	ra
   b4568:	00000000 	nop
--
   bcfe8:	8fa50310 	lw	a1,784(sp)
   bcfec:	24a50010 	addiu	a1,a1,16
   bcff0:	1443fff0 	bne	v0,v1,bcfb4 <png_destroy_png_struct+0x18>
   bcff4:	afa50310 	sw	a1,784(sp)
   bcff8:	24060310 	li	a2,784
   bcffc:	0c067a05 	jal	19e814 <memset>
   bd000:	00002825 	move	a1,zero
   bd004:	00402025 	move	a0,v0
   bd008:	8fa202b0 	lw	v0,688(sp)
   bd00c:	1040000a 	beqz	v0,bd038 <png_destroy_png_struct+0x9c>
   bd010:	00802825 	move	a1,a0
   bd014:	0040f809 	jalr	v0
   bd018:	03a02025 	move	a0,sp
   bd01c:	0c02ea7d 	jal	ba9f4 <png_free_jmpbuf>
   bd020:	03a02025 	move	a0,sp
   bd024:	8fbf031c 	lw	ra,796(sp)
   bd028:	03e00008 	jr	ra
   bd02c:	27bd0320 	addiu	sp,sp,800
   bd030:	03e00008 	jr	ra
   bd034:	00000000 	nop
   bd038:	0c067e00 	jal	19f800 <free>
   bd03c:	00000000 	nop
   bd040:	1000fff6 	b	bd01c <png_destroy_png_struct+0x80>
   bd044:	00000000 	nop

000bd048 <png_calloc>:
   bd048:	50800019 	beqzl	a0,bd0b0 <png_calloc+0x68>
   bd04c:	00002025 	move	a0,zero
   bd050:	8c8202ac 	lw	v0,684(a0)
   bd054:	27bdfff0 	addiu	sp,sp,-16
   bd058:	afb00008 	sw	s0,8(sp)
   bd05c:	afbf000c 	sw	ra,12(sp)
   bd060:	1040000d 	beqz	v0,bd098 <png_calloc+0x50>
   bd064:	00808025 	move	s0,a0
   bd068:	0040f809 	jalr	v0
   bd06c:	afa50000 	sw	a1,0(sp)
   bd070:	8fa60000 	lw	a2,0(sp)
   bd074:	00402025 	move	a0,v0
   bd078:	5080000f 	beqzl	a0,bd0b8 <png_calloc+0x70>
   bd07c:	3c05001d 	lui	a1,0x1d
   bd080:	0c067a05 	jal	19e814 <memset>
--
   ed5f0:	00001025 	move	v0,zero
   ed5f4:	ad220008 	sw	v0,8(t1)
   ed5f8:	ad22000c 	sw	v0,12(t1)
   ed5fc:	25590001 	addiu	t9,t2,1
   ed600:	1000ffd4 	b	ed554 <chain_prepare_for_write_+0x1c0>
   ed604:	00404025 	move	t0,v0
   ed608:	8dcc0004 	lw	t4,4(t6)
   ed60c:	8dcd0008 	lw	t5,8(t6)
   ed610:	110e001a 	beq	t0,t6,ed67c <chain_prepare_for_write_+0x2e8>
   ed614:	8d2f0010 	lw	t7,16(t1)
   ed618:	ad8d0008 	sw	t5,8(t4)
   ed61c:	25e8ffff 	addiu	t0,t7,-1
   ed620:	ad2c000c 	sw	t4,12(t1)
   ed624:	8d850000 	lw	a1,0(t4)
   ed628:	24180001 	li	t8,1
   ed62c:	acb80004 	sw	t8,4(a1)
   ed630:	ad280010 	sw	t0,16(t1)
   ed634:	afa90000 	sw	t1,0(sp)
   ed638:	0c03db4c 	jal	f6d30 <FLAC__metadata_object_delete>
   ed63c:	afae0004 	sw	t6,4(sp)
   ed640:	0c067e00 	jal	19f800 <free>
   ed644:	8fa40004 	lw	a0,4(sp)
   ed648:	8fa90000 	lw	t1,0(sp)
   ed64c:	8d280008 	lw	t0,8(t1)
   ed650:	1100ffd3 	beqz	t0,ed5a0 <chain_prepare_for_write_+0x20c>
   ed654:	01007025 	move	t6,t0
   ed658:	00001025 	move	v0,zero
   ed65c:	8dc40000 	lw	a0,0(t6)
   ed660:	8dce0008 	lw	t6,8(t6)
   ed664:	8c8a0008 	lw	t2,8(a0)
   ed668:	25590004 	addiu	t9,t2,4
   ed66c:	15c0fffb 	bnez	t6,ed65c <chain_prepare_for_write_+0x2c8>
   ed670:	03221021 	addu	v0,t9,v0
   ed674:	1000ff70 	b	ed438 <chain_prepare_for_write_+0xa4>
   ed678:	8f8f81fc 	lw	t7,-32260(gp)
   ed67c:	ad2d0008 	sw	t5,8(t1)
   ed680:	ad2c000c 	sw	t4,12(t1)
   ed684:	1180ffea 	beqz	t4,ed630 <chain_prepare_for_write_+0x29c>
   ed688:	25e8ffff 	addiu	t0,t7,-1
   ed68c:	1000ffe6 	b	ed628 <chain_prepare_for_write_+0x294>
   ed690:	8d850000 	lw	a1,0(t4)
--
   ed7fc:	03e42825 	or	a1,ra,a0
   ed800:	9049fffa 	lbu	t1,-6(v0)
   ed804:	00055200 	sll	t2,a1,0x8
   ed808:	022a3025 	or	a2,s1,t2
   ed80c:	904bfff9 	lbu	t3,-7(v0)
   ed810:	00066200 	sll	t4,a2,0x8
   ed814:	012c6825 	or	t5,t1,t4
   ed818:	904ffff8 	lbu	t7,-8(v0)
   ed81c:	000d7200 	sll	t6,t5,0x8
   ed820:	016ec025 	or	t8,t3,t6
   ed824:	0018ca00 	sll	t9,t8,0x8
   ed828:	2442fff8 	addiu	v0,v0,-8
   ed82c:	17a2ffe7 	bne	sp,v0,ed7cc <read_metadata_block_data_vorbis_comment_entry_cb_+0x118>
   ed830:	01f93025 	or	a2,t7,t9
   ed834:	00e6382b 	sltu	a3,a3,a2
   ed838:	14e0002a 	bnez	a3,ed8e4 <read_metadata_block_data_vorbis_comment_entry_cb_+0x230>
   ed83c:	ae060000 	sw	a2,0(s0)
   ed840:	8e040004 	lw	a0,4(s0)
   ed844:	50800005 	beqzl	a0,ed85c <read_metadata_block_data_vorbis_comment_entry_cb_+0x1a8>
   ed848:	24c40001 	addiu	a0,a2,1
   ed84c:	0c067e00 	jal	19f800 <free>
   ed850:	00000000 	nop
   ed854:	8e060000 	lw	a2,0(s0)
   ed858:	24c40001 	addiu	a0,a2,1
   ed85c:	0086102b 	sltu	v0,a0,a2
   ed860:	54400033 	bnezl	v0,ed930 <read_metadata_block_data_vorbis_comment_entry_cb_+0x27c>
   ed864:	ae000004 	sw	zero,4(s0)
   ed868:	0c067dfc 	jal	19f7f0 <malloc>
   ed86c:	afa60008 	sw	a2,8(sp)
   ed870:	00402025 	move	a0,v0
   ed874:	1040002e 	beqz	v0,ed930 <read_metadata_block_data_vorbis_comment_entry_cb_+0x27c>
   ed878:	ae020004 	sw	v0,4(s0)
   ed87c:	8fa60008 	lw	a2,8(sp)
   ed880:	10c00029 	beqz	a2,ed928 <read_metadata_block_data_vorbis_comment_entry_cb_+0x274>
   ed884:	02403825 	move	a3,s2
   ed888:	0260f809 	jalr	s3
   ed88c:	24050001 	li	a1,1
   ed890:	8e130000 	lw	s3,0(s0)
   ed894:	5453000c 	bnel	v0,s3,ed8c8 <read_metadata_block_data_vorbis_comment_entry_cb_+0x214>
   ed898:	24020006 	li	v0,6
   ed89c:	8e040004 	lw	a0,4(s0)
--
   edae8:	918d0006 	lbu	t5,6(t4)
   edaec:	000b7200 	sll	t6,t3,0x8
   edaf0:	012e7825 	or	t7,t1,t6
   edaf4:	933f0007 	lbu	ra,7(t9)
   edaf8:	000fc200 	sll	t8,t7,0x8
   edafc:	01b81025 	or	v0,t5,t8
   edb00:	00021a00 	sll	v1,v0,0x8
   edb04:	27250008 	addiu	a1,t9,8
   edb08:	afa50008 	sw	a1,8(sp)
   edb0c:	14a7ffdf 	bne	a1,a3,eda8c <read_metadata_block_data_picture_cstring_cb_+0x154>
   edb10:	03e38025 	or	s0,ra,v1
   edb14:	8f8681fc 	lw	a2,-32260(gp)
   edb18:	24070001 	li	a3,1
   edb1c:	00c72004 	sllv	a0,a3,a2
   edb20:	0090402b 	sltu	t0,a0,s0
   edb24:	15000039 	bnez	t0,edc0c <read_metadata_block_data_picture_cstring_cb_+0x2d4>
   edb28:	ae300000 	sw	s0,0(s1)
   edb2c:	8e440000 	lw	a0,0(s2)
   edb30:	5080000b 	beqzl	a0,edb60 <read_metadata_block_data_picture_cstring_cb_+0x228>
   edb34:	26040001 	addiu	a0,s0,1
   edb38:	0c067e00 	jal	19f800 <free>
   edb3c:	00000000 	nop
   edb40:	8e300000 	lw	s0,0(s1)
   edb44:	26040001 	addiu	a0,s0,1
   edb48:	0090482b 	sltu	t1,a0,s0
   edb4c:	11200004 	beqz	t1,edb60 <read_metadata_block_data_picture_cstring_cb_+0x228>
   edb50:	00000000 	nop
   edb54:	ae400000 	sw	zero,0(s2)
   edb58:	10000010 	b	edb9c <read_metadata_block_data_picture_cstring_cb_+0x264>
   edb5c:	2402000b 	li	v0,11
   edb60:	0c067dfc 	jal	19f7f0 <malloc>
   edb64:	00000000 	nop
   edb68:	00402025 	move	a0,v0
   edb6c:	1040fffa 	beqz	v0,edb58 <read_metadata_block_data_picture_cstring_cb_+0x220>
   edb70:	ae420000 	sw	v0,0(s2)
   edb74:	12000019 	beqz	s0,edbdc <read_metadata_block_data_picture_cstring_cb_+0x2a4>
   edb78:	02603825 	move	a3,s3
   edb7c:	02003025 	move	a2,s0
   edb80:	0280f809 	jalr	s4
   edb84:	24050001 	li	a1,1
   edb88:	8e330000 	lw	s3,0(s1)
--
   f0c5c:	ae000008 	sw	zero,8(s0)
   f0c60:	10600003 	beqz	v1,f0c70 <chain_read_ogg_metadata_cb_+0x64>
   f0c64:	ac440004 	sw	a0,4(v0)
   f0c68:	8c620000 	lw	v0,0(v1)
   f0c6c:	ac400004 	sw	zero,4(v0)
   f0c70:	8e250008 	lw	a1,8(s1)
   f0c74:	50a00003 	beqzl	a1,f0c84 <chain_read_ogg_metadata_cb_+0x78>
   f0c78:	ae300008 	sw	s0,8(s1)
   f0c7c:	ac700008 	sw	s0,8(v1)
   f0c80:	ae030004 	sw	v1,4(s0)
   f0c84:	8e260010 	lw	a2,16(s1)
   f0c88:	ae30000c 	sw	s0,12(s1)
   f0c8c:	24c70001 	addiu	a3,a2,1
   f0c90:	ae270010 	sw	a3,16(s1)
   f0c94:	8fbf000c 	lw	ra,12(sp)
   f0c98:	8fb20008 	lw	s2,8(sp)
   f0c9c:	8fb10004 	lw	s1,4(sp)
   f0ca0:	8fb00000 	lw	s0,0(sp)
   f0ca4:	03e00008 	jr	ra
   f0ca8:	27bd0010 	addiu	sp,sp,16
   f0cac:	0c067e00 	jal	19f800 <free>
   f0cb0:	02002025 	move	a0,s0
   f0cb4:	2408000b 	li	t0,11
   f0cb8:	1000fff6 	b	f0c94 <chain_read_ogg_metadata_cb_+0x88>
   f0cbc:	ae280014 	sw	t0,20(s1)

000f0cc0 <simple_iterator_pop_>:
   f0cc0:	8c83008c 	lw	v1,140(a0)
   f0cc4:	27bdfff0 	addiu	sp,sp,-16
   f0cc8:	afb00008 	sw	s0,8(sp)
   f0ccc:	00032880 	sll	a1,v1,0x2
   f0cd0:	00808025 	move	s0,a0
   f0cd4:	02053821 	addu	a3,s0,a1
   f0cd8:	8c840000 	lw	a0,0(a0)
   f0cdc:	8ce50070 	lw	a1,112(a3)
   f0ce0:	2468ffff 	addiu	t0,v1,-1
   f0ce4:	afbf000c 	sw	ra,12(sp)
   f0ce8:	00003025 	move	a2,zero
   f0cec:	0c069370 	jal	1a4dc0 <fseeko>
   f0cf0:	ae08008c 	sw	t0,140(s0)
   f0cf4:	10400007 	beqz	v0,f0d14 <simple_iterator_pop_+0x54>
--
   f1434:	8fa20404 	lw	v0,1028(sp)
   f1438:	3403a000 	li	v1,0xa000
   f143c:	3044f000 	andi	a0,v0,0xf000
   f1440:	1083001d 	beq	a0,v1,f14b8 <transport_tempfile_+0xd4>
   f1444:	03a02825 	move	a1,sp
   f1448:	8e440000 	lw	a0,0(s2)
   f144c:	0c068ab0 	jal	1a2ac0 <rename>
   f1450:	02602825 	move	a1,s3
   f1454:	14400043 	bnez	v0,f1564 <transport_tempfile_+0x180>
   f1458:	8e240000 	lw	a0,0(s1)
   f145c:	50800005 	beqzl	a0,f1474 <transport_tempfile_+0x90>
   f1460:	8e440000 	lw	a0,0(s2)
   f1464:	0c068b1a 	jal	1a2c68 <fclose>
   f1468:	00000000 	nop
   f146c:	ae200000 	sw	zero,0(s1)
   f1470:	8e440000 	lw	a0,0(s2)
   f1474:	10800007 	beqz	a0,f1494 <transport_tempfile_+0xb0>
   f1478:	8fbf046c 	lw	ra,1132(sp)
   f147c:	0c06a413 	jal	1a904c <unlink>
   f1480:	00000000 	nop
   f1484:	0c067e00 	jal	19f800 <free>
   f1488:	8e440000 	lw	a0,0(s2)
   f148c:	ae400000 	sw	zero,0(s2)
   f1490:	8fbf046c 	lw	ra,1132(sp)
   f1494:	24100001 	li	s0,1
   f1498:	8fb40468 	lw	s4,1128(sp)
   f149c:	8fb30464 	lw	s3,1124(sp)
   f14a0:	8fb20460 	lw	s2,1120(sp)
   f14a4:	8fb1045c 	lw	s1,1116(sp)
   f14a8:	02001025 	move	v0,s0
   f14ac:	8fb00458 	lw	s0,1112(sp)
   f14b0:	03e00008 	jr	ra
   f14b4:	27bd0470 	addiu	sp,sp,1136
   f14b8:	240603ff 	li	a2,1023
   f14bc:	0c0675ca 	jal	19d728 <readlink>
   f14c0:	02602025 	move	a0,s3
   f14c4:	240503ff 	li	a1,1023
   f14c8:	10450007 	beq	v0,a1,f14e8 <transport_tempfile_+0x104>
   f14cc:	03a23021 	addu	a2,sp,v0
   f14d0:	8e440000 	lw	a0,0(s2)
   f14d4:	03a02825 	move	a1,sp
   f14d8:	0c068ab0 	jal	1a2ac0 <rename>
   f14dc:	a0c00000 	sb	zero,0(a2)
   f14e0:	1040ffec 	beqz	v0,f1494 <transport_tempfile_+0xb0>
   f14e4:	8fbf046c 	lw	ra,1132(sp)
   f14e8:	8e240000 	lw	a0,0(s1)
   f14ec:	1480001f 	bnez	a0,f156c <transport_tempfile_+0x188>
   f14f0:	00000000 	nop
   f14f4:	10000021 	b	f157c <transport_tempfile_+0x198>
   f14f8:	8e440000 	lw	a0,0(s2)
   f14fc:	8e240000 	lw	a0,0(s1)
   f1500:	50800005 	beqzl	a0,f1518 <transport_tempfile_+0x134>
   f1504:	8e440000 	lw	a0,0(s2)
   f1508:	0c068b1a 	jal	1a2c68 <fclose>
   f150c:	00000000 	nop
   f1510:	ae200000 	sw	zero,0(s1)
   f1514:	8e440000 	lw	a0,0(s2)
   f1518:	10800007 	beqz	a0,f1538 <transport_tempfile_+0x154>
   f151c:	8fbf046c 	lw	ra,1132(sp)
   f1520:	0c06a413 	jal	1a904c <unlink>
   f1524:	00000000 	nop
   f1528:	0c067e00 	jal	19f800 <free>
   f152c:	8e440000 	lw	a0,0(s2)
   f1530:	ae400000 	sw	zero,0(s2)
   f1534:	8fbf046c 	lw	ra,1132(sp)
   f1538:	00008025 	move	s0,zero
   f153c:	24080009 	li	t0,9
   f1540:	8fb30464 	lw	s3,1124(sp)
   f1544:	8fb20460 	lw	s2,1120(sp)
   f1548:	8fb1045c 	lw	s1,1116(sp)
   f154c:	ae880000 	sw	t0,0(s4)
   f1550:	02001025 	move	v0,s0
   f1554:	8fb40468 	lw	s4,1128(sp)
   f1558:	8fb00458 	lw	s0,1112(sp)
   f155c:	03e00008 	jr	ra
   f1560:	27bd0470 	addiu	sp,sp,1136
   f1564:	50800005 	beqzl	a0,f157c <transport_tempfile_+0x198>
   f1568:	8e440000 	lw	a0,0(s2)
   f156c:	0c068b1a 	jal	1a2c68 <fclose>
   f1570:	00000000 	nop
   f1574:	ae200000 	sw	zero,0(s1)
   f1578:	8e440000 	lw	a0,0(s2)
   f157c:	10800007 	beqz	a0,f159c <transport_tempfile_+0x1b8>
   f1580:	8fbf046c 	lw	ra,1132(sp)
   f1584:	0c06a413 	jal	1a904c <unlink>
   f1588:	00000000 	nop
   f158c:	0c067e00 	jal	19f800 <free>
   f1590:	8e440000 	lw	a0,0(s2)
   f1594:	ae400000 	sw	zero,0(s2)
   f1598:	8fbf046c 	lw	ra,1132(sp)
   f159c:	24070009 	li	a3,9
   f15a0:	8fb30464 	lw	s3,1124(sp)
   f15a4:	8fb20460 	lw	s2,1120(sp)
   f15a8:	8fb1045c 	lw	s1,1116(sp)
   f15ac:	ae870000 	sw	a3,0(s4)
   f15b0:	02001025 	move	v0,s0
   f15b4:	8fb40468 	lw	s4,1128(sp)
   f15b8:	8fb00458 	lw	s0,1112(sp)
   f15bc:	03e00008 	jr	ra
   f15c0:	27bd0470 	addiu	sp,sp,1136

000f15c4 <chain_rewrite_file_.constprop.0>:
   f15c4:	27bdffc8 	addiu	sp,sp,-56
   f15c8:	afb10020 	sw	s1,32(sp)
   f15cc:	00808825 	move	s1,a0
   f15d0:	8c840000 	lw	a0,0(a0)
   f15d4:	afb30028 	sw	s3,40(sp)
--
   f1774:	8fb4002c 	lw	s4,44(sp)
   f1778:	8fb20024 	lw	s2,36(sp)
   f177c:	8fb10020 	lw	s1,32(sp)
   f1780:	8fb0001c 	lw	s0,28(sp)
   f1784:	02601025 	move	v0,s3
   f1788:	8fb30028 	lw	s3,40(sp)
   f178c:	03e00008 	jr	ra
   f1790:	27bd0038 	addiu	sp,sp,56
   f1794:	24060008 	li	a2,8
   f1798:	02402025 	move	a0,s2
   f179c:	0c068b1a 	jal	1a2c68 <fclose>
   f17a0:	ae260014 	sw	a2,20(s1)
   f17a4:	1660ffee 	bnez	s3,f1760 <chain_rewrite_file_.constprop.0+0x19c>
   f17a8:	02002025 	move	a0,s0
   f17ac:	0c068b1a 	jal	1a2c68 <fclose>
   f17b0:	00000000 	nop
   f17b4:	1280ffed 	beqz	s4,f176c <chain_rewrite_file_.constprop.0+0x1a8>
   f17b8:	00009825 	move	s3,zero
   f17bc:	0c06a413 	jal	1a904c <unlink>
   f17c0:	02802025 	move	a0,s4
   f17c4:	0c067e00 	jal	19f800 <free>
   f17c8:	02802025 	move	a0,s4
   f17cc:	1000ffe7 	b	f176c <chain_rewrite_file_.constprop.0+0x1a8>
   f17d0:	00009825 	move	s3,zero
   f17d4:	8e270000 	lw	a3,0(s1)
   f17d8:	00e02025 	move	a0,a3
   f17dc:	0c06789a 	jal	19e268 <strlen>
   f17e0:	afa70010 	sw	a3,16(sp)
   f17e4:	2455000f 	addiu	s5,v0,15
   f17e8:	0c067dfc 	jal	19f7f0 <malloc>
   f17ec:	02a02025 	move	a0,s5
   f17f0:	0040a025 	move	s4,v0
   f17f4:	8fa70010 	lw	a3,16(sp)
   f17f8:	10400026 	beqz	v0,f1894 <chain_rewrite_file_.constprop.0+0x2d0>
   f17fc:	afa20008 	sw	v0,8(sp)
   f1800:	3c08001d 	lui	t0,0x1d
   f1804:	3c06001c 	lui	a2,0x1c
   f1808:	2508ab10 	addiu	t0,t0,-21744
   f180c:	24c64054 	addiu	a2,a2,16468
   f1810:	02a02825 	move	a1,s5
   f1814:	0c03ba3b 	jal	ee8ec <local_snprintf>
--
   f19b0:	ac40008c 	sw	zero,140(v0)
   f19b4:	8fbf0004 	lw	ra,4(sp)
   f19b8:	03e00008 	jr	ra
   f19bc:	27bd0008 	addiu	sp,sp,8

000f19c0 <FLAC__metadata_simple_iterator_delete>:
   f19c0:	27bdfff8 	addiu	sp,sp,-8
   f19c4:	afb00000 	sw	s0,0(sp)
   f19c8:	00808025 	move	s0,a0
   f19cc:	8c840000 	lw	a0,0(a0)
   f19d0:	10800006 	beqz	a0,f19ec <FLAC__metadata_simple_iterator_delete+0x2c>
   f19d4:	afbf0004 	sw	ra,4(sp)
   f19d8:	0c068b1a 	jal	1a2c68 <fclose>
   f19dc:	00000000 	nop
   f19e0:	8e020068 	lw	v0,104(s0)
   f19e4:	14400010 	bnez	v0,f1a28 <FLAC__metadata_simple_iterator_delete+0x68>
   f19e8:	ae000000 	sw	zero,0(s0)
   f19ec:	8e040004 	lw	a0,4(s0)
   f19f0:	50800004 	beqzl	a0,f1a04 <FLAC__metadata_simple_iterator_delete+0x44>
   f19f4:	8e040008 	lw	a0,8(s0)
   f19f8:	0c067e00 	jal	19f800 <free>
   f19fc:	00000000 	nop
   f1a00:	8e040008 	lw	a0,8(s0)
   f1a04:	10800004 	beqz	a0,f1a18 <FLAC__metadata_simple_iterator_delete+0x58>
   f1a08:	8fbf0004 	lw	ra,4(sp)
   f1a0c:	0c067e00 	jal	19f800 <free>
   f1a10:	00000000 	nop
   f1a14:	8fbf0004 	lw	ra,4(sp)
   f1a18:	02002025 	move	a0,s0
   f1a1c:	8fb00000 	lw	s0,0(sp)
   f1a20:	08067e00 	j	19f800 <free>
   f1a24:	27bd0008 	addiu	sp,sp,8
   f1a28:	8e040004 	lw	a0,4(s0)
   f1a2c:	0c03b48b 	jal	ed22c <set_file_stats_>
   f1a30:	26050010 	addiu	a1,s0,16
   f1a34:	1000ffee 	b	f19f0 <FLAC__metadata_simple_iterator_delete+0x30>
   f1a38:	8e040004 	lw	a0,4(s0)

000f1a3c <FLAC__metadata_simple_iterator_status>:
   f1a3c:	8c820070 	lw	v0,112(a0)
   f1a40:	03e00008 	jr	ra
   f1a44:	ac800070 	sw	zero,112(a0)

000f1a48 <FLAC__metadata_simple_iterator_init>:
   f1a48:	27bdffd8 	addiu	sp,sp,-40
   f1a4c:	afb00014 	sw	s0,20(sp)
   f1a50:	00808025 	move	s0,a0
   f1a54:	8c840000 	lw	a0,0(a0)
   f1a58:	afb30020 	sw	s3,32(sp)
   f1a5c:	afb2001c 	sw	s2,28(sp)
   f1a60:	afb10018 	sw	s1,24(sp)
   f1a64:	afbf0024 	sw	ra,36(sp)
   f1a68:	00a08825 	move	s1,a1
   f1a6c:	00c09025 	move	s2,a2
   f1a70:	10800006 	beqz	a0,f1a8c <FLAC__metadata_simple_iterator_init+0x44>
   f1a74:	00e09825 	move	s3,a3
   f1a78:	0c068b1a 	jal	1a2c68 <fclose>
   f1a7c:	00000000 	nop
   f1a80:	8e020068 	lw	v0,104(s0)
   f1a84:	1440005a 	bnez	v0,f1bf0 <FLAC__metadata_simple_iterator_init+0x1a8>
   f1a88:	ae000000 	sw	zero,0(s0)
   f1a8c:	8e040004 	lw	a0,4(s0)
   f1a90:	50800005 	beqzl	a0,f1aa8 <FLAC__metadata_simple_iterator_init+0x60>
   f1a94:	8e040008 	lw	a0,8(s0)
   f1a98:	0c067e00 	jal	19f800 <free>
   f1a9c:	00000000 	nop
   f1aa0:	ae000004 	sw	zero,4(s0)
   f1aa4:	8e040008 	lw	a0,8(s0)
   f1aa8:	10800004 	beqz	a0,f1abc <FLAC__metadata_simple_iterator_init+0x74>
   f1aac:	00000000 	nop
   f1ab0:	0c067e00 	jal	19f800 <free>
   f1ab4:	00000000 	nop
   f1ab8:	ae000008 	sw	zero,8(s0)
   f1abc:	1240002f 	beqz	s2,f1b7c <FLAC__metadata_simple_iterator_init+0x134>
   f1ac0:	00000000 	nop
   f1ac4:	0c0696a8 	jal	1a5aa0 <strdup>
   f1ac8:	02202025 	move	a0,s1
   f1acc:	00402025 	move	a0,v0
   f1ad0:	104000b1 	beqz	v0,f1d98 <FLAC__metadata_simple_iterator_init+0x350>
   f1ad4:	ae020004 	sw	v0,4(s0)
   f1ad8:	ae00006c 	sw	zero,108(s0)
   f1adc:	3c08001c 	lui	t0,0x1c
   f1ae0:	0c06905a 	jal	1a4168 <fopen>
   f1ae4:	25057808 	addiu	a1,t0,30728
   f1ae8:	00408825 	move	s1,v0
   f1aec:	10400076 	beqz	v0,f1cc8 <FLAC__metadata_simple_iterator_init+0x280>
   f1af0:	ae020000 	sw	v0,0(s0)
   f1af4:	0c06a378 	jal	1a8de0 <__errno>
   f1af8:	00000000 	nop
   f1afc:	ac400000 	sw	zero,0(v0)
   f1b00:	02203825 	move	a3,s1
--
   f21d8:	7eec3804 	ins	t4,s7,0x0,0x8
   f21dc:	00067a02 	srl	t7,a2,0x8
   f21e0:	7dcc7a04 	ins	t4,t6,0x8,0x8
   f21e4:	7decbc04 	ins	t4,t7,0x10,0x8
   f21e8:	7cccfe04 	ins	t4,a2,0x18,0x8
   f21ec:	02a03825 	move	a3,s5
   f21f0:	24060004 	li	a2,4
   f21f4:	24050001 	li	a1,1
   f21f8:	03a02025 	move	a0,sp
   f21fc:	0c0680f4 	jal	1a03d0 <fwrite>
   f2200:	afac0000 	sw	t4,0(sp)
   f2204:	24180004 	li	t8,4
   f2208:	10580023 	beq	v0,t8,f2298 <rewrite_whole_file_+0x234>
   f220c:	3c19001a 	lui	t9,0x1a
   f2210:	24040008 	li	a0,8
   f2214:	ae040070 	sw	a0,112(s0)
   f2218:	0c068b1a 	jal	1a2c68 <fclose>
   f221c:	02a02025 	move	a0,s5
   f2220:	0c06a413 	jal	1a904c <unlink>
   f2224:	02802025 	move	a0,s4
   f2228:	0c067e00 	jal	19f800 <free>
   f222c:	02802025 	move	a0,s4
   f2230:	00009025 	move	s2,zero
   f2234:	8fbf003c 	lw	ra,60(sp)
   f2238:	8fbe0038 	lw	s8,56(sp)
   f223c:	8fb70034 	lw	s7,52(sp)
   f2240:	8fb60030 	lw	s6,48(sp)
   f2244:	8fb5002c 	lw	s5,44(sp)
   f2248:	8fb40028 	lw	s4,40(sp)
   f224c:	8fb30024 	lw	s3,36(sp)
   f2250:	8fb1001c 	lw	s1,28(sp)
   f2254:	8fb00018 	lw	s0,24(sp)
   f2258:	02401025 	move	v0,s2
   f225c:	8fb20020 	lw	s2,32(sp)
   f2260:	03e00008 	jr	ra
   f2264:	27bd0040 	addiu	sp,sp,64
   f2268:	00c09025 	move	s2,a2
   f226c:	8e0e0098 	lw	t6,152(s0)
   f2270:	8e040000 	lw	a0,0(s0)
   f2274:	00003025 	move	a2,zero
   f2278:	25cf0004 	addiu	t7,t6,4
--
   f2338:	93aa0000 	lbu	t2,0(sp)
   f233c:	314b007f 	andi	t3,t2,0x7f
   f2340:	00003025 	move	a2,zero
   f2344:	03c02825 	move	a1,s8
   f2348:	02a02025 	move	a0,s5
   f234c:	0c069370 	jal	1a4dc0 <fseeko>
   f2350:	a3ab0000 	sb	t3,0(sp)
   f2354:	1440008d 	bnez	v0,f258c <rewrite_whole_file_+0x528>
   f2358:	02a03825 	move	a3,s5
   f235c:	24060001 	li	a2,1
   f2360:	24050001 	li	a1,1
   f2364:	0c0680f4 	jal	1a03d0 <fwrite>
   f2368:	03a02025 	move	a0,sp
   f236c:	241e0001 	li	s8,1
   f2370:	105e001f 	beq	v0,s8,f23f0 <rewrite_whole_file_+0x38c>
   f2374:	00000000 	nop
   f2378:	0c068b1a 	jal	1a2c68 <fclose>
   f237c:	02a02025 	move	a0,s5
   f2380:	0c06a413 	jal	1a904c <unlink>
   f2384:	02802025 	move	a0,s4
   f2388:	0c067e00 	jal	19f800 <free>
   f238c:	02802025 	move	a0,s4
   f2390:	24020008 	li	v0,8
   f2394:	1000ffa6 	b	f2230 <rewrite_whole_file_+0x1cc>
   f2398:	ae020070 	sw	v0,112(s0)
   f239c:	10c0ff4a 	beqz	a2,f20c8 <rewrite_whole_file_+0x64>
   f23a0:	241effff 	li	s8,-1
   f23a4:	1000ffb2 	b	f2270 <rewrite_whole_file_+0x20c>
   f23a8:	8e0e0098 	lw	t6,152(s0)
   f23ac:	24050002 	li	a1,2
   f23b0:	02802025 	move	a0,s4
   f23b4:	0c06a413 	jal	1a904c <unlink>
   f23b8:	ae050070 	sw	a1,112(s0)
   f23bc:	0c067e00 	jal	19f800 <free>
   f23c0:	02802025 	move	a0,s4
   f23c4:	1000ff9b 	b	f2234 <rewrite_whole_file_+0x1d0>
   f23c8:	00009025 	move	s2,zero
   f23cc:	0c068b1a 	jal	1a2c68 <fclose>
   f23d0:	02a02025 	move	a0,s5
   f23d4:	0c06a413 	jal	1a904c <unlink>
   f23d8:	02802025 	move	a0,s4
   f23dc:	0c067e00 	jal	19f800 <free>
   f23e0:	02802025 	move	a0,s4
   f23e4:	24080007 	li	t0,7
   f23e8:	1000ff91 	b	f2230 <rewrite_whole_file_+0x1cc>
   f23ec:	ae080070 	sw	t0,112(s0)
   f23f0:	0c068b1a 	jal	1a2c68 <fclose>
   f23f4:	8e040000 	lw	a0,0(s0)
   f23f8:	8e040004 	lw	a0,4(s0)
   f23fc:	02c03825 	move	a3,s6
   f2400:	27a60004 	addiu	a2,sp,4
   f2404:	0c03c4f9 	jal	f13e4 <transport_tempfile_>
   f2408:	27a50008 	addiu	a1,sp,8
   f240c:	1040ff89 	beqz	v0,f2234 <rewrite_whole_file_+0x1d0>
   f2410:	00009025 	move	s2,zero
   f2414:	8e140068 	lw	s4,104(s0)
   f2418:	5680004b 	bnezl	s4,f2548 <rewrite_whole_file_+0x4e4>
   f241c:	8e040004 	lw	a0,4(s0)
   f2420:	8e15006c 	lw	s5,108(s0)
   f2424:	02002025 	move	a0,s0
   f2428:	0c03c3f9 	jal	f0fe4 <simple_iterator_prime_input_>
   f242c:	2ea50001 	sltiu	a1,s5,1
--
   f2528:	02095021 	addu	t2,s0,t1
   f252c:	0c03c330 	jal	f0cc0 <simple_iterator_pop_>
   f2530:	8d5e0074 	lw	s8,116(t2)
   f2534:	1040ff3f 	beqz	v0,f2234 <rewrite_whole_file_+0x1d0>
   f2538:	00009025 	move	s2,zero
   f253c:	8e0b008c 	lw	t3,140(s0)
   f2540:	1000fee1 	b	f20c8 <rewrite_whole_file_+0x64>
   f2544:	2412ffff 	li	s2,-1
   f2548:	0c03b48b 	jal	ed22c <set_file_stats_>
   f254c:	26050010 	addiu	a1,s0,16
   f2550:	1000ffb4 	b	f2424 <rewrite_whole_file_+0x3c0>
   f2554:	8e15006c 	lw	s5,108(s0)
   f2558:	0c03c330 	jal	f0cc0 <simple_iterator_pop_>
   f255c:	02002025 	move	a0,s0
   f2560:	1000ff34 	b	f2234 <rewrite_whole_file_+0x1d0>
   f2564:	00009025 	move	s2,zero
   f2568:	0c068b1a 	jal	1a2c68 <fclose>
   f256c:	02a02025 	move	a0,s5
   f2570:	0c06a413 	jal	1a904c <unlink>
   f2574:	02802025 	move	a0,s4
   f2578:	0c067e00 	jal	19f800 <free>
   f257c:	02802025 	move	a0,s4
   f2580:	24020006 	li	v0,6
   f2584:	1000ff2a 	b	f2230 <rewrite_whole_file_+0x1cc>
   f2588:	ae020070 	sw	v0,112(s0)
   f258c:	0c068b1a 	jal	1a2c68 <fclose>
   f2590:	02a02025 	move	a0,s5
   f2594:	0c06a413 	jal	1a904c <unlink>
   f2598:	02802025 	move	a0,s4
   f259c:	0c067e00 	jal	19f800 <free>
   f25a0:	02802025 	move	a0,s4
   f25a4:	24020007 	li	v0,7
   f25a8:	1000ff21 	b	f2230 <rewrite_whole_file_+0x1cc>
   f25ac:	ae020070 	sw	v0,112(s0)
   f25b0:	ae170074 	sw	s7,116(s0)
   f25b4:	02002025 	move	a0,s0
   f25b8:	26360001 	addiu	s6,s1,1
   f25bc:	0c03c330 	jal	f0cc0 <simple_iterator_pop_>
   f25c0:	ae16008c 	sw	s6,140(s0)
   f25c4:	1440ffae 	bnez	v0,f2480 <rewrite_whole_file_+0x41c>
   f25c8:	00000000 	nop
   f25cc:	1000ff19 	b	f2234 <rewrite_whole_file_+0x1d0>
   f25d0:	00009025 	move	s2,zero
   f25d4:	2412ff80 	li	s2,-128
   f25d8:	1000ff59 	b	f2340 <rewrite_whole_file_+0x2dc>
   f25dc:	01525825 	or	t3,t2,s2
   f25e0:	2402000b 	li	v0,11
   f25e4:	1000ff12 	b	f2230 <rewrite_whole_file_+0x1cc>
   f25e8:	ae020070 	sw	v0,112(s0)

--
   f27e0:	afaa0008 	sw	t2,8(sp)
   f27e4:	0c0679c3 	jal	19e70c <calloc>
   f27e8:	afab000c 	sw	t3,12(sp)
   f27ec:	5040003a 	beqzl	v0,f28d8 <FLAC__metadata_get_picture+0x148>
   f27f0:	00001025 	move	v0,zero
   f27f4:	8c440000 	lw	a0,0(v0)
   f27f8:	0040a025 	move	s4,v0
   f27fc:	2402ffff 	li	v0,-1
   f2800:	ae80006c 	sw	zero,108(s4)
   f2804:	ae800070 	sw	zero,112(s4)
   f2808:	ae820074 	sw	v0,116(s4)
   f280c:	ae820088 	sw	v0,136(s4)
   f2810:	10800004 	beqz	a0,f2824 <FLAC__metadata_get_picture+0x94>
   f2814:	ae80008c 	sw	zero,140(s4)
   f2818:	0c068b1a 	jal	1a2c68 <fclose>
   f281c:	00000000 	nop
   f2820:	ae800000 	sw	zero,0(s4)
   f2824:	8e840004 	lw	a0,4(s4)
   f2828:	10800003 	beqz	a0,f2838 <FLAC__metadata_get_picture+0xa8>
   f282c:	00000000 	nop
   f2830:	0c067e00 	jal	19f800 <free>
   f2834:	00000000 	nop
   f2838:	0c0696a8 	jal	1a5aa0 <strdup>
   f283c:	02002025 	move	a0,s0
   f2840:	1040013a 	beqz	v0,f2d2c <FLAC__metadata_get_picture+0x59c>
   f2844:	ae820004 	sw	v0,4(s4)
   f2848:	24050001 	li	a1,1
   f284c:	0c03c3f9 	jal	f0fe4 <simple_iterator_prime_input_>
   f2850:	02802025 	move	a0,s4
   f2854:	10400118 	beqz	v0,f2cb8 <FLAC__metadata_get_picture+0x528>
   f2858:	2403ffff 	li	v1,-1
   f285c:	1263009f 	beq	s3,v1,f2adc <FLAC__metadata_get_picture+0x34c>
   f2860:	8e870094 	lw	a3,148(s4)
   f2864:	24110006 	li	s1,6
   f2868:	afa0001c 	sw	zero,28(sp)
   f286c:	afa00010 	sw	zero,16(sp)
   f2870:	10f10049 	beq	a3,s1,f2998 <FLAC__metadata_get_picture+0x208>
   f2874:	afa00018 	sw	zero,24(sp)
   f2878:	8e850090 	lw	a1,144(s4)
   f287c:	10a00022 	beqz	a1,f2908 <FLAC__metadata_get_picture+0x178>
   f2880:	8e900000 	lw	s0,0(s4)
   f2884:	52000007 	beqzl	s0,f28a4 <FLAC__metadata_get_picture+0x114>
   f2888:	8e840004 	lw	a0,4(s4)
   f288c:	0c068b1a 	jal	1a2c68 <fclose>
   f2890:	02002025 	move	a0,s0
   f2894:	8e960068 	lw	s6,104(s4)
   f2898:	8e840004 	lw	a0,4(s4)
   f289c:	16c000fd 	bnez	s6,f2c94 <FLAC__metadata_get_picture+0x504>
   f28a0:	ae800000 	sw	zero,0(s4)
   f28a4:	50800004 	beqzl	a0,f28b8 <FLAC__metadata_get_picture+0x128>
   f28a8:	8e840008 	lw	a0,8(s4)
   f28ac:	0c067e00 	jal	19f800 <free>
   f28b0:	00000000 	nop
   f28b4:	8e840008 	lw	a0,8(s4)
   f28b8:	10800003 	beqz	a0,f28c8 <FLAC__metadata_get_picture+0x138>
   f28bc:	00000000 	nop
   f28c0:	0c067e00 	jal	19f800 <free>
   f28c4:	00000000 	nop
   f28c8:	0c067e00 	jal	19f800 <free>
   f28cc:	02802025 	move	a0,s4
   f28d0:	8e520000 	lw	s2,0(s2)
   f28d4:	0012102b 	sltu	v0,zero,s2
   f28d8:	8fbf0044 	lw	ra,68(sp)
   f28dc:	8fbe0040 	lw	s8,64(sp)
   f28e0:	8fb7003c 	lw	s7,60(sp)
   f28e4:	8fb60038 	lw	s6,56(sp)
   f28e8:	8fb50034 	lw	s5,52(sp)
   f28ec:	8fb40030 	lw	s4,48(sp)
   f28f0:	8fb3002c 	lw	s3,44(sp)
   f28f4:	8fb20028 	lw	s2,40(sp)
   f28f8:	8fb10024 	lw	s1,36(sp)
   f28fc:	8fb00020 	lw	s0,32(sp)
   f2900:	03e00008 	jr	ra
   f2904:	27bd0048 	addiu	sp,sp,72
   f2908:	8e850098 	lw	a1,152(s4)
   f290c:	24060001 	li	a2,1
   f2910:	0c069370 	jal	1a4dc0 <fseeko>
   f2914:	02002025 	move	a0,s0
   f2918:	5440002a 	bnezl	v0,f29c4 <FLAC__metadata_get_picture+0x234>
--
   f2c94:	26850010 	addiu	a1,s4,16
   f2c98:	0c03b48b 	jal	ed22c <set_file_stats_>
   f2c9c:	afa40008 	sw	a0,8(sp)
   f2ca0:	1000ff00 	b	f28a4 <FLAC__metadata_get_picture+0x114>
   f2ca4:	8fa40008 	lw	a0,8(sp)
   f2ca8:	0c03db4c 	jal	f6d30 <FLAC__metadata_object_delete>
   f2cac:	02a02025 	move	a0,s5
   f2cb0:	1000ff90 	b	f2af4 <FLAC__metadata_get_picture+0x364>
   f2cb4:	8e950090 	lw	s5,144(s4)
   f2cb8:	8e840000 	lw	a0,0(s4)
   f2cbc:	50800007 	beqzl	a0,f2cdc <FLAC__metadata_get_picture+0x54c>
   f2cc0:	8e840004 	lw	a0,4(s4)
   f2cc4:	0c068b1a 	jal	1a2c68 <fclose>
   f2cc8:	00000000 	nop
   f2ccc:	8e9e0068 	lw	s8,104(s4)
   f2cd0:	8e840004 	lw	a0,4(s4)
   f2cd4:	17c00010 	bnez	s8,f2d18 <FLAC__metadata_get_picture+0x588>
   f2cd8:	ae800000 	sw	zero,0(s4)
   f2cdc:	50800004 	beqzl	a0,f2cf0 <FLAC__metadata_get_picture+0x560>
   f2ce0:	8e840008 	lw	a0,8(s4)
   f2ce4:	0c067e00 	jal	19f800 <free>
   f2ce8:	00000000 	nop
   f2cec:	8e840008 	lw	a0,8(s4)
   f2cf0:	10800003 	beqz	a0,f2d00 <FLAC__metadata_get_picture+0x570>
   f2cf4:	00000000 	nop
   f2cf8:	0c067e00 	jal	19f800 <free>
   f2cfc:	00000000 	nop
   f2d00:	0c067e00 	jal	19f800 <free>
   f2d04:	02802025 	move	a0,s4
   f2d08:	1000fef3 	b	f28d8 <FLAC__metadata_get_picture+0x148>
   f2d0c:	00001025 	move	v0,zero
   f2d10:	1000fedc 	b	f2884 <FLAC__metadata_get_picture+0xf4>
   f2d14:	8e900000 	lw	s0,0(s4)
   f2d18:	26850010 	addiu	a1,s4,16
   f2d1c:	0c03b48b 	jal	ed22c <set_file_stats_>
   f2d20:	afa40008 	sw	a0,8(sp)
   f2d24:	1000ffed 	b	f2cdc <FLAC__metadata_get_picture+0x54c>
   f2d28:	8fa40008 	lw	a0,8(sp)
   f2d2c:	8e840000 	lw	a0,0(s4)
   f2d30:	2417000b 	li	s7,11
   f2d34:	1480ffe3 	bnez	a0,f2cc4 <FLAC__metadata_get_picture+0x534>
   f2d38:	ae970070 	sw	s7,112(s4)
   f2d3c:	1000ffec 	b	f2cf0 <FLAC__metadata_get_picture+0x560>
   f2d40:	8e840008 	lw	a0,8(s4)

000f2d44 <FLAC__metadata_simple_iterator_set_block>:
   f2d44:	8c82006c 	lw	v0,108(a0)
   f2d48:	10400039 	beqz	v0,f2e30 <FLAC__metadata_simple_iterator_set_block+0xec>
--
   f31fc:	ac400028 	sw	zero,40(v0)
   f3200:	8fbf0004 	lw	ra,4(sp)
   f3204:	03e00008 	jr	ra
   f3208:	27bd0008 	addiu	sp,sp,8

000f320c <FLAC__metadata_chain_delete>:
   f320c:	27bdfff0 	addiu	sp,sp,-16
   f3210:	afb00000 	sw	s0,0(sp)
   f3214:	8c900008 	lw	s0,8(a0)
   f3218:	afb20008 	sw	s2,8(sp)
   f321c:	afbf000c 	sw	ra,12(sp)
   f3220:	afb10004 	sw	s1,4(sp)
   f3224:	12000014 	beqz	s0,f3278 <FLAC__metadata_chain_delete+0x6c>
   f3228:	00809025 	move	s2,a0
   f322c:	8e020000 	lw	v0,0(s0)
   f3230:	8e110008 	lw	s1,8(s0)
   f3234:	1040000c 	beqz	v0,f3268 <FLAC__metadata_chain_delete+0x5c>
   f3238:	02002025 	move	a0,s0
   f323c:	0c03db4c 	jal	f6d30 <FLAC__metadata_object_delete>
   f3240:	00402025 	move	a0,v0
   f3244:	0c067e00 	jal	19f800 <free>
   f3248:	02002025 	move	a0,s0
   f324c:	5220000b 	beqzl	s1,f327c <FLAC__metadata_chain_delete+0x70>
   f3250:	8e440000 	lw	a0,0(s2)
   f3254:	02208025 	move	s0,s1
   f3258:	8e020000 	lw	v0,0(s0)
   f325c:	8e110008 	lw	s1,8(s0)
   f3260:	1440fff6 	bnez	v0,f323c <FLAC__metadata_chain_delete+0x30>
   f3264:	02002025 	move	a0,s0
   f3268:	0c067e00 	jal	19f800 <free>
   f326c:	00000000 	nop
   f3270:	5620fff9 	bnezl	s1,f3258 <FLAC__metadata_chain_delete+0x4c>
   f3274:	02208025 	move	s0,s1
   f3278:	8e440000 	lw	a0,0(s2)
   f327c:	10800004 	beqz	a0,f3290 <FLAC__metadata_chain_delete+0x84>
   f3280:	8fbf000c 	lw	ra,12(sp)
   f3284:	0c067e00 	jal	19f800 <free>
   f3288:	00000000 	nop
   f328c:	8fbf000c 	lw	ra,12(sp)
   f3290:	8fb10004 	lw	s1,4(sp)
   f3294:	8fb00000 	lw	s0,0(sp)
   f3298:	02402025 	move	a0,s2
   f329c:	8fb20008 	lw	s2,8(sp)
   f32a0:	08067e00 	j	19f800 <free>
   f32a4:	27bd0010 	addiu	sp,sp,16

000f32a8 <FLAC__metadata_chain_status>:
   f32a8:	8c820014 	lw	v0,20(a0)
   f32ac:	03e00008 	jr	ra
   f32b0:	ac800014 	sw	zero,20(a0)

000f32b4 <FLAC__metadata_chain_read>:
   f32b4:	27bdffd0 	addiu	sp,sp,-48
   f32b8:	afb60024 	sw	s6,36(sp)
   f32bc:	8c960008 	lw	s6,8(a0)
   f32c0:	afb30018 	sw	s3,24(sp)
   f32c4:	afb10010 	sw	s1,16(sp)
   f32c8:	afbf002c 	sw	ra,44(sp)
   f32cc:	afb70028 	sw	s7,40(sp)
   f32d0:	afb50020 	sw	s5,32(sp)
   f32d4:	afb4001c 	sw	s4,28(sp)
   f32d8:	afb20014 	sw	s2,20(sp)
   f32dc:	afb0000c 	sw	s0,12(sp)
   f32e0:	00808825 	move	s1,a0
   f32e4:	12c00014 	beqz	s6,f3338 <FLAC__metadata_chain_read+0x84>
   f32e8:	00a09825 	move	s3,a1
   f32ec:	8ec20000 	lw	v0,0(s6)
   f32f0:	8ed20008 	lw	s2,8(s6)
   f32f4:	1040000c 	beqz	v0,f3328 <FLAC__metadata_chain_read+0x74>
   f32f8:	02c02025 	move	a0,s6
   f32fc:	0c03db4c 	jal	f6d30 <FLAC__metadata_object_delete>
   f3300:	00402025 	move	a0,v0
   f3304:	0c067e00 	jal	19f800 <free>
   f3308:	02c02025 	move	a0,s6
   f330c:	5240000b 	beqzl	s2,f333c <FLAC__metadata_chain_read+0x88>
   f3310:	8e240000 	lw	a0,0(s1)
   f3314:	0240b025 	move	s6,s2
   f3318:	8ec20000 	lw	v0,0(s6)
   f331c:	8ed20008 	lw	s2,8(s6)
   f3320:	1440fff6 	bnez	v0,f32fc <FLAC__metadata_chain_read+0x48>
   f3324:	02c02025 	move	a0,s6
   f3328:	0c067e00 	jal	19f800 <free>
   f332c:	00000000 	nop
   f3330:	5640fff9 	bnezl	s2,f3318 <FLAC__metadata_chain_read+0x64>
   f3334:	0240b025 	move	s6,s2
   f3338:	8e240000 	lw	a0,0(s1)
   f333c:	50800004 	beqzl	a0,f3350 <FLAC__metadata_chain_read+0x9c>
   f3340:	ae200000 	sw	zero,0(s1)
   f3344:	0c067e00 	jal	19f800 <free>
   f3348:	00000000 	nop
   f334c:	ae200000 	sw	zero,0(s1)
   f3350:	ae200004 	sw	zero,4(s1)
   f3354:	ae20000c 	sw	zero,12(s1)
   f3358:	ae200008 	sw	zero,8(s1)
   f335c:	ae200010 	sw	zero,16(s1)
   f3360:	ae200014 	sw	zero,20(s1)
   f3364:	ae200020 	sw	zero,32(s1)
   f3368:	ae200028 	sw	zero,40(s1)
   f336c:	0c0696a8 	jal	1a5aa0 <strdup>
   f3370:	02602025 	move	a0,s3
   f3374:	104000e4 	beqz	v0,f3708 <FLAC__metadata_chain_read+0x454>
   f3378:	ae220000 	sw	v0,0(s1)
   f337c:	3c05001c 	lui	a1,0x1c
   f3380:	24a57808 	addiu	a1,a1,30728
   f3384:	0c06905a 	jal	1a4168 <fopen>
   f3388:	02602025 	move	a0,s3
   f338c:	00409025 	move	s2,v0
   f3390:	104000de 	beqz	v0,f370c <FLAC__metadata_chain_read+0x458>
   f3394:	24140002 	li	s4,2
--
   f3480:	24974718 	addiu	s7,a0,18200
   f3484:	2405000c 	li	a1,12
   f3488:	0c0679c3 	jal	19e70c <calloc>
   f348c:	24040001 	li	a0,1
   f3490:	00409825 	move	s3,v0
   f3494:	02403825 	move	a3,s2
   f3498:	24060004 	li	a2,4
   f349c:	24050001 	li	a1,1
   f34a0:	1040008c 	beqz	v0,f36d4 <FLAC__metadata_chain_read+0x420>
   f34a4:	03a02025 	move	a0,sp
   f34a8:	0c0691c6 	jal	1a4718 <fread>
   f34ac:	00000000 	nop
   f34b0:	24060004 	li	a2,4
   f34b4:	1046003d 	beq	v0,a2,f35ac <FLAC__metadata_chain_read+0x2f8>
   f34b8:	93a70002 	lbu	a3,2(sp)
   f34bc:	8e640000 	lw	a0,0(s3)
   f34c0:	10800003 	beqz	a0,f34d0 <FLAC__metadata_chain_read+0x21c>
   f34c4:	00000000 	nop
   f34c8:	0c03db4c 	jal	f6d30 <FLAC__metadata_object_delete>
   f34cc:	00000000 	nop
   f34d0:	0c067e00 	jal	19f800 <free>
   f34d4:	02602025 	move	a0,s3
   f34d8:	240c0006 	li	t4,6
   f34dc:	1000ffc7 	b	f33fc <FLAC__metadata_chain_read+0x148>
   f34e0:	ae2c0014 	sw	t4,20(s1)
   f34e4:	24090033 	li	t1,51
   f34e8:	1509ffbf 	bne	t0,t1,f33e8 <FLAC__metadata_chain_read+0x134>
   f34ec:	939682b4 	lbu	s6,-32076(gp)
   f34f0:	24060001 	li	a2,1
   f34f4:	24050002 	li	a1,2
   f34f8:	0c069370 	jal	1a4dc0 <fseeko>
   f34fc:	02402025 	move	a0,s2
   f3500:	04400027 	bltz	v0,f35a0 <FLAC__metadata_chain_read+0x2ec>
   f3504:	0000a025 	move	s4,zero
   f3508:	02403825 	move	a3,s2
   f350c:	24060001 	li	a2,1
   f3510:	24050001 	li	a1,1
   f3514:	0c0691c6 	jal	1a4718 <fread>
   f3518:	03a02025 	move	a0,sp
   f351c:	2610ffff 	addiu	s0,s0,-1
   f3520:	1040ffed 	beqz	v0,f34d8 <FLAC__metadata_chain_read+0x224>
--
   f367c:	8ef30008 	lw	s3,8(s7)
   f3680:	8ec70008 	lw	a3,8(s6)
   f3684:	10e00007 	beqz	a3,f36a4 <FLAC__metadata_chain_read+0x3f0>
   f3688:	26750004 	addiu	s5,s3,4
   f368c:	8ce60000 	lw	a2,0(a3)
   f3690:	8ce70008 	lw	a3,8(a3)
   f3694:	8cc80008 	lw	t0,8(a2)
   f3698:	25090004 	addiu	t1,t0,4
   f369c:	14e0fffb 	bnez	a3,f368c <FLAC__metadata_chain_read+0x3d8>
   f36a0:	0135a821 	addu	s5,t1,s5
   f36a4:	ae350020 	sw	s5,32(s1)
   f36a8:	1000ff55 	b	f3400 <FLAC__metadata_chain_read+0x14c>
   f36ac:	24110001 	li	s1,1
   f36b0:	ae330008 	sw	s3,8(s1)
   f36b4:	ae33000c 	sw	s3,12(s1)
   f36b8:	24a30001 	addiu	v1,a1,1
   f36bc:	1280ff71 	beqz	s4,f3484 <FLAC__metadata_chain_read+0x1d0>
   f36c0:	ae230010 	sw	v1,16(s1)
   f36c4:	1000ffe3 	b	f3654 <FLAC__metadata_chain_read+0x3a0>
   f36c8:	00000000 	nop
   f36cc:	0c067e00 	jal	19f800 <free>
   f36d0:	02602025 	move	a0,s3
   f36d4:	240a000b 	li	t2,11
   f36d8:	1000ff48 	b	f33fc <FLAC__metadata_chain_read+0x148>
   f36dc:	ae2a0014 	sw	t2,20(s1)
   f36e0:	10800003 	beqz	a0,f36f0 <FLAC__metadata_chain_read+0x43c>
   f36e4:	00000000 	nop
   f36e8:	0c03db4c 	jal	f6d30 <FLAC__metadata_object_delete>
   f36ec:	00000000 	nop
   f36f0:	0c067e00 	jal	19f800 <free>
   f36f4:	02602025 	move	a0,s3
   f36f8:	1000ff41 	b	f3400 <FLAC__metadata_chain_read+0x14c>
   f36fc:	00008825 	move	s1,zero
   f3700:	1000ff3e 	b	f33fc <FLAC__metadata_chain_read+0x148>
   f3704:	ae300014 	sw	s0,20(s1)
   f3708:	2414000b 	li	s4,11
   f370c:	ae340014 	sw	s4,20(s1)
   f3710:	1000ff3d 	b	f3408 <FLAC__metadata_chain_read+0x154>
   f3714:	00008825 	move	s1,zero

000f3718 <FLAC__metadata_chain_read_ogg>:
   f3718:	27bdffe8 	addiu	sp,sp,-24
   f371c:	afb00004 	sw	s0,4(sp)
   f3720:	8c900008 	lw	s0,8(a0)
   f3724:	afb30010 	sw	s3,16(sp)
   f3728:	afb2000c 	sw	s2,12(sp)
   f372c:	afbf0014 	sw	ra,20(sp)
   f3730:	afb10008 	sw	s1,8(sp)
   f3734:	00809025 	move	s2,a0
   f3738:	12000014 	beqz	s0,f378c <FLAC__metadata_chain_read_ogg+0x74>
   f373c:	00a09825 	move	s3,a1
   f3740:	8e020000 	lw	v0,0(s0)
   f3744:	8e110008 	lw	s1,8(s0)
   f3748:	1040000c 	beqz	v0,f377c <FLAC__metadata_chain_read_ogg+0x64>
   f374c:	02002025 	move	a0,s0
   f3750:	0c03db4c 	jal	f6d30 <FLAC__metadata_object_delete>
   f3754:	00402025 	move	a0,v0
   f3758:	0c067e00 	jal	19f800 <free>
   f375c:	02002025 	move	a0,s0
   f3760:	5220000b 	beqzl	s1,f3790 <FLAC__metadata_chain_read_ogg+0x78>
   f3764:	8e440000 	lw	a0,0(s2)
   f3768:	02208025 	move	s0,s1
   f376c:	8e020000 	lw	v0,0(s0)
   f3770:	8e110008 	lw	s1,8(s0)
   f3774:	1440fff6 	bnez	v0,f3750 <FLAC__metadata_chain_read_ogg+0x38>
   f3778:	02002025 	move	a0,s0
   f377c:	0c067e00 	jal	19f800 <free>
   f3780:	00000000 	nop
   f3784:	5620fff9 	bnezl	s1,f376c <FLAC__metadata_chain_read_ogg+0x54>
   f3788:	02208025 	move	s0,s1
   f378c:	8e440000 	lw	a0,0(s2)
   f3790:	50800004 	beqzl	a0,f37a4 <FLAC__metadata_chain_read_ogg+0x8c>
   f3794:	ae400000 	sw	zero,0(s2)
   f3798:	0c067e00 	jal	19f800 <free>
   f379c:	00000000 	nop
   f37a0:	ae400000 	sw	zero,0(s2)
   f37a4:	ae400004 	sw	zero,4(s2)
   f37a8:	ae40000c 	sw	zero,12(s2)
   f37ac:	ae400008 	sw	zero,8(s2)
   f37b0:	ae400010 	sw	zero,16(s2)
   f37b4:	ae400014 	sw	zero,20(s2)
   f37b8:	ae400020 	sw	zero,32(s2)
   f37bc:	ae400028 	sw	zero,40(s2)
   f37c0:	0c0696a8 	jal	1a5aa0 <strdup>
   f37c4:	02602025 	move	a0,s3
   f37c8:	1040001a 	beqz	v0,f3834 <FLAC__metadata_chain_read_ogg+0x11c>
   f37cc:	ae420000 	sw	v0,0(s2)
   f37d0:	24030001 	li	v1,1
   f37d4:	3c05001c 	lui	a1,0x1c
   f37d8:	02602025 	move	a0,s3
   f37dc:	ae430004 	sw	v1,4(s2)
   f37e0:	0c06905a 	jal	1a4168 <fopen>
   f37e4:	24a57808 	addiu	a1,a1,30728
   f37e8:	00408025 	move	s0,v0
--
   f384c:	8c900008 	lw	s0,8(a0)
   f3850:	afb60028 	sw	s6,40(sp)
   f3854:	afb50024 	sw	s5,36(sp)
   f3858:	afb40020 	sw	s4,32(sp)
   f385c:	afb3001c 	sw	s3,28(sp)
   f3860:	afb20018 	sw	s2,24(sp)
   f3864:	8cd30000 	lw	s3,0(a2)
   f3868:	8cd50008 	lw	s5,8(a2)
   f386c:	8cd6000c 	lw	s6,12(a2)
   f3870:	afbf002c 	sw	ra,44(sp)
   f3874:	afb10014 	sw	s1,20(sp)
   f3878:	00809025 	move	s2,a0
   f387c:	12000014 	beqz	s0,f38d0 <FLAC__metadata_chain_read_with_callbacks+0x8c>
   f3880:	00a0a025 	move	s4,a1
   f3884:	8e020000 	lw	v0,0(s0)
   f3888:	8e110008 	lw	s1,8(s0)
   f388c:	1040000c 	beqz	v0,f38c0 <FLAC__metadata_chain_read_with_callbacks+0x7c>
   f3890:	02002025 	move	a0,s0
   f3894:	0c03db4c 	jal	f6d30 <FLAC__metadata_object_delete>
   f3898:	00402025 	move	a0,v0
   f389c:	0c067e00 	jal	19f800 <free>
   f38a0:	02002025 	move	a0,s0
   f38a4:	5220000b 	beqzl	s1,f38d4 <FLAC__metadata_chain_read_with_callbacks+0x90>
   f38a8:	8e440000 	lw	a0,0(s2)
   f38ac:	02208025 	move	s0,s1
   f38b0:	8e020000 	lw	v0,0(s0)
   f38b4:	8e110008 	lw	s1,8(s0)
   f38b8:	1440fff6 	bnez	v0,f3894 <FLAC__metadata_chain_read_with_callbacks+0x50>
   f38bc:	02002025 	move	a0,s0
   f38c0:	0c067e00 	jal	19f800 <free>
   f38c4:	00000000 	nop
   f38c8:	5620fff9 	bnezl	s1,f38b0 <FLAC__metadata_chain_read_with_callbacks+0x6c>
   f38cc:	02208025 	move	s0,s1
   f38d0:	8e440000 	lw	a0,0(s2)
   f38d4:	50800004 	beqzl	a0,f38e8 <FLAC__metadata_chain_read_with_callbacks+0xa4>
   f38d8:	ae400000 	sw	zero,0(s2)
   f38dc:	0c067e00 	jal	19f800 <free>
   f38e0:	00000000 	nop
   f38e4:	ae400000 	sw	zero,0(s2)
   f38e8:	ae400004 	sw	zero,4(s2)
   f38ec:	ae40000c 	sw	zero,12(s2)
   f38f0:	ae400008 	sw	zero,8(s2)
   f38f4:	ae400010 	sw	zero,16(s2)
   f38f8:	ae400014 	sw	zero,20(s2)
   f38fc:	ae400020 	sw	zero,32(s2)
   f3900:	12600051 	beqz	s3,f3a48 <FLAC__metadata_chain_read_with_callbacks+0x204>
   f3904:	ae400028 	sw	zero,40(s2)
   f3908:	12a00050 	beqz	s5,f3a4c <FLAC__metadata_chain_read_with_callbacks+0x208>
   f390c:	2405000d 	li	a1,13
   f3910:	12c0004e 	beqz	s6,f3a4c <FLAC__metadata_chain_read_with_callbacks+0x208>
   f3914:	00004025 	move	t0,zero
   f3918:	00003025 	move	a2,zero
   f391c:	00003825 	move	a3,zero
   f3920:	02a0f809 	jalr	s5
   f3924:	02802025 	move	a0,s4
   f3928:	14400045 	bnez	v0,f3a40 <FLAC__metadata_chain_read_with_callbacks+0x1fc>
   f392c:	24190007 	li	t9,7
--
   f3a90:	ae420018 	sw	v0,24(s2)
   f3a94:	2405000c 	li	a1,12
   f3a98:	0c0679c3 	jal	19e70c <calloc>
   f3a9c:	24040001 	li	a0,1
   f3aa0:	00408825 	move	s1,v0
   f3aa4:	02803825 	move	a3,s4
   f3aa8:	24060004 	li	a2,4
   f3aac:	24050001 	li	a1,1
   f3ab0:	10400072 	beqz	v0,f3c7c <FLAC__metadata_chain_read_with_callbacks+0x438>
   f3ab4:	03a02025 	move	a0,sp
   f3ab8:	0260f809 	jalr	s3
   f3abc:	00000000 	nop
   f3ac0:	24050004 	li	a1,4
   f3ac4:	1045001d 	beq	v0,a1,f3b3c <FLAC__metadata_chain_read_with_callbacks+0x2f8>
   f3ac8:	93a70002 	lbu	a3,2(sp)
   f3acc:	8e240000 	lw	a0,0(s1)
   f3ad0:	10800003 	beqz	a0,f3ae0 <FLAC__metadata_chain_read_with_callbacks+0x29c>
   f3ad4:	00000000 	nop
   f3ad8:	0c03db4c 	jal	f6d30 <FLAC__metadata_object_delete>
   f3adc:	00000000 	nop
   f3ae0:	0c067e00 	jal	19f800 <free>
   f3ae4:	02202025 	move	a0,s1
   f3ae8:	24180006 	li	t8,6
   f3aec:	1000ffa9 	b	f3994 <FLAC__metadata_chain_read_with_callbacks+0x150>
   f3af0:	ae580014 	sw	t8,20(s2)
   f3af4:	0c06a378 	jal	1a8de0 <__errno>
   f3af8:	00000000 	nop
   f3afc:	ac400000 	sw	zero,0(v0)
   f3b00:	02803825 	move	a3,s4
   f3b04:	24060004 	li	a2,4
   f3b08:	24050001 	li	a1,1
   f3b0c:	0260f809 	jalr	s3
   f3b10:	03a02025 	move	a0,sp
   f3b14:	0c06a378 	jal	1a8de0 <__errno>
   f3b18:	00408025 	move	s0,v0
   f3b1c:	8c4c0000 	lw	t4,0(v0)
   f3b20:	1580fff1 	bnez	t4,f3ae8 <FLAC__metadata_chain_read_with_callbacks+0x2a4>
   f3b24:	240d0004 	li	t5,4
   f3b28:	120dff95 	beq	s0,t5,f3980 <FLAC__metadata_chain_read_with_callbacks+0x13c>
   f3b2c:	938e82b4 	lbu	t6,-32076(gp)
   f3b30:	240f0003 	li	t7,3
--
   f3c24:	8eb40008 	lw	s4,8(s5)
   f3c28:	8e6a0008 	lw	t2,8(s3)
   f3c2c:	11400007 	beqz	t2,f3c4c <FLAC__metadata_chain_read_with_callbacks+0x408>
   f3c30:	268c0004 	addiu	t4,s4,4
   f3c34:	8d490000 	lw	t1,0(t2)
   f3c38:	8d4a0008 	lw	t2,8(t2)
   f3c3c:	8d300008 	lw	s0,8(t1)
   f3c40:	260b0004 	addiu	t3,s0,4
   f3c44:	1540fffb 	bnez	t2,f3c34 <FLAC__metadata_chain_read_with_callbacks+0x3f0>
   f3c48:	016c6021 	addu	t4,t3,t4
   f3c4c:	ae4c0020 	sw	t4,32(s2)
   f3c50:	1000ff51 	b	f3998 <FLAC__metadata_chain_read_with_callbacks+0x154>
   f3c54:	24020001 	li	v0,1
   f3c58:	ae510008 	sw	s1,8(s2)
   f3c5c:	ae51000c 	sw	s1,12(s2)
   f3c60:	25110001 	addiu	s1,t0,1
   f3c64:	10a0ff8b 	beqz	a1,f3a94 <FLAC__metadata_chain_read_with_callbacks+0x250>
   f3c68:	ae510010 	sw	s1,16(s2)
   f3c6c:	1000ffe3 	b	f3bfc <FLAC__metadata_chain_read_with_callbacks+0x3b8>
   f3c70:	00000000 	nop
   f3c74:	0c067e00 	jal	19f800 <free>
   f3c78:	02202025 	move	a0,s1
   f3c7c:	240e000b 	li	t6,11
   f3c80:	1000ff44 	b	f3994 <FLAC__metadata_chain_read_with_callbacks+0x150>
   f3c84:	ae4e0014 	sw	t6,20(s2)
   f3c88:	10800003 	beqz	a0,f3c98 <FLAC__metadata_chain_read_with_callbacks+0x454>
   f3c8c:	00000000 	nop
   f3c90:	0c03db4c 	jal	f6d30 <FLAC__metadata_object_delete>
   f3c94:	00000000 	nop
   f3c98:	0c067e00 	jal	19f800 <free>
   f3c9c:	02202025 	move	a0,s1
   f3ca0:	1000ff3d 	b	f3998 <FLAC__metadata_chain_read_with_callbacks+0x154>
   f3ca4:	00001025 	move	v0,zero
   f3ca8:	1000ff3a 	b	f3994 <FLAC__metadata_chain_read_with_callbacks+0x150>
   f3cac:	ae4d0014 	sw	t5,20(s2)

000f3cb0 <FLAC__metadata_chain_read_ogg_with_callbacks>:
   f3cb0:	27bdffe0 	addiu	sp,sp,-32
   f3cb4:	afb00000 	sw	s0,0(sp)
   f3cb8:	8c900008 	lw	s0,8(a0)
   f3cbc:	afb60018 	sw	s6,24(sp)
   f3cc0:	afb50014 	sw	s5,20(sp)
   f3cc4:	afb40010 	sw	s4,16(sp)
   f3cc8:	afb3000c 	sw	s3,12(sp)
   f3ccc:	afb20008 	sw	s2,8(sp)
   f3cd0:	8cd40000 	lw	s4,0(a2)
   f3cd4:	8cd30008 	lw	s3,8(a2)
   f3cd8:	8cd6000c 	lw	s6,12(a2)
   f3cdc:	afbf001c 	sw	ra,28(sp)
   f3ce0:	afb10004 	sw	s1,4(sp)
   f3ce4:	00809025 	move	s2,a0
   f3ce8:	12000014 	beqz	s0,f3d3c <FLAC__metadata_chain_read_ogg_with_callbacks+0x8c>
   f3cec:	00a0a825 	move	s5,a1
   f3cf0:	8e020000 	lw	v0,0(s0)
   f3cf4:	8e110008 	lw	s1,8(s0)
   f3cf8:	1040000c 	beqz	v0,f3d2c <FLAC__metadata_chain_read_ogg_with_callbacks+0x7c>
   f3cfc:	02002025 	move	a0,s0
   f3d00:	0c03db4c 	jal	f6d30 <FLAC__metadata_object_delete>
   f3d04:	00402025 	move	a0,v0
   f3d08:	0c067e00 	jal	19f800 <free>
   f3d0c:	02002025 	move	a0,s0
   f3d10:	5220000b 	beqzl	s1,f3d40 <FLAC__metadata_chain_read_ogg_with_callbacks+0x90>
   f3d14:	8e440000 	lw	a0,0(s2)
   f3d18:	02208025 	move	s0,s1
   f3d1c:	8e020000 	lw	v0,0(s0)
   f3d20:	8e110008 	lw	s1,8(s0)
   f3d24:	1440fff6 	bnez	v0,f3d00 <FLAC__metadata_chain_read_ogg_with_callbacks+0x50>
   f3d28:	02002025 	move	a0,s0
   f3d2c:	0c067e00 	jal	19f800 <free>
   f3d30:	00000000 	nop
   f3d34:	5620fff9 	bnezl	s1,f3d1c <FLAC__metadata_chain_read_ogg_with_callbacks+0x6c>
   f3d38:	02208025 	move	s0,s1
   f3d3c:	8e440000 	lw	a0,0(s2)
   f3d40:	50800004 	beqzl	a0,f3d54 <FLAC__metadata_chain_read_ogg_with_callbacks+0xa4>
   f3d44:	ae400000 	sw	zero,0(s2)
   f3d48:	0c067e00 	jal	19f800 <free>
   f3d4c:	00000000 	nop
   f3d50:	ae400000 	sw	zero,0(s2)
   f3d54:	ae400004 	sw	zero,4(s2)
   f3d58:	ae40000c 	sw	zero,12(s2)
   f3d5c:	ae400008 	sw	zero,8(s2)
   f3d60:	ae400010 	sw	zero,16(s2)
   f3d64:	ae400014 	sw	zero,20(s2)
   f3d68:	ae400020 	sw	zero,32(s2)
   f3d6c:	12800019 	beqz	s4,f3dd4 <FLAC__metadata_chain_read_ogg_with_callbacks+0x124>
   f3d70:	ae400028 	sw	zero,40(s2)
   f3d74:	12600018 	beqz	s3,f3dd8 <FLAC__metadata_chain_read_ogg_with_callbacks+0x128>
   f3d78:	8fbf001c 	lw	ra,28(sp)
   f3d7c:	12c00016 	beqz	s6,f3dd8 <FLAC__metadata_chain_read_ogg_with_callbacks+0x128>
   f3d80:	24030001 	li	v1,1
   f3d84:	ae430004 	sw	v1,4(s2)
   f3d88:	00004025 	move	t0,zero
   f3d8c:	00003025 	move	a2,zero
   f3d90:	00003825 	move	a3,zero
   f3d94:	0260f809 	jalr	s3
   f3d98:	02a02025 	move	a0,s5
--
   f47f8:	8c4e0004 	lw	t6,4(v0)
   f47fc:	8c580008 	lw	t8,8(v0)
   f4800:	8d0f000c 	lw	t7,12(t0)
   f4804:	1162002a 	beq	t3,v0,f48b0 <FLAC__metadata_chain_merge_padding+0x130>
   f4808:	acad0008 	sw	t5,8(a1)
   f480c:	11e2002d 	beq	t7,v0,f48c4 <FLAC__metadata_chain_merge_padding+0x144>
   f4810:	add80008 	sw	t8,8(t6)
   f4814:	8c580008 	lw	t8,8(v0)
   f4818:	af0e0004 	sw	t6,4(t8)
   f481c:	8d1f0010 	lw	ra,16(t0)
   f4820:	11e00004 	beqz	t7,f4834 <FLAC__metadata_chain_merge_padding+0xb4>
   f4824:	27e6ffff 	addiu	a2,ra,-1
   f4828:	8de50000 	lw	a1,0(t7)
   f482c:	24070001 	li	a3,1
   f4830:	aca70004 	sw	a3,4(a1)
   f4834:	ad060010 	sw	a2,16(t0)
   f4838:	afa20008 	sw	v0,8(sp)
   f483c:	afa80000 	sw	t0,0(sp)
   f4840:	0c03db4c 	jal	f6d30 <FLAC__metadata_object_delete>
   f4844:	afa30004 	sw	v1,4(sp)
   f4848:	0c067e00 	jal	19f800 <free>
   f484c:	8fa40008 	lw	a0,8(sp)
   f4850:	8fa20004 	lw	v0,4(sp)
   f4854:	8fa80000 	lw	t0,0(sp)
   f4858:	240a0001 	li	t2,1
   f485c:	8c450000 	lw	a1,0(v0)
   f4860:	00401825 	move	v1,v0
   f4864:	8ca40000 	lw	a0,0(a1)
   f4868:	148a000c 	bne	a0,t2,f489c <FLAC__metadata_chain_merge_padding+0x11c>
   f486c:	8c420008 	lw	v0,8(v0)
   f4870:	1040000d 	beqz	v0,f48a8 <FLAC__metadata_chain_merge_padding+0x128>
   f4874:	8fbf0014 	lw	ra,20(sp)
   f4878:	8c440000 	lw	a0,0(v0)
   f487c:	8c890000 	lw	t1,0(a0)
   f4880:	512affd9 	beql	t1,t2,f47e8 <FLAC__metadata_chain_merge_padding+0x68>
   f4884:	8caa0008 	lw	t2,8(a1)
   f4888:	8c450000 	lw	a1,0(v0)
   f488c:	00401825 	move	v1,v0
   f4890:	8ca40000 	lw	a0,0(a1)
   f4894:	108afff6 	beq	a0,t2,f4870 <FLAC__metadata_chain_merge_padding+0xf0>
   f4898:	8c420008 	lw	v0,8(v0)
--
   f4b34:	8f0b0004 	lw	t3,4(t8)
   f4b38:	8f090008 	lw	t1,8(t8)
   f4b3c:	8cca000c 	lw	t2,12(a2)
   f4b40:	10b8002a 	beq	a1,t8,f4bec <FLAC__metadata_chain_sort_padding+0x314>
   f4b44:	ad8d0008 	sw	t5,8(t4)
   f4b48:	11580079 	beq	t2,t8,f4d30 <FLAC__metadata_chain_sort_padding+0x458>
   f4b4c:	ad690008 	sw	t1,8(t3)
   f4b50:	8f090008 	lw	t1,8(t8)
   f4b54:	ad2b0004 	sw	t3,4(t1)
   f4b58:	8cce0010 	lw	t6,16(a2)
   f4b5c:	11400004 	beqz	t2,f4b70 <FLAC__metadata_chain_sort_padding+0x298>
   f4b60:	25ccffff 	addiu	t4,t6,-1
   f4b64:	8d590000 	lw	t9,0(t2)
   f4b68:	24070001 	li	a3,1
   f4b6c:	af270004 	sw	a3,4(t9)
   f4b70:	accc0010 	sw	t4,16(a2)
   f4b74:	afb80004 	sw	t8,4(sp)
   f4b78:	afa60000 	sw	a2,0(sp)
   f4b7c:	0c03db4c 	jal	f6d30 <FLAC__metadata_object_delete>
   f4b80:	afa20008 	sw	v0,8(sp)
   f4b84:	0c067e00 	jal	19f800 <free>
   f4b88:	8fa40004 	lw	a0,4(sp)
   f4b8c:	8fb80008 	lw	t8,8(sp)
   f4b90:	8fa60000 	lw	a2,0(sp)
   f4b94:	240f0001 	li	t7,1
   f4b98:	8f0c0000 	lw	t4,0(t8)
   f4b9c:	03001025 	move	v0,t8
   f4ba0:	8d840000 	lw	a0,0(t4)
   f4ba4:	148f000c 	bne	a0,t7,f4bd8 <FLAC__metadata_chain_sort_padding+0x300>
   f4ba8:	8f180008 	lw	t8,8(t8)
   f4bac:	1300000d 	beqz	t8,f4be4 <FLAC__metadata_chain_sort_padding+0x30c>
   f4bb0:	8fbf0014 	lw	ra,20(sp)
   f4bb4:	8f040000 	lw	a0,0(t8)
   f4bb8:	8c9f0000 	lw	ra,0(a0)
   f4bbc:	53efffd9 	beql	ra,t7,f4b24 <FLAC__metadata_chain_sort_padding+0x24c>
   f4bc0:	8d9f0008 	lw	ra,8(t4)
   f4bc4:	8f0c0000 	lw	t4,0(t8)
   f4bc8:	03001025 	move	v0,t8
   f4bcc:	8d840000 	lw	a0,0(t4)
   f4bd0:	108ffff6 	beq	a0,t7,f4bac <FLAC__metadata_chain_sort_padding+0x2d4>
   f4bd4:	8f180008 	lw	t8,8(t8)
--
   f4f9c:	8c460008 	lw	a2,8(v0)
   f4fa0:	ae060008 	sw	a2,8(s0)
   f4fa4:	8c67000c 	lw	a3,12(v1)
   f4fa8:	5047001c 	beql	v0,a3,f501c <FLAC__metadata_iterator_set_block+0xb0>
   f4fac:	ac70000c 	sw	s0,12(v1)
   f4fb0:	8c480008 	lw	t0,8(v0)
   f4fb4:	10e00004 	beqz	a3,f4fc8 <FLAC__metadata_iterator_set_block+0x5c>
   f4fb8:	ad100004 	sw	s0,4(t0)
   f4fbc:	8ce90000 	lw	t1,0(a3)
   f4fc0:	240a0001 	li	t2,1
   f4fc4:	ad2a0004 	sw	t2,4(t1)
   f4fc8:	8c6b0010 	lw	t3,16(v1)
   f4fcc:	00808825 	move	s1,a0
   f4fd0:	8c440000 	lw	a0,0(v0)
   f4fd4:	256cffff 	addiu	t4,t3,-1
   f4fd8:	10800004 	beqz	a0,f4fec <FLAC__metadata_iterator_set_block+0x80>
   f4fdc:	ac6c0010 	sw	t4,16(v1)
   f4fe0:	0c03db4c 	jal	f6d30 <FLAC__metadata_object_delete>
   f4fe4:	afa20000 	sw	v0,0(sp)
   f4fe8:	8fa20000 	lw	v0,0(sp)
   f4fec:	0c067e00 	jal	19f800 <free>
   f4ff0:	00402025 	move	a0,v0
   f4ff4:	8e440000 	lw	a0,0(s2)
   f4ff8:	1480000c 	bnez	a0,f502c <FLAC__metadata_iterator_set_block+0xc0>
   f4ffc:	ae300004 	sw	s0,4(s1)
   f5000:	8fbf0014 	lw	ra,20(sp)
   f5004:	8fb20010 	lw	s2,16(sp)
   f5008:	8fb1000c 	lw	s1,12(sp)
   f500c:	8fb00008 	lw	s0,8(sp)
   f5010:	00001025 	move	v0,zero
   f5014:	03e00008 	jr	ra
   f5018:	27bd0018 	addiu	sp,sp,24
   f501c:	1000ffe7 	b	f4fbc <FLAC__metadata_iterator_set_block+0x50>
   f5020:	02003825 	move	a3,s0
   f5024:	1000ffdf 	b	f4fa4 <FLAC__metadata_iterator_set_block+0x38>
   f5028:	ac660008 	sw	a2,8(v1)
   f502c:	2405000c 	li	a1,12
   f5030:	0c0679c3 	jal	19e70c <calloc>
   f5034:	24040001 	li	a0,1
   f5038:	1040fff1 	beqz	v0,f5000 <FLAC__metadata_iterator_set_block+0x94>
   f503c:	00406825 	move	t5,v0
--
   f50d8:	8c650008 	lw	a1,8(v1)
   f50dc:	1045002a 	beq	v0,a1,f5188 <FLAC__metadata_iterator_delete_block+0xdc>
   f50e0:	8c460008 	lw	a2,8(v0)
   f50e4:	ae260008 	sw	a2,8(s1)
   f50e8:	8c67000c 	lw	a3,12(v1)
   f50ec:	50470024 	beql	v0,a3,f5180 <FLAC__metadata_iterator_delete_block+0xd4>
   f50f0:	ac71000c 	sw	s1,12(v1)
   f50f4:	8c480008 	lw	t0,8(v0)
   f50f8:	10e00004 	beqz	a3,f510c <FLAC__metadata_iterator_delete_block+0x60>
   f50fc:	ad110004 	sw	s1,4(t0)
   f5100:	8ce90000 	lw	t1,0(a3)
   f5104:	240a0001 	li	t2,1
   f5108:	ad2a0004 	sw	t2,4(t1)
   f510c:	8c6b0010 	lw	t3,16(v1)
   f5110:	256cffff 	addiu	t4,t3,-1
   f5114:	10800004 	beqz	a0,f5128 <FLAC__metadata_iterator_delete_block+0x7c>
   f5118:	ac6c0010 	sw	t4,16(v1)
   f511c:	0c03db4c 	jal	f6d30 <FLAC__metadata_object_delete>
   f5120:	afa20000 	sw	v0,0(sp)
   f5124:	8fa20000 	lw	v0,0(sp)
   f5128:	0c067e00 	jal	19f800 <free>
   f512c:	00402025 	move	a0,v0
   f5130:	8fbf0014 	lw	ra,20(sp)
   f5134:	ae110004 	sw	s1,4(s0)
   f5138:	24020001 	li	v0,1
   f513c:	8fb10010 	lw	s1,16(sp)
   f5140:	8fb0000c 	lw	s0,12(sp)
   f5144:	03e00008 	jr	ra
   f5148:	27bd0018 	addiu	sp,sp,24
   f514c:	0c03d69d 	jal	f5a74 <FLAC__metadata_object_delete_data>
   f5150:	00000000 	nop
   f5154:	8e040004 	lw	a0,4(s0)
   f5158:	240e0001 	li	t6,1
   f515c:	8c8d0000 	lw	t5,0(a0)
   f5160:	1000fff3 	b	f5130 <FLAC__metadata_iterator_delete_block+0x84>
   f5164:	adae0000 	sw	t6,0(t5)
   f5168:	8fbf0014 	lw	ra,20(sp)
   f516c:	8fb10010 	lw	s1,16(sp)
   f5170:	8fb0000c 	lw	s0,12(sp)
   f5174:	00001025 	move	v0,zero
   f5178:	03e00008 	jr	ra
--
   f572c:	240500b0 	li	a1,176
   f5730:	27bdffe8 	addiu	sp,sp,-24
   f5734:	afa40000 	sw	a0,0(sp)
   f5738:	24040001 	li	a0,1
   f573c:	afbf0014 	sw	ra,20(sp)
   f5740:	0c0679c3 	jal	19e70c <calloc>
   f5744:	afb00010 	sw	s0,16(sp)
   f5748:	1040000e 	beqz	v0,f5784 <FLAC__metadata_object_new+0x60>
   f574c:	00403825 	move	a3,v0
   f5750:	8fa30000 	lw	v1,0(sp)
   f5754:	2c640007 	sltiu	a0,v1,7
   f5758:	1080000b 	beqz	a0,f5788 <FLAC__metadata_object_new+0x64>
   f575c:	ac430000 	sw	v1,0(v0)
   f5760:	3c06001e 	lui	a2,0x1e
   f5764:	00032880 	sll	a1,v1,0x2
   f5768:	24c88498 	addiu	t0,a2,-31592
   f576c:	01054821 	addu	t1,t0,a1
   f5770:	8d2a0000 	lw	t2,0(t1)
   f5774:	01400008 	jr	t2
   f5778:	00000000 	nop
   f577c:	0c067e00 	jal	19f800 <free>
   f5780:	00e02025 	move	a0,a3
   f5784:	00003825 	move	a3,zero
   f5788:	8fbf0014 	lw	ra,20(sp)
   f578c:	8fb00010 	lw	s0,16(sp)
   f5790:	00e01025 	move	v0,a3
   f5794:	03e00008 	jr	ra
   f5798:	27bd0018 	addiu	sp,sp,24
   f579c:	8f8b8224 	lw	t3,-32220(gp)
   f57a0:	8f8c8220 	lw	t4,-32224(gp)
   f57a4:	8f8e821c 	lw	t6,-32228(gp)
   f57a8:	8f908218 	lw	s0,-32232(gp)
   f57ac:	016c6821 	addu	t5,t3,t4
   f57b0:	8f998214 	lw	t9,-32236(gp)
   f57b4:	8f828210 	lw	v0,-32240(gp)
   f57b8:	01ae7821 	addu	t7,t5,t6
   f57bc:	8f83820c 	lw	v1,-32244(gp)
   f57c0:	01f0c021 	addu	t8,t7,s0
   f57c4:	8f868208 	lw	a2,-32248(gp)
   f57c8:	0319f821 	addu	ra,t8,t9
   f57cc:	03e22021 	addu	a0,ra,v0
--
   f5a0c:	00d88021 	addu	s0,a2,t8
   f5a10:	01506821 	addu	t5,t2,s0
   f5a14:	00c24821 	addu	t1,a2,v0
   f5a18:	24630040 	addiu	v1,v1,64
   f5a1c:	1583ffe7 	bne	t4,v1,f59bc <FLAC__metadata_object_new+0x298>
   f5a20:	01a91021 	addu	v0,t5,t1
   f5a24:	1000ff58 	b	f5788 <FLAC__metadata_object_new+0x64>
   f5a28:	ace20008 	sw	v0,8(a3)
   f5a2c:	00402025 	move	a0,v0
   f5a30:	0c03d4bc 	jal	f52f0 <cuesheet_calculate_length_>
   f5a34:	afa20000 	sw	v0,0(sp)
   f5a38:	8fa70000 	lw	a3,0(sp)
   f5a3c:	8fbf0014 	lw	ra,20(sp)
   f5a40:	8fb00010 	lw	s0,16(sp)
   f5a44:	00e01025 	move	v0,a3
   f5a48:	03e00008 	jr	ra
   f5a4c:	27bd0018 	addiu	sp,sp,24
   f5a50:	03e00008 	jr	ra
   f5a54:	00001025 	move	v0,zero
   f5a58:	8fa40004 	lw	a0,4(sp)
   f5a5c:	0c067e00 	jal	19f800 <free>
   f5a60:	afa70000 	sw	a3,0(sp)
   f5a64:	0c067e00 	jal	19f800 <free>
   f5a68:	8fa40000 	lw	a0,0(sp)
   f5a6c:	1000ff46 	b	f5788 <FLAC__metadata_object_new+0x64>
   f5a70:	00003825 	move	a3,zero

000f5a74 <FLAC__metadata_object_delete_data>:
   f5a74:	8c820000 	lw	v0,0(a0)
   f5a78:	27bdffe8 	addiu	sp,sp,-24
   f5a7c:	afb00008 	sw	s0,8(sp)
   f5a80:	2c430007 	sltiu	v1,v0,7
   f5a84:	afbf0014 	sw	ra,20(sp)
   f5a88:	afb20010 	sw	s2,16(sp)
   f5a8c:	afb1000c 	sw	s1,12(sp)
   f5a90:	1060010f 	beqz	v1,f5ed0 <FLAC__metadata_object_delete_data+0x45c>
   f5a94:	00808025 	move	s0,a0
   f5a98:	3c05001e 	lui	a1,0x1e
   f5a9c:	00022080 	sll	a0,v0,0x2
   f5aa0:	24a684b4 	addiu	a2,a1,-31564
   f5aa4:	00c43821 	addu	a3,a2,a0
   f5aa8:	8ce80000 	lw	t0,0(a3)
   f5aac:	01000008 	jr	t0
   f5ab0:	00000000 	nop
   f5ab4:	8e040014 	lw	a0,20(s0)
   f5ab8:	10800005 	beqz	a0,f5ad0 <FLAC__metadata_object_delete_data+0x5c>
   f5abc:	8fbf0014 	lw	ra,20(sp)
   f5ac0:	0c067e00 	jal	19f800 <free>
   f5ac4:	00000000 	nop
   f5ac8:	ae000014 	sw	zero,20(s0)
   f5acc:	8fbf0014 	lw	ra,20(sp)
   f5ad0:	8fb20010 	lw	s2,16(sp)
   f5ad4:	8fb1000c 	lw	s1,12(sp)
   f5ad8:	8fb00008 	lw	s0,8(sp)
   f5adc:	03e00008 	jr	ra
   f5ae0:	27bd0018 	addiu	sp,sp,24
   f5ae4:	8e040014 	lw	a0,20(s0)
   f5ae8:	50800005 	beqzl	a0,f5b00 <FLAC__metadata_object_delete_data+0x8c>
   f5aec:	8e09001c 	lw	t1,28(s0)
   f5af0:	0c067e00 	jal	19f800 <free>
   f5af4:	00000000 	nop
   f5af8:	ae000014 	sw	zero,20(s0)
   f5afc:	8e09001c 	lw	t1,28(s0)
   f5b00:	1120fff2 	beqz	t1,f5acc <FLAC__metadata_object_delete_data+0x58>
   f5b04:	01208825 	move	s1,t1
   f5b08:	8e0a0018 	lw	t2,24(s0)
   f5b0c:	11400054 	beqz	t2,f5c60 <FLAC__metadata_object_delete_data+0x1ec>
   f5b10:	000a58c0 	sll	t3,t2,0x3
   f5b14:	256cfff8 	addiu	t4,t3,-8
   f5b18:	000c68c2 	srl	t5,t4,0x3
   f5b1c:	25ae0001 	addiu	t6,t5,1
   f5b20:	31cf0007 	andi	t7,t6,0x7
   f5b24:	01206025 	move	t4,t1
   f5b28:	11e00031 	beqz	t7,f5bf0 <FLAC__metadata_object_delete_data+0x17c>
   f5b2c:	01699021 	addu	s2,t3,t1
   f5b30:	24180001 	li	t8,1
   f5b34:	11f80027 	beq	t7,t8,f5bd4 <FLAC__metadata_object_delete_data+0x160>
   f5b38:	24190002 	li	t9,2
   f5b3c:	11f90020 	beq	t7,t9,f5bc0 <FLAC__metadata_object_delete_data+0x14c>
   f5b40:	241f0003 	li	ra,3
   f5b44:	11ff0019 	beq	t7,ra,f5bac <FLAC__metadata_object_delete_data+0x138>
   f5b48:	24030004 	li	v1,4
   f5b4c:	11e30012 	beq	t7,v1,f5b98 <FLAC__metadata_object_delete_data+0x124>
   f5b50:	24040005 	li	a0,5
   f5b54:	11e4000b 	beq	t7,a0,f5b84 <FLAC__metadata_object_delete_data+0x110>
   f5b58:	24050006 	li	a1,6
   f5b5c:	51e50005 	beql	t7,a1,f5b74 <FLAC__metadata_object_delete_data+0x100>
   f5b60:	8d840004 	lw	a0,4(t4)
   f5b64:	0c067e00 	jal	19f800 <free>
   f5b68:	8d240004 	lw	a0,4(t1)
   f5b6c:	262c0008 	addiu	t4,s1,8
   f5b70:	8d840004 	lw	a0,4(t4)
   f5b74:	0c067e00 	jal	19f800 <free>
   f5b78:	afac0000 	sw	t4,0(sp)
   f5b7c:	8fa20000 	lw	v0,0(sp)
   f5b80:	244c0008 	addiu	t4,v0,8
   f5b84:	8d840004 	lw	a0,4(t4)
   f5b88:	0c067e00 	jal	19f800 <free>
   f5b8c:	afac0000 	sw	t4,0(sp)
   f5b90:	8fa60000 	lw	a2,0(sp)
   f5b94:	24cc0008 	addiu	t4,a2,8
   f5b98:	8d840004 	lw	a0,4(t4)
   f5b9c:	0c067e00 	jal	19f800 <free>
   f5ba0:	afac0000 	sw	t4,0(sp)
   f5ba4:	8fa70000 	lw	a3,0(sp)
   f5ba8:	24ec0008 	addiu	t4,a3,8
   f5bac:	8d840004 	lw	a0,4(t4)
   f5bb0:	0c067e00 	jal	19f800 <free>
   f5bb4:	afac0000 	sw	t4,0(sp)
   f5bb8:	8fa80000 	lw	t0,0(sp)
   f5bbc:	250c0008 	addiu	t4,t0,8
   f5bc0:	8d840004 	lw	a0,4(t4)
   f5bc4:	0c067e00 	jal	19f800 <free>
   f5bc8:	afac0000 	sw	t4,0(sp)
   f5bcc:	8fa90000 	lw	t1,0(sp)
   f5bd0:	252c0008 	addiu	t4,t1,8
   f5bd4:	8d840004 	lw	a0,4(t4)
   f5bd8:	0c067e00 	jal	19f800 <free>
   f5bdc:	afac0000 	sw	t4,0(sp)
   f5be0:	8faa0000 	lw	t2,0(sp)
   f5be4:	254c0008 	addiu	t4,t2,8
   f5be8:	124c001d 	beq	s2,t4,f5c60 <FLAC__metadata_object_delete_data+0x1ec>
   f5bec:	00000000 	nop
   f5bf0:	8d840004 	lw	a0,4(t4)
   f5bf4:	0c067e00 	jal	19f800 <free>
   f5bf8:	afac0000 	sw	t4,0(sp)
   f5bfc:	8fab0000 	lw	t3,0(sp)
   f5c00:	0c067e00 	jal	19f800 <free>
   f5c04:	8d64000c 	lw	a0,12(t3)
   f5c08:	8fad0000 	lw	t5,0(sp)
   f5c0c:	0c067e00 	jal	19f800 <free>
   f5c10:	8da40014 	lw	a0,20(t5)
   f5c14:	8fae0000 	lw	t6,0(sp)
   f5c18:	0c067e00 	jal	19f800 <free>
   f5c1c:	8dc4001c 	lw	a0,28(t6)
   f5c20:	8faf0000 	lw	t7,0(sp)
   f5c24:	0c067e00 	jal	19f800 <free>
   f5c28:	8de40024 	lw	a0,36(t7)
   f5c2c:	8fb80000 	lw	t8,0(sp)
   f5c30:	0c067e00 	jal	19f800 <free>
   f5c34:	8f04002c 	lw	a0,44(t8)
   f5c38:	8fb90000 	lw	t9,0(sp)
   f5c3c:	0c067e00 	jal	19f800 <free>
   f5c40:	8f240034 	lw	a0,52(t9)
   f5c44:	8fa30000 	lw	v1,0(sp)
   f5c48:	0c067e00 	jal	19f800 <free>
   f5c4c:	8c64003c 	lw	a0,60(v1)
   f5c50:	8fa40000 	lw	a0,0(sp)
   f5c54:	248c0040 	addiu	t4,a0,64
   f5c58:	564cffe6 	bnel	s2,t4,f5bf4 <FLAC__metadata_object_delete_data+0x180>
   f5c5c:	8d840004 	lw	a0,4(t4)
   f5c60:	0c067e00 	jal	19f800 <free>
   f5c64:	02202025 	move	a0,s1
   f5c68:	ae00001c 	sw	zero,28(s0)
   f5c6c:	1000ff97 	b	f5acc <FLAC__metadata_object_delete_data+0x58>
   f5c70:	ae000018 	sw	zero,24(s0)
   f5c74:	8e040014 	lw	a0,20(s0)
   f5c78:	50800005 	beqzl	a0,f5c90 <FLAC__metadata_object_delete_data+0x21c>
   f5c7c:	8e040018 	lw	a0,24(s0)
   f5c80:	0c067e00 	jal	19f800 <free>
   f5c84:	00000000 	nop
   f5c88:	ae000014 	sw	zero,20(s0)
   f5c8c:	8e040018 	lw	a0,24(s0)
   f5c90:	50800005 	beqzl	a0,f5ca8 <FLAC__metadata_object_delete_data+0x234>
   f5c94:	8e040030 	lw	a0,48(s0)
   f5c98:	0c067e00 	jal	19f800 <free>
   f5c9c:	00000000 	nop
   f5ca0:	ae000018 	sw	zero,24(s0)
   f5ca4:	8e040030 	lw	a0,48(s0)
   f5ca8:	1080ff89 	beqz	a0,f5ad0 <FLAC__metadata_object_delete_data+0x5c>
   f5cac:	8fbf0014 	lw	ra,20(sp)
   f5cb0:	0c067e00 	jal	19f800 <free>
   f5cb4:	00000000 	nop
   f5cb8:	1000ff84 	b	f5acc <FLAC__metadata_object_delete_data+0x58>
   f5cbc:	ae000030 	sw	zero,48(s0)
   f5cc0:	8e1200a8 	lw	s2,168(s0)
   f5cc4:	1240ff81 	beqz	s2,f5acc <FLAC__metadata_object_delete_data+0x58>
   f5cc8:	02408825 	move	s1,s2
   f5ccc:	8e1f00a4 	lw	ra,164(s0)
   f5cd0:	13e0007a 	beqz	ra,f5ebc <FLAC__metadata_object_delete_data+0x448>
   f5cd4:	001f2940 	sll	a1,ra,0x5
   f5cd8:	24a2ffe0 	addiu	v0,a1,-32
   f5cdc:	00023142 	srl	a2,v0,0x5
   f5ce0:	24c70001 	addiu	a3,a2,1
   f5ce4:	30e80007 	andi	t0,a3,0x7
   f5ce8:	0240c025 	move	t8,s2
   f5cec:	11000040 	beqz	t0,f5df0 <FLAC__metadata_object_delete_data+0x37c>
   f5cf0:	00b29021 	addu	s2,a1,s2
   f5cf4:	24090001 	li	t1,1
   f5cf8:	11090034 	beq	t0,t1,f5dcc <FLAC__metadata_object_delete_data+0x358>
   f5cfc:	240a0002 	li	t2,2
   f5d00:	110a002b 	beq	t0,t2,f5db0 <FLAC__metadata_object_delete_data+0x33c>
   f5d04:	240c0003 	li	t4,3
   f5d08:	110c0022 	beq	t0,t4,f5d94 <FLAC__metadata_object_delete_data+0x320>
   f5d0c:	240b0004 	li	t3,4
   f5d10:	110b0019 	beq	t0,t3,f5d78 <FLAC__metadata_object_delete_data+0x304>
   f5d14:	240d0005 	li	t5,5
   f5d18:	110d0010 	beq	t0,t5,f5d5c <FLAC__metadata_object_delete_data+0x2e8>
   f5d1c:	240e0006 	li	t6,6
   f5d20:	510e0008 	beql	t0,t6,f5d44 <FLAC__metadata_object_delete_data+0x2d0>
   f5d24:	8f040018 	lw	a0,24(t8)
   f5d28:	8e240018 	lw	a0,24(s1)
   f5d2c:	50800004 	beqzl	a0,f5d40 <FLAC__metadata_object_delete_data+0x2cc>
   f5d30:	26380020 	addiu	t8,s1,32
   f5d34:	0c067e00 	jal	19f800 <free>
   f5d38:	00000000 	nop
   f5d3c:	26380020 	addiu	t8,s1,32
   f5d40:	8f040018 	lw	a0,24(t8)
   f5d44:	50800005 	beqzl	a0,f5d5c <FLAC__metadata_object_delete_data+0x2e8>
   f5d48:	27180020 	addiu	t8,t8,32
   f5d4c:	0c067e00 	jal	19f800 <free>
   f5d50:	afb80000 	sw	t8,0(sp)
   f5d54:	8fb80000 	lw	t8,0(sp)
   f5d58:	27180020 	addiu	t8,t8,32
   f5d5c:	8f040018 	lw	a0,24(t8)
   f5d60:	50800005 	beqzl	a0,f5d78 <FLAC__metadata_object_delete_data+0x304>
   f5d64:	27180020 	addiu	t8,t8,32
   f5d68:	0c067e00 	jal	19f800 <free>
   f5d6c:	afb80000 	sw	t8,0(sp)
   f5d70:	8fb80000 	lw	t8,0(sp)
   f5d74:	27180020 	addiu	t8,t8,32
   f5d78:	8f040018 	lw	a0,24(t8)
   f5d7c:	50800005 	beqzl	a0,f5d94 <FLAC__metadata_object_delete_data+0x320>
   f5d80:	27180020 	addiu	t8,t8,32
   f5d84:	0c067e00 	jal	19f800 <free>
   f5d88:	afb80000 	sw	t8,0(sp)
   f5d8c:	8fb80000 	lw	t8,0(sp)
   f5d90:	27180020 	addiu	t8,t8,32
   f5d94:	8f040018 	lw	a0,24(t8)
   f5d98:	50800005 	beqzl	a0,f5db0 <FLAC__metadata_object_delete_data+0x33c>
   f5d9c:	27180020 	addiu	t8,t8,32
   f5da0:	0c067e00 	jal	19f800 <free>
   f5da4:	afb80000 	sw	t8,0(sp)
   f5da8:	8fb80000 	lw	t8,0(sp)
   f5dac:	27180020 	addiu	t8,t8,32
   f5db0:	8f040018 	lw	a0,24(t8)
   f5db4:	50800005 	beqzl	a0,f5dcc <FLAC__metadata_object_delete_data+0x358>
   f5db8:	27180020 	addiu	t8,t8,32
   f5dbc:	0c067e00 	jal	19f800 <free>
   f5dc0:	afb80000 	sw	t8,0(sp)
   f5dc4:	8fb80000 	lw	t8,0(sp)
   f5dc8:	27180020 	addiu	t8,t8,32
   f5dcc:	8f040018 	lw	a0,24(t8)
   f5dd0:	50800005 	beqzl	a0,f5de8 <FLAC__metadata_object_delete_data+0x374>
   f5dd4:	27180020 	addiu	t8,t8,32
   f5dd8:	0c067e00 	jal	19f800 <free>
   f5ddc:	afb80000 	sw	t8,0(sp)
   f5de0:	8fb80000 	lw	t8,0(sp)
   f5de4:	27180020 	addiu	t8,t8,32
   f5de8:	13120034 	beq	t8,s2,f5ebc <FLAC__metadata_object_delete_data+0x448>
   f5dec:	00000000 	nop
   f5df0:	8f040018 	lw	a0,24(t8)
   f5df4:	50800005 	beqzl	a0,f5e0c <FLAC__metadata_object_delete_data+0x398>
   f5df8:	8f040038 	lw	a0,56(t8)
   f5dfc:	0c067e00 	jal	19f800 <free>
   f5e00:	afb80000 	sw	t8,0(sp)
   f5e04:	8fb80000 	lw	t8,0(sp)
   f5e08:	8f040038 	lw	a0,56(t8)
   f5e0c:	10800004 	beqz	a0,f5e20 <FLAC__metadata_object_delete_data+0x3ac>
   f5e10:	270f0020 	addiu	t7,t8,32
   f5e14:	0c067e00 	jal	19f800 <free>
   f5e18:	afaf0000 	sw	t7,0(sp)
   f5e1c:	8faf0000 	lw	t7,0(sp)
   f5e20:	8de40038 	lw	a0,56(t7)
   f5e24:	50800005 	beqzl	a0,f5e3c <FLAC__metadata_object_delete_data+0x3c8>
   f5e28:	8de40058 	lw	a0,88(t7)
   f5e2c:	0c067e00 	jal	19f800 <free>
   f5e30:	afaf0000 	sw	t7,0(sp)
   f5e34:	8faf0000 	lw	t7,0(sp)
   f5e38:	8de40058 	lw	a0,88(t7)
   f5e3c:	50800005 	beqzl	a0,f5e54 <FLAC__metadata_object_delete_data+0x3e0>
   f5e40:	8de40078 	lw	a0,120(t7)
   f5e44:	0c067e00 	jal	19f800 <free>
   f5e48:	afaf0000 	sw	t7,0(sp)
   f5e4c:	8faf0000 	lw	t7,0(sp)
   f5e50:	8de40078 	lw	a0,120(t7)
   f5e54:	50800005 	beqzl	a0,f5e6c <FLAC__metadata_object_delete_data+0x3f8>
   f5e58:	8de40098 	lw	a0,152(t7)
   f5e5c:	0c067e00 	jal	19f800 <free>
   f5e60:	afaf0000 	sw	t7,0(sp)
   f5e64:	8faf0000 	lw	t7,0(sp)
   f5e68:	8de40098 	lw	a0,152(t7)
   f5e6c:	50800005 	beqzl	a0,f5e84 <FLAC__metadata_object_delete_data+0x410>
   f5e70:	8de400b8 	lw	a0,184(t7)
   f5e74:	0c067e00 	jal	19f800 <free>
   f5e78:	afaf0000 	sw	t7,0(sp)
   f5e7c:	8faf0000 	lw	t7,0(sp)
   f5e80:	8de400b8 	lw	a0,184(t7)
   f5e84:	50800005 	beqzl	a0,f5e9c <FLAC__metadata_object_delete_data+0x428>
   f5e88:	8de400d8 	lw	a0,216(t7)
   f5e8c:	0c067e00 	jal	19f800 <free>
   f5e90:	afaf0000 	sw	t7,0(sp)
   f5e94:	8faf0000 	lw	t7,0(sp)
   f5e98:	8de400d8 	lw	a0,216(t7)
   f5e9c:	10800005 	beqz	a0,f5eb4 <FLAC__metadata_object_delete_data+0x440>
   f5ea0:	25f800e0 	addiu	t8,t7,224
   f5ea4:	0c067e00 	jal	19f800 <free>
   f5ea8:	afaf0000 	sw	t7,0(sp)
   f5eac:	8faf0000 	lw	t7,0(sp)
   f5eb0:	25f800e0 	addiu	t8,t7,224
   f5eb4:	5712ffcf 	bnel	t8,s2,f5df4 <FLAC__metadata_object_delete_data+0x380>
   f5eb8:	8f040018 	lw	a0,24(t8)
   f5ebc:	0c067e00 	jal	19f800 <free>
   f5ec0:	02202025 	move	a0,s1
   f5ec4:	ae0000a8 	sw	zero,168(s0)
   f5ec8:	1000ff00 	b	f5acc <FLAC__metadata_object_delete_data+0x58>
   f5ecc:	ae0000a4 	sw	zero,164(s0)
   f5ed0:	8c840010 	lw	a0,16(a0)
   f5ed4:	1080fefe 	beqz	a0,f5ad0 <FLAC__metadata_object_delete_data+0x5c>
   f5ed8:	8fbf0014 	lw	ra,20(sp)
   f5edc:	0c067e00 	jal	19f800 <free>
   f5ee0:	00000000 	nop
   f5ee4:	1000fef9 	b	f5acc <FLAC__metadata_object_delete_data+0x58>
   f5ee8:	ae000010 	sw	zero,16(s0)

000f5eec <FLAC__metadata_object_clone>:
   f5eec:	27bdffc0 	addiu	sp,sp,-64
   f5ef0:	afb1001c 	sw	s1,28(sp)
   f5ef4:	00808825 	move	s1,a0
   f5ef8:	8c840000 	lw	a0,0(a0)
   f5efc:	afbf003c 	sw	ra,60(sp)
   f5f00:	afbe0038 	sw	s8,56(sp)
   f5f04:	afb70034 	sw	s7,52(sp)
   f5f08:	afb60030 	sw	s6,48(sp)
   f5f0c:	afb5002c 	sw	s5,44(sp)
   f5f10:	afb40028 	sw	s4,40(sp)
   f5f14:	afb30024 	sw	s3,36(sp)
   f5f18:	afb20020 	sw	s2,32(sp)
   f5f1c:	0c03d5c9 	jal	f5724 <FLAC__metadata_object_new>
   f5f20:	afb00018 	sw	s0,24(sp)
   f5f24:	50400028 	beqzl	v0,f5fc8 <FLAC__metadata_object_clone+0xdc>
--
   f5f6c:	8e2a0010 	lw	t2,16(s1)
   f5f70:	3c030aaa 	lui	v1,0xaaa
   f5f74:	3467aaab 	ori	a3,v1,0xaaab
   f5f78:	0147102b 	sltu	v0,t2,a3
   f5f7c:	1040000d 	beqz	v0,f5fb4 <FLAC__metadata_object_clone+0xc8>
   f5f80:	ae0a0010 	sw	t2,16(s0)
   f5f84:	000a5840 	sll	t3,t2,0x1
   f5f88:	016a6021 	addu	t4,t3,t2
   f5f8c:	000c70c0 	sll	t6,t4,0x3
   f5f90:	11c0016c 	beqz	t6,f6544 <FLAC__metadata_object_clone+0x658>
   f5f94:	8fbf003c 	lw	ra,60(sp)
   f5f98:	8e370014 	lw	s7,20(s1)
   f5f9c:	12e00169 	beqz	s7,f6544 <FLAC__metadata_object_clone+0x658>
   f5fa0:	01c02025 	move	a0,t6
   f5fa4:	0c067dfc 	jal	19f7f0 <malloc>
   f5fa8:	afae0000 	sw	t6,0(sp)
   f5fac:	1440013b 	bnez	v0,f649c <FLAC__metadata_object_clone+0x5b0>
   f5fb0:	00402025 	move	a0,v0
   f5fb4:	0c03d69d 	jal	f5a74 <FLAC__metadata_object_delete_data>
   f5fb8:	02002025 	move	a0,s0
   f5fbc:	0c067e00 	jal	19f800 <free>
   f5fc0:	02002025 	move	a0,s0
   f5fc4:	00008025 	move	s0,zero
   f5fc8:	8fbf003c 	lw	ra,60(sp)
   f5fcc:	8fbe0038 	lw	s8,56(sp)
   f5fd0:	8fb70034 	lw	s7,52(sp)
   f5fd4:	8fb60030 	lw	s6,48(sp)
   f5fd8:	8fb5002c 	lw	s5,44(sp)
   f5fdc:	8fb40028 	lw	s4,40(sp)
   f5fe0:	8fb30024 	lw	s3,36(sp)
   f5fe4:	8fb20020 	lw	s2,32(sp)
   f5fe8:	8fb1001c 	lw	s1,28(sp)
   f5fec:	02001025 	move	v0,s0
   f5ff0:	8fb00018 	lw	s0,24(sp)
   f5ff4:	03e00008 	jr	ra
   f5ff8:	27bd0040 	addiu	sp,sp,64
   f5ffc:	26230010 	addiu	v1,s1,16
   f6000:	26020010 	addiu	v0,s0,16
   f6004:	262b00b0 	addiu	t3,s1,176
   f6008:	886c0003 	lwl	t4,3(v1)
   f600c:	886d0007 	lwl	t5,7(v1)
--
   f62f4:	266400c0 	addiu	a0,s3,192
   f62f8:	104001c7 	beqz	v0,f6a18 <FLAC__metadata_object_clone+0xb2c>
   f62fc:	262500e0 	addiu	a1,s1,224
   f6300:	0c03d597 	jal	f565c <copy_track_>
   f6304:	266400e0 	addiu	a0,s3,224
   f6308:	104001c3 	beqz	v0,f6a18 <FLAC__metadata_object_clone+0xb2c>
   f630c:	269e0008 	addiu	s8,s4,8
   f6310:	03c0a025 	move	s4,s8
   f6314:	26730100 	addiu	s3,s3,256
   f6318:	165effdc 	bne	s2,s8,f628c <FLAC__metadata_object_clone+0x3a0>
   f631c:	26310100 	addiu	s1,s1,256
   f6320:	1000ff29 	b	f5fc8 <FLAC__metadata_object_clone+0xdc>
   f6324:	ae1700a8 	sw	s7,168(s0)
   f6328:	8e330010 	lw	s3,16(s1)
   f632c:	ae130010 	sw	s3,16(s0)
   f6330:	0c0696a8 	jal	1a5aa0 <strdup>
   f6334:	8e240014 	lw	a0,20(s1)
   f6338:	1040ff1e 	beqz	v0,f5fb4 <FLAC__metadata_object_clone+0xc8>
   f633c:	00000000 	nop
   f6340:	8e040014 	lw	a0,20(s0)
   f6344:	0c067e00 	jal	19f800 <free>
   f6348:	afa20000 	sw	v0,0(sp)
   f634c:	8fa80000 	lw	t0,0(sp)
   f6350:	ae080014 	sw	t0,20(s0)
   f6354:	0c0696a8 	jal	1a5aa0 <strdup>
   f6358:	8e240018 	lw	a0,24(s1)
   f635c:	1040ff15 	beqz	v0,f5fb4 <FLAC__metadata_object_clone+0xc8>
   f6360:	00000000 	nop
   f6364:	8e040018 	lw	a0,24(s0)
   f6368:	0c067e00 	jal	19f800 <free>
   f636c:	afa20000 	sw	v0,0(sp)
   f6370:	8fb50000 	lw	s5,0(sp)
   f6374:	ae150018 	sw	s5,24(s0)
   f6378:	8e2a001c 	lw	t2,28(s1)
   f637c:	ae0a001c 	sw	t2,28(s0)
   f6380:	8e230020 	lw	v1,32(s1)
   f6384:	ae030020 	sw	v1,32(s0)
   f6388:	8e270024 	lw	a3,36(s1)
   f638c:	ae070024 	sw	a3,36(s0)
   f6390:	8e220028 	lw	v0,40(s1)
   f6394:	ae020028 	sw	v0,40(s0)
   f6398:	8e2b002c 	lw	t3,44(s1)
   f639c:	11600066 	beqz	t3,f6538 <FLAC__metadata_object_clone+0x64c>
   f63a0:	ae0b002c 	sw	t3,44(s0)
   f63a4:	8e370030 	lw	s7,48(s1)
   f63a8:	12e00063 	beqz	s7,f6538 <FLAC__metadata_object_clone+0x64c>
   f63ac:	01602025 	move	a0,t3
   f63b0:	0c067dfc 	jal	19f7f0 <malloc>
   f63b4:	afab0000 	sw	t3,0(sp)
   f63b8:	1040fefe 	beqz	v0,f5fb4 <FLAC__metadata_object_clone+0xc8>
--
   f646c:	afa60000 	sw	a2,0(sp)
   f6470:	8e2d0008 	lw	t5,8(s1)
   f6474:	8fb40000 	lw	s4,0(sp)
   f6478:	11b40031 	beq	t5,s4,f6540 <FLAC__metadata_object_clone+0x654>
   f647c:	01b49023 	subu	s2,t5,s4
   f6480:	8e370014 	lw	s7,20(s1)
   f6484:	12e0002e 	beqz	s7,f6540 <FLAC__metadata_object_clone+0x654>
   f6488:	02402025 	move	a0,s2
   f648c:	0c067dfc 	jal	19f7f0 <malloc>
   f6490:	afb20000 	sw	s2,0(sp)
   f6494:	1040fec7 	beqz	v0,f5fb4 <FLAC__metadata_object_clone+0xc8>
   f6498:	00402025 	move	a0,v0
   f649c:	8fa60000 	lw	a2,0(sp)
   f64a0:	0c067a4c 	jal	19e930 <memcpy>
   f64a4:	02e02825 	move	a1,s7
   f64a8:	1000fec7 	b	f5fc8 <FLAC__metadata_object_clone+0xdc>
   f64ac:	ae020014 	sw	v0,20(s0)
   f64b0:	8e040014 	lw	a0,20(s0)
   f64b4:	50800005 	beqzl	a0,f64cc <FLAC__metadata_object_clone+0x5e0>
   f64b8:	8e370010 	lw	s7,16(s1)
   f64bc:	0c067e00 	jal	19f800 <free>
   f64c0:	00000000 	nop
   f64c4:	ae000014 	sw	zero,20(s0)
   f64c8:	8e370010 	lw	s7,16(s1)
   f64cc:	8e2e0014 	lw	t6,20(s1)
   f64d0:	11c0014b 	beqz	t6,f6a00 <FLAC__metadata_object_clone+0xb14>
   f64d4:	ae170010 	sw	s7,16(s0)
   f64d8:	26e40001 	addiu	a0,s7,1
   f64dc:	0097782b 	sltu	t7,a0,s7
   f64e0:	15e0feb4 	bnez	t7,f5fb4 <FLAC__metadata_object_clone+0xc8>
   f64e4:	00000000 	nop
   f64e8:	afb70000 	sw	s7,0(sp)
   f64ec:	0c067dfc 	jal	19f7f0 <malloc>
   f64f0:	afae0004 	sw	t6,4(sp)
   f64f4:	1040feaf 	beqz	v0,f5fb4 <FLAC__metadata_object_clone+0xc8>
   f64f8:	00402025 	move	a0,v0
   f64fc:	8fa60000 	lw	a2,0(sp)
   f6500:	0c067a4c 	jal	19e930 <memcpy>
   f6504:	8fa50004 	lw	a1,4(sp)
   f6508:	8fa40000 	lw	a0,0(sp)
   f650c:	0044c021 	addu	t8,v0,a0
--
   f68e4:	001e68c2 	srl	t5,s8,0x3
   f68e8:	25b40001 	addiu	s4,t5,1
   f68ec:	32920007 	andi	s2,s4,0x7
   f68f0:	12400026 	beqz	s2,f698c <FLAC__metadata_object_clone+0xaa0>
   f68f4:	02b1b021 	addu	s6,s5,s1
   f68f8:	24180001 	li	t8,1
   f68fc:	1258001e 	beq	s2,t8,f6978 <FLAC__metadata_object_clone+0xa8c>
   f6900:	00000000 	nop
   f6904:	24040002 	li	a0,2
   f6908:	12440018 	beq	s2,a0,f696c <FLAC__metadata_object_clone+0xa80>
   f690c:	24190003 	li	t9,3
   f6910:	12590013 	beq	s2,t9,f6960 <FLAC__metadata_object_clone+0xa74>
   f6914:	24050004 	li	a1,4
   f6918:	1245000e 	beq	s2,a1,f6954 <FLAC__metadata_object_clone+0xa68>
   f691c:	24060005 	li	a2,5
   f6920:	12460009 	beq	s2,a2,f6948 <FLAC__metadata_object_clone+0xa5c>
   f6924:	241f0006 	li	ra,6
   f6928:	525f0005 	beql	s2,ra,f6940 <FLAC__metadata_object_clone+0xa54>
   f692c:	8e640004 	lw	a0,4(s3)
   f6930:	8ea40004 	lw	a0,4(s5)
   f6934:	0c067e00 	jal	19f800 <free>
   f6938:	26b30008 	addiu	s3,s5,8
   f693c:	8e640004 	lw	a0,4(s3)
   f6940:	0c067e00 	jal	19f800 <free>
   f6944:	26730008 	addiu	s3,s3,8
   f6948:	8e640004 	lw	a0,4(s3)
   f694c:	0c067e00 	jal	19f800 <free>
   f6950:	26730008 	addiu	s3,s3,8
   f6954:	8e640004 	lw	a0,4(s3)
   f6958:	0c067e00 	jal	19f800 <free>
   f695c:	26730008 	addiu	s3,s3,8
   f6960:	8e640004 	lw	a0,4(s3)
   f6964:	0c067e00 	jal	19f800 <free>
   f6968:	26730008 	addiu	s3,s3,8
   f696c:	8e640004 	lw	a0,4(s3)
   f6970:	0c067e00 	jal	19f800 <free>
   f6974:	26730008 	addiu	s3,s3,8
   f6978:	0c067e00 	jal	19f800 <free>
   f697c:	8e640004 	lw	a0,4(s3)
   f6980:	26690008 	addiu	t1,s3,8
   f6984:	11360014 	beq	t1,s6,f69d8 <FLAC__metadata_object_clone+0xaec>
   f6988:	01209825 	move	s3,t1
   f698c:	0c067e00 	jal	19f800 <free>
   f6990:	8e640004 	lw	a0,4(s3)
   f6994:	0c067e00 	jal	19f800 <free>
   f6998:	8e64000c 	lw	a0,12(s3)
   f699c:	0c067e00 	jal	19f800 <free>
   f69a0:	8e640014 	lw	a0,20(s3)
   f69a4:	0c067e00 	jal	19f800 <free>
   f69a8:	8e64001c 	lw	a0,28(s3)
   f69ac:	0c067e00 	jal	19f800 <free>
   f69b0:	8e640024 	lw	a0,36(s3)
   f69b4:	0c067e00 	jal	19f800 <free>
   f69b8:	8e64002c 	lw	a0,44(s3)
   f69bc:	0c067e00 	jal	19f800 <free>
   f69c0:	8e640034 	lw	a0,52(s3)
   f69c4:	0c067e00 	jal	19f800 <free>
   f69c8:	8e64003c 	lw	a0,60(s3)
   f69cc:	26680040 	addiu	t0,s3,64
   f69d0:	1516ffee 	bne	t0,s6,f698c <FLAC__metadata_object_clone+0xaa0>
   f69d4:	01009825 	move	s3,t0
   f69d8:	0c067e00 	jal	19f800 <free>
   f69dc:	02a02025 	move	a0,s5
   f69e0:	02002025 	move	a0,s0
   f69e4:	ae00001c 	sw	zero,28(s0)
   f69e8:	0c03d69d 	jal	f5a74 <FLAC__metadata_object_delete_data>
   f69ec:	ae000018 	sw	zero,24(s0)
   f69f0:	0c067e00 	jal	19f800 <free>
   f69f4:	02002025 	move	a0,s0
   f69f8:	1000fd73 	b	f5fc8 <FLAC__metadata_object_clone+0xdc>
   f69fc:	00008025 	move	s0,zero
   f6a00:	0c067dfc 	jal	19f7f0 <malloc>
   f6a04:	24040001 	li	a0,1
   f6a08:	1040fd6a 	beqz	v0,f5fb4 <FLAC__metadata_object_clone+0xc8>
   f6a0c:	ae020014 	sw	v0,20(s0)
   f6a10:	1000fec1 	b	f6518 <FLAC__metadata_object_clone+0x62c>
   f6a14:	a0400000 	sb	zero,0(v0)
   f6a18:	0012f940 	sll	ra,s2,0x5
   f6a1c:	27e5ffe0 	addiu	a1,ra,-32
   f6a20:	00053942 	srl	a3,a1,0x5
   f6a24:	24e60001 	addiu	a2,a3,1
   f6a28:	30c80007 	andi	t0,a2,0x7
   f6a2c:	11000034 	beqz	t0,f6b00 <FLAC__metadata_object_clone+0xc14>
   f6a30:	02ff9021 	addu	s2,s7,ra
   f6a34:	24090001 	li	t1,1
   f6a38:	11090029 	beq	t0,t1,f6ae0 <FLAC__metadata_object_clone+0xbf4>
   f6a3c:	24030002 	li	v1,2
   f6a40:	11030022 	beq	t0,v1,f6acc <FLAC__metadata_object_clone+0xbe0>
   f6a44:	24020003 	li	v0,3
   f6a48:	1102001b 	beq	t0,v0,f6ab8 <FLAC__metadata_object_clone+0xbcc>
   f6a4c:	240a0004 	li	t2,4
   f6a50:	110a0014 	beq	t0,t2,f6aa4 <FLAC__metadata_object_clone+0xbb8>
   f6a54:	24160005 	li	s6,5
   f6a58:	1116000d 	beq	t0,s6,f6a90 <FLAC__metadata_object_clone+0xba4>
   f6a5c:	240b0006 	li	t3,6
   f6a60:	510b0007 	beql	t0,t3,f6a80 <FLAC__metadata_object_clone+0xb94>
   f6a64:	8ea40018 	lw	a0,24(s5)
   f6a68:	8ee40018 	lw	a0,24(s7)
   f6a6c:	10800003 	beqz	a0,f6a7c <FLAC__metadata_object_clone+0xb90>
   f6a70:	26f50020 	addiu	s5,s7,32
   f6a74:	0c067e00 	jal	19f800 <free>
   f6a78:	00000000 	nop
   f6a7c:	8ea40018 	lw	a0,24(s5)
   f6a80:	10800003 	beqz	a0,f6a90 <FLAC__metadata_object_clone+0xba4>
   f6a84:	26b50020 	addiu	s5,s5,32
   f6a88:	0c067e00 	jal	19f800 <free>
   f6a8c:	00000000 	nop
   f6a90:	8ea40018 	lw	a0,24(s5)
   f6a94:	10800003 	beqz	a0,f6aa4 <FLAC__metadata_object_clone+0xbb8>
   f6a98:	26b50020 	addiu	s5,s5,32
   f6a9c:	0c067e00 	jal	19f800 <free>
   f6aa0:	00000000 	nop
   f6aa4:	8ea40018 	lw	a0,24(s5)
   f6aa8:	10800003 	beqz	a0,f6ab8 <FLAC__metadata_object_clone+0xbcc>
   f6aac:	26b50020 	addiu	s5,s5,32
   f6ab0:	0c067e00 	jal	19f800 <free>
   f6ab4:	00000000 	nop
   f6ab8:	8ea40018 	lw	a0,24(s5)
   f6abc:	10800003 	beqz	a0,f6acc <FLAC__metadata_object_clone+0xbe0>
   f6ac0:	26b50020 	addiu	s5,s5,32
   f6ac4:	0c067e00 	jal	19f800 <free>
   f6ac8:	00000000 	nop
   f6acc:	8ea40018 	lw	a0,24(s5)
   f6ad0:	10800003 	beqz	a0,f6ae0 <FLAC__metadata_object_clone+0xbf4>
   f6ad4:	26b50020 	addiu	s5,s5,32
   f6ad8:	0c067e00 	jal	19f800 <free>
   f6adc:	00000000 	nop
   f6ae0:	8ea40018 	lw	a0,24(s5)
   f6ae4:	10800004 	beqz	a0,f6af8 <FLAC__metadata_object_clone+0xc0c>
   f6ae8:	26ac0020 	addiu	t4,s5,32
   f6aec:	0c067e00 	jal	19f800 <free>
   f6af0:	00000000 	nop
   f6af4:	26ac0020 	addiu	t4,s5,32
   f6af8:	124c002c 	beq	s2,t4,f6bac <FLAC__metadata_object_clone+0xcc0>
   f6afc:	0180a825 	move	s5,t4
   f6b00:	8ea40018 	lw	a0,24(s5)
   f6b04:	50800004 	beqzl	a0,f6b18 <FLAC__metadata_object_clone+0xc2c>
   f6b08:	8ea40038 	lw	a0,56(s5)
   f6b0c:	0c067e00 	jal	19f800 <free>
   f6b10:	00000000 	nop
   f6b14:	8ea40038 	lw	a0,56(s5)
   f6b18:	10800003 	beqz	a0,f6b28 <FLAC__metadata_object_clone+0xc3c>
   f6b1c:	26b50020 	addiu	s5,s5,32
   f6b20:	0c067e00 	jal	19f800 <free>
   f6b24:	00000000 	nop
   f6b28:	8ea40038 	lw	a0,56(s5)
   f6b2c:	50800004 	beqzl	a0,f6b40 <FLAC__metadata_object_clone+0xc54>
   f6b30:	8ea40058 	lw	a0,88(s5)
   f6b34:	0c067e00 	jal	19f800 <free>
   f6b38:	00000000 	nop
   f6b3c:	8ea40058 	lw	a0,88(s5)
   f6b40:	50800004 	beqzl	a0,f6b54 <FLAC__metadata_object_clone+0xc68>
   f6b44:	8ea40078 	lw	a0,120(s5)
   f6b48:	0c067e00 	jal	19f800 <free>
   f6b4c:	00000000 	nop
   f6b50:	8ea40078 	lw	a0,120(s5)
   f6b54:	50800004 	beqzl	a0,f6b68 <FLAC__metadata_object_clone+0xc7c>
   f6b58:	8ea40098 	lw	a0,152(s5)
   f6b5c:	0c067e00 	jal	19f800 <free>
   f6b60:	00000000 	nop
   f6b64:	8ea40098 	lw	a0,152(s5)
   f6b68:	50800004 	beqzl	a0,f6b7c <FLAC__metadata_object_clone+0xc90>
   f6b6c:	8ea400b8 	lw	a0,184(s5)
   f6b70:	0c067e00 	jal	19f800 <free>
   f6b74:	00000000 	nop
   f6b78:	8ea400b8 	lw	a0,184(s5)
   f6b7c:	50800004 	beqzl	a0,f6b90 <FLAC__metadata_object_clone+0xca4>
   f6b80:	8ea400d8 	lw	a0,216(s5)
   f6b84:	0c067e00 	jal	19f800 <free>
   f6b88:	00000000 	nop
   f6b8c:	8ea400d8 	lw	a0,216(s5)
   f6b90:	10800004 	beqz	a0,f6ba4 <FLAC__metadata_object_clone+0xcb8>
   f6b94:	26ad00e0 	addiu	t5,s5,224
   f6b98:	0c067e00 	jal	19f800 <free>
   f6b9c:	00000000 	nop
   f6ba0:	26ad00e0 	addiu	t5,s5,224
   f6ba4:	164dffd6 	bne	s2,t5,f6b00 <FLAC__metadata_object_clone+0xc14>
   f6ba8:	01a0a825 	move	s5,t5
   f6bac:	0c067e00 	jal	19f800 <free>
   f6bb0:	02e02025 	move	a0,s7
   f6bb4:	02002025 	move	a0,s0
   f6bb8:	0c03d69d 	jal	f5a74 <FLAC__metadata_object_delete_data>
   f6bbc:	ae0000a8 	sw	zero,168(s0)
   f6bc0:	0c067e00 	jal	19f800 <free>
   f6bc4:	02002025 	move	a0,s0
   f6bc8:	1000fcff 	b	f5fc8 <FLAC__metadata_object_clone+0xdc>
   f6bcc:	00008025 	move	s0,zero
   f6bd0:	24040001 	li	a0,1
   f6bd4:	afb70008 	sw	s7,8(sp)
   f6bd8:	afaf0004 	sw	t7,4(sp)
   f6bdc:	0c067dfc 	jal	19f7f0 <malloc>
   f6be0:	afae0000 	sw	t6,0(sp)
   f6be4:	8fab0004 	lw	t3,4(sp)
   f6be8:	8fac0000 	lw	t4,0(sp)
   f6bec:	8fad0008 	lw	t5,8(sp)
   f6bf0:	1040ff3a 	beqz	v0,f68dc <FLAC__metadata_object_clone+0x9f0>
   f6bf4:	ad620000 	sw	v0,0(t3)
   f6bf8:	1000fef1 	b	f67c0 <FLAC__metadata_object_clone+0x8d4>
   f6bfc:	a0400000 	sb	zero,0(v0)
   f6c00:	24040001 	li	a0,1
   f6c04:	0c067dfc 	jal	19f7f0 <malloc>
   f6c08:	afab0000 	sw	t3,0(sp)
   f6c0c:	8fa60000 	lw	a2,0(sp)
   f6c10:	1040ff32 	beqz	v0,f68dc <FLAC__metadata_object_clone+0x9f0>
--
000f6d30 <FLAC__metadata_object_delete>:
   f6d30:	8c820000 	lw	v0,0(a0)
   f6d34:	27bdffe8 	addiu	sp,sp,-24
   f6d38:	afb00008 	sw	s0,8(sp)
   f6d3c:	2c430007 	sltiu	v1,v0,7
   f6d40:	afbf0014 	sw	ra,20(sp)
   f6d44:	afb20010 	sw	s2,16(sp)
   f6d48:	afb1000c 	sw	s1,12(sp)
   f6d4c:	1060010e 	beqz	v1,f7188 <FLAC__metadata_object_delete+0x458>
   f6d50:	00808025 	move	s0,a0
   f6d54:	3c05001e 	lui	a1,0x1e
   f6d58:	00022080 	sll	a0,v0,0x2
   f6d5c:	24a684ec 	addiu	a2,a1,-31508
   f6d60:	00c43821 	addu	a3,a2,a0
   f6d64:	8ce80000 	lw	t0,0(a3)
   f6d68:	01000008 	jr	t0
   f6d6c:	00000000 	nop
   f6d70:	8e040014 	lw	a0,20(s0)
   f6d74:	10800004 	beqz	a0,f6d88 <FLAC__metadata_object_delete+0x58>
   f6d78:	8fbf0014 	lw	ra,20(sp)
   f6d7c:	0c067e00 	jal	19f800 <free>
   f6d80:	00000000 	nop
   f6d84:	8fbf0014 	lw	ra,20(sp)
   f6d88:	8fb20010 	lw	s2,16(sp)
   f6d8c:	8fb1000c 	lw	s1,12(sp)
   f6d90:	02002025 	move	a0,s0
   f6d94:	8fb00008 	lw	s0,8(sp)
   f6d98:	08067e00 	j	19f800 <free>
   f6d9c:	27bd0018 	addiu	sp,sp,24
   f6da0:	8e1200a8 	lw	s2,168(s0)
   f6da4:	1240fff7 	beqz	s2,f6d84 <FLAC__metadata_object_delete+0x54>
   f6da8:	02408825 	move	s1,s2
   f6dac:	8e1f00a4 	lw	ra,164(s0)
   f6db0:	13e0007a 	beqz	ra,f6f9c <FLAC__metadata_object_delete+0x26c>
   f6db4:	001f2940 	sll	a1,ra,0x5
   f6db8:	24a2ffe0 	addiu	v0,a1,-32
   f6dbc:	00023142 	srl	a2,v0,0x5
   f6dc0:	24c70001 	addiu	a3,a2,1
   f6dc4:	30e80007 	andi	t0,a3,0x7
   f6dc8:	0240c025 	move	t8,s2
   f6dcc:	11000040 	beqz	t0,f6ed0 <FLAC__metadata_object_delete+0x1a0>
   f6dd0:	00b29021 	addu	s2,a1,s2
   f6dd4:	24090001 	li	t1,1
   f6dd8:	11090034 	beq	t0,t1,f6eac <FLAC__metadata_object_delete+0x17c>
   f6ddc:	240a0002 	li	t2,2
   f6de0:	110a002b 	beq	t0,t2,f6e90 <FLAC__metadata_object_delete+0x160>
   f6de4:	240c0003 	li	t4,3
   f6de8:	110c0022 	beq	t0,t4,f6e74 <FLAC__metadata_object_delete+0x144>
   f6dec:	240b0004 	li	t3,4
   f6df0:	110b0019 	beq	t0,t3,f6e58 <FLAC__metadata_object_delete+0x128>
   f6df4:	240d0005 	li	t5,5
   f6df8:	110d0010 	beq	t0,t5,f6e3c <FLAC__metadata_object_delete+0x10c>
   f6dfc:	240e0006 	li	t6,6
   f6e00:	510e0008 	beql	t0,t6,f6e24 <FLAC__metadata_object_delete+0xf4>
   f6e04:	8f040018 	lw	a0,24(t8)
   f6e08:	8e240018 	lw	a0,24(s1)
   f6e0c:	50800004 	beqzl	a0,f6e20 <FLAC__metadata_object_delete+0xf0>
   f6e10:	26380020 	addiu	t8,s1,32
   f6e14:	0c067e00 	jal	19f800 <free>
   f6e18:	00000000 	nop
   f6e1c:	26380020 	addiu	t8,s1,32
   f6e20:	8f040018 	lw	a0,24(t8)
   f6e24:	50800005 	beqzl	a0,f6e3c <FLAC__metadata_object_delete+0x10c>
   f6e28:	27180020 	addiu	t8,t8,32
   f6e2c:	0c067e00 	jal	19f800 <free>
   f6e30:	afb80000 	sw	t8,0(sp)
   f6e34:	8fb80000 	lw	t8,0(sp)
   f6e38:	27180020 	addiu	t8,t8,32
   f6e3c:	8f040018 	lw	a0,24(t8)
   f6e40:	50800005 	beqzl	a0,f6e58 <FLAC__metadata_object_delete+0x128>
   f6e44:	27180020 	addiu	t8,t8,32
   f6e48:	0c067e00 	jal	19f800 <free>
   f6e4c:	afb80000 	sw	t8,0(sp)
   f6e50:	8fb80000 	lw	t8,0(sp)
   f6e54:	27180020 	addiu	t8,t8,32
   f6e58:	8f040018 	lw	a0,24(t8)
   f6e5c:	50800005 	beqzl	a0,f6e74 <FLAC__metadata_object_delete+0x144>
   f6e60:	27180020 	addiu	t8,t8,32
   f6e64:	0c067e00 	jal	19f800 <free>
   f6e68:	afb80000 	sw	t8,0(sp)
   f6e6c:	8fb80000 	lw	t8,0(sp)
   f6e70:	27180020 	addiu	t8,t8,32
   f6e74:	8f040018 	lw	a0,24(t8)
   f6e78:	50800005 	beqzl	a0,f6e90 <FLAC__metadata_object_delete+0x160>
   f6e7c:	27180020 	addiu	t8,t8,32
   f6e80:	0c067e00 	jal	19f800 <free>
   f6e84:	afb80000 	sw	t8,0(sp)
   f6e88:	8fb80000 	lw	t8,0(sp)
   f6e8c:	27180020 	addiu	t8,t8,32
   f6e90:	8f040018 	lw	a0,24(t8)
   f6e94:	50800005 	beqzl	a0,f6eac <FLAC__metadata_object_delete+0x17c>
   f6e98:	27180020 	addiu	t8,t8,32
   f6e9c:	0c067e00 	jal	19f800 <free>
   f6ea0:	afb80000 	sw	t8,0(sp)
   f6ea4:	8fb80000 	lw	t8,0(sp)
   f6ea8:	27180020 	addiu	t8,t8,32
   f6eac:	8f040018 	lw	a0,24(t8)
   f6eb0:	50800005 	beqzl	a0,f6ec8 <FLAC__metadata_object_delete+0x198>
   f6eb4:	27180020 	addiu	t8,t8,32
   f6eb8:	0c067e00 	jal	19f800 <free>
   f6ebc:	afb80000 	sw	t8,0(sp)
   f6ec0:	8fb80000 	lw	t8,0(sp)
   f6ec4:	27180020 	addiu	t8,t8,32
   f6ec8:	13120034 	beq	t8,s2,f6f9c <FLAC__metadata_object_delete+0x26c>
   f6ecc:	00000000 	nop
   f6ed0:	8f040018 	lw	a0,24(t8)
   f6ed4:	50800005 	beqzl	a0,f6eec <FLAC__metadata_object_delete+0x1bc>
   f6ed8:	8f040038 	lw	a0,56(t8)
   f6edc:	0c067e00 	jal	19f800 <free>
   f6ee0:	afb80000 	sw	t8,0(sp)
   f6ee4:	8fb80000 	lw	t8,0(sp)
   f6ee8:	8f040038 	lw	a0,56(t8)
   f6eec:	10800004 	beqz	a0,f6f00 <FLAC__metadata_object_delete+0x1d0>
   f6ef0:	270f0020 	addiu	t7,t8,32
   f6ef4:	0c067e00 	jal	19f800 <free>
   f6ef8:	afaf0000 	sw	t7,0(sp)
   f6efc:	8faf0000 	lw	t7,0(sp)
   f6f00:	8de40038 	lw	a0,56(t7)
   f6f04:	50800005 	beqzl	a0,f6f1c <FLAC__metadata_object_delete+0x1ec>
   f6f08:	8de40058 	lw	a0,88(t7)
   f6f0c:	0c067e00 	jal	19f800 <free>
   f6f10:	afaf0000 	sw	t7,0(sp)
   f6f14:	8faf0000 	lw	t7,0(sp)
   f6f18:	8de40058 	lw	a0,88(t7)
   f6f1c:	50800005 	beqzl	a0,f6f34 <FLAC__metadata_object_delete+0x204>
   f6f20:	8de40078 	lw	a0,120(t7)
   f6f24:	0c067e00 	jal	19f800 <free>
   f6f28:	afaf0000 	sw	t7,0(sp)
   f6f2c:	8faf0000 	lw	t7,0(sp)
   f6f30:	8de40078 	lw	a0,120(t7)
   f6f34:	50800005 	beqzl	a0,f6f4c <FLAC__metadata_object_delete+0x21c>
   f6f38:	8de40098 	lw	a0,152(t7)
   f6f3c:	0c067e00 	jal	19f800 <free>
   f6f40:	afaf0000 	sw	t7,0(sp)
   f6f44:	8faf0000 	lw	t7,0(sp)
   f6f48:	8de40098 	lw	a0,152(t7)
   f6f4c:	50800005 	beqzl	a0,f6f64 <FLAC__metadata_object_delete+0x234>
   f6f50:	8de400b8 	lw	a0,184(t7)
   f6f54:	0c067e00 	jal	19f800 <free>
   f6f58:	afaf0000 	sw	t7,0(sp)
   f6f5c:	8faf0000 	lw	t7,0(sp)
   f6f60:	8de400b8 	lw	a0,184(t7)
   f6f64:	50800005 	beqzl	a0,f6f7c <FLAC__metadata_object_delete+0x24c>
   f6f68:	8de400d8 	lw	a0,216(t7)
   f6f6c:	0c067e00 	jal	19f800 <free>
   f6f70:	afaf0000 	sw	t7,0(sp)
   f6f74:	8faf0000 	lw	t7,0(sp)
   f6f78:	8de400d8 	lw	a0,216(t7)
   f6f7c:	10800005 	beqz	a0,f6f94 <FLAC__metadata_object_delete+0x264>
   f6f80:	25f800e0 	addiu	t8,t7,224
   f6f84:	0c067e00 	jal	19f800 <free>
   f6f88:	afaf0000 	sw	t7,0(sp)
   f6f8c:	8faf0000 	lw	t7,0(sp)
   f6f90:	25f800e0 	addiu	t8,t7,224
   f6f94:	5712ffcf 	bnel	t8,s2,f6ed4 <FLAC__metadata_object_delete+0x1a4>
   f6f98:	8f040018 	lw	a0,24(t8)
   f6f9c:	0c067e00 	jal	19f800 <free>
   f6fa0:	02202025 	move	a0,s1
   f6fa4:	8fbf0014 	lw	ra,20(sp)
   f6fa8:	8fb20010 	lw	s2,16(sp)
   f6fac:	8fb1000c 	lw	s1,12(sp)
   f6fb0:	02002025 	move	a0,s0
   f6fb4:	8fb00008 	lw	s0,8(sp)
   f6fb8:	08067e00 	j	19f800 <free>
   f6fbc:	27bd0018 	addiu	sp,sp,24
   f6fc0:	8e040014 	lw	a0,20(s0)
   f6fc4:	50800005 	beqzl	a0,f6fdc <FLAC__metadata_object_delete+0x2ac>
   f6fc8:	8e09001c 	lw	t1,28(s0)
   f6fcc:	0c067e00 	jal	19f800 <free>
   f6fd0:	00000000 	nop
   f6fd4:	ae000014 	sw	zero,20(s0)
   f6fd8:	8e09001c 	lw	t1,28(s0)
   f6fdc:	1120ff69 	beqz	t1,f6d84 <FLAC__metadata_object_delete+0x54>
   f6fe0:	01208825 	move	s1,t1
   f6fe4:	8e0a0018 	lw	t2,24(s0)
   f6fe8:	1140ffec 	beqz	t2,f6f9c <FLAC__metadata_object_delete+0x26c>
   f6fec:	000a58c0 	sll	t3,t2,0x3
   f6ff0:	256cfff8 	addiu	t4,t3,-8
   f6ff4:	000c68c2 	srl	t5,t4,0x3
   f6ff8:	25ae0001 	addiu	t6,t5,1
   f6ffc:	31cf0007 	andi	t7,t6,0x7
   f7000:	01206025 	move	t4,t1
   f7004:	11e00031 	beqz	t7,f70cc <FLAC__metadata_object_delete+0x39c>
   f7008:	01699021 	addu	s2,t3,t1
   f700c:	24180001 	li	t8,1
   f7010:	11f80027 	beq	t7,t8,f70b0 <FLAC__metadata_object_delete+0x380>
   f7014:	24190002 	li	t9,2
   f7018:	11f90020 	beq	t7,t9,f709c <FLAC__metadata_object_delete+0x36c>
   f701c:	241f0003 	li	ra,3
   f7020:	11ff0019 	beq	t7,ra,f7088 <FLAC__metadata_object_delete+0x358>
   f7024:	24030004 	li	v1,4
   f7028:	11e30012 	beq	t7,v1,f7074 <FLAC__metadata_object_delete+0x344>
   f702c:	24040005 	li	a0,5
   f7030:	11e4000b 	beq	t7,a0,f7060 <FLAC__metadata_object_delete+0x330>
   f7034:	24050006 	li	a1,6
   f7038:	51e50005 	beql	t7,a1,f7050 <FLAC__metadata_object_delete+0x320>
   f703c:	8d840004 	lw	a0,4(t4)
   f7040:	0c067e00 	jal	19f800 <free>
   f7044:	8d240004 	lw	a0,4(t1)
   f7048:	262c0008 	addiu	t4,s1,8
   f704c:	8d840004 	lw	a0,4(t4)
   f7050:	0c067e00 	jal	19f800 <free>
   f7054:	afac0000 	sw	t4,0(sp)
   f7058:	8fa20000 	lw	v0,0(sp)
   f705c:	244c0008 	addiu	t4,v0,8
   f7060:	8d840004 	lw	a0,4(t4)
   f7064:	0c067e00 	jal	19f800 <free>
   f7068:	afac0000 	sw	t4,0(sp)
   f706c:	8fa60000 	lw	a2,0(sp)
   f7070:	24cc0008 	addiu	t4,a2,8
   f7074:	8d840004 	lw	a0,4(t4)
   f7078:	0c067e00 	jal	19f800 <free>
   f707c:	afac0000 	sw	t4,0(sp)
   f7080:	8fa70000 	lw	a3,0(sp)
   f7084:	24ec0008 	addiu	t4,a3,8
   f7088:	8d840004 	lw	a0,4(t4)
   f708c:	0c067e00 	jal	19f800 <free>
   f7090:	afac0000 	sw	t4,0(sp)
   f7094:	8fa80000 	lw	t0,0(sp)
   f7098:	250c0008 	addiu	t4,t0,8
   f709c:	8d840004 	lw	a0,4(t4)
   f70a0:	0c067e00 	jal	19f800 <free>
   f70a4:	afac0000 	sw	t4,0(sp)
   f70a8:	8fa90000 	lw	t1,0(sp)
   f70ac:	252c0008 	addiu	t4,t1,8
   f70b0:	8d840004 	lw	a0,4(t4)
   f70b4:	0c067e00 	jal	19f800 <free>
   f70b8:	afac0000 	sw	t4,0(sp)
   f70bc:	8faa0000 	lw	t2,0(sp)
   f70c0:	254c0008 	addiu	t4,t2,8
   f70c4:	124cffb5 	beq	s2,t4,f6f9c <FLAC__metadata_object_delete+0x26c>
   f70c8:	00000000 	nop
   f70cc:	8d840004 	lw	a0,4(t4)
   f70d0:	0c067e00 	jal	19f800 <free>
   f70d4:	afac0000 	sw	t4,0(sp)
   f70d8:	8fab0000 	lw	t3,0(sp)
   f70dc:	0c067e00 	jal	19f800 <free>
   f70e0:	8d64000c 	lw	a0,12(t3)
   f70e4:	8fad0000 	lw	t5,0(sp)
   f70e8:	0c067e00 	jal	19f800 <free>
   f70ec:	8da40014 	lw	a0,20(t5)
   f70f0:	8fae0000 	lw	t6,0(sp)
   f70f4:	0c067e00 	jal	19f800 <free>
   f70f8:	8dc4001c 	lw	a0,28(t6)
   f70fc:	8faf0000 	lw	t7,0(sp)
   f7100:	0c067e00 	jal	19f800 <free>
   f7104:	8de40024 	lw	a0,36(t7)
   f7108:	8fb80000 	lw	t8,0(sp)
   f710c:	0c067e00 	jal	19f800 <free>
   f7110:	8f04002c 	lw	a0,44(t8)
   f7114:	8fb90000 	lw	t9,0(sp)
   f7118:	0c067e00 	jal	19f800 <free>
   f711c:	8f240034 	lw	a0,52(t9)
   f7120:	8fa30000 	lw	v1,0(sp)
   f7124:	0c067e00 	jal	19f800 <free>
   f7128:	8c64003c 	lw	a0,60(v1)
   f712c:	8fa40000 	lw	a0,0(sp)
   f7130:	248c0040 	addiu	t4,a0,64
   f7134:	564cffe6 	bnel	s2,t4,f70d0 <FLAC__metadata_object_delete+0x3a0>
   f7138:	8d840004 	lw	a0,4(t4)
   f713c:	1000ff97 	b	f6f9c <FLAC__metadata_object_delete+0x26c>
   f7140:	00000000 	nop
   f7144:	8e040014 	lw	a0,20(s0)
   f7148:	50800004 	beqzl	a0,f715c <FLAC__metadata_object_delete+0x42c>
   f714c:	8e040018 	lw	a0,24(s0)
   f7150:	0c067e00 	jal	19f800 <free>
   f7154:	00000000 	nop
   f7158:	8e040018 	lw	a0,24(s0)
   f715c:	50800004 	beqzl	a0,f7170 <FLAC__metadata_object_delete+0x440>
   f7160:	8e040030 	lw	a0,48(s0)
   f7164:	0c067e00 	jal	19f800 <free>
   f7168:	00000000 	nop
   f716c:	8e040030 	lw	a0,48(s0)
   f7170:	1080ff05 	beqz	a0,f6d88 <FLAC__metadata_object_delete+0x58>
   f7174:	8fbf0014 	lw	ra,20(sp)
   f7178:	0c067e00 	jal	19f800 <free>
   f717c:	00000000 	nop
   f7180:	1000ff01 	b	f6d88 <FLAC__metadata_object_delete+0x58>
   f7184:	8fbf0014 	lw	ra,20(sp)
   f7188:	8c840010 	lw	a0,16(a0)
   f718c:	1080fefe 	beqz	a0,f6d88 <FLAC__metadata_object_delete+0x58>
   f7190:	8fbf0014 	lw	ra,20(sp)
   f7194:	0c067e00 	jal	19f800 <free>
   f7198:	00000000 	nop
   f719c:	1000fefa 	b	f6d88 <FLAC__metadata_object_delete+0x58>
   f71a0:	8fbf0014 	lw	ra,20(sp)

000f71a4 <FLAC__metadata_object_is_equal>:
   f71a4:	8c880000 	lw	t0,0(a0)
   f71a8:	8ca20000 	lw	v0,0(a1)
   f71ac:	15020005 	bne	t0,v0,f71c4 <FLAC__metadata_object_is_equal+0x20>
   f71b0:	00004825 	move	t1,zero
   f71b4:	8c830004 	lw	v1,4(a0)
   f71b8:	8ca60004 	lw	a2,4(a1)
   f71bc:	50660003 	beql	v1,a2,f71cc <FLAC__metadata_object_is_equal+0x28>
   f71c0:	8c860008 	lw	a2,8(a0)
   f71c4:	03e00008 	jr	ra
   f71c8:	01201025 	move	v0,t1
   f71cc:	8ca70008 	lw	a3,8(a1)
   f71d0:	14c7fffc 	bne	a2,a3,f71c4 <FLAC__metadata_object_is_equal+0x20>
   f71d4:	00000000 	nop
   f71d8:	27bdffe0 	addiu	sp,sp,-32
   f71dc:	00801825 	move	v1,a0
--
   f7d04:	2d290001 	sltiu	t1,t1,1
   f7d08:	8d850004 	lw	a1,4(t4)
   f7d0c:	50a0fee9 	beqzl	a1,f78b4 <FLAC__metadata_object_is_equal+0x710>
   f7d10:	254a0001 	addiu	t2,t2,1
   f7d14:	1000fde9 	b	f74bc <FLAC__metadata_object_is_equal+0x318>
   f7d18:	00004825 	move	t1,zero
   f7d1c:	11c0fed3 	beqz	t6,f786c <FLAC__metadata_object_is_equal+0x6c8>
   f7d20:	240a0001 	li	t2,1
   f7d24:	1000fde5 	b	f74bc <FLAC__metadata_object_is_equal+0x318>
   f7d28:	00004825 	move	t1,zero

000f7d2c <FLAC__metadata_object_application_set_data>:
   f7d2c:	27bdffe8 	addiu	sp,sp,-24
   f7d30:	afb00010 	sw	s0,16(sp)
   f7d34:	afbf0014 	sw	ra,20(sp)
   f7d38:	8c830014 	lw	v1,20(a0)
   f7d3c:	14e0000f 	bnez	a3,f7d7c <FLAC__metadata_object_application_set_data+0x50>
   f7d40:	00808025 	move	s0,a0
   f7d44:	ac850014 	sw	a1,20(a0)
   f7d48:	00602025 	move	a0,v1
   f7d4c:	0c067e00 	jal	19f800 <free>
   f7d50:	afa60000 	sw	a2,0(sp)
   f7d54:	8f848284 	lw	a0,-32124(gp)
   f7d58:	8fa60000 	lw	a2,0(sp)
   f7d5c:	24020001 	li	v0,1
   f7d60:	000428c2 	srl	a1,a0,0x3
   f7d64:	00a63821 	addu	a3,a1,a2
   f7d68:	ae070008 	sw	a3,8(s0)
   f7d6c:	8fbf0014 	lw	ra,20(sp)
   f7d70:	8fb00010 	lw	s0,16(sp)
   f7d74:	03e00008 	jr	ra
   f7d78:	27bd0018 	addiu	sp,sp,24
   f7d7c:	50c0fff2 	beqzl	a2,f7d48 <FLAC__metadata_object_application_set_data+0x1c>
   f7d80:	ae000014 	sw	zero,20(s0)
   f7d84:	10a0000e 	beqz	a1,f7dc0 <FLAC__metadata_object_application_set_data+0x94>
   f7d88:	00c02025 	move	a0,a2
   f7d8c:	afa30004 	sw	v1,4(sp)
   f7d90:	afa60000 	sw	a2,0(sp)
   f7d94:	0c067dfc 	jal	19f7f0 <malloc>
   f7d98:	afa50008 	sw	a1,8(sp)
   f7d9c:	1040000a 	beqz	v0,f7dc8 <FLAC__metadata_object_application_set_data+0x9c>
--
   f82a4:	ac99007c 	sw	t9,124(a0)
   f82a8:	ac8c0080 	sw	t4,128(a0)
   f82ac:	ac8b0084 	sw	t3,132(a0)
   f82b0:	ac800088 	sw	zero,136(a0)
   f82b4:	ac8a0090 	sw	t2,144(a0)
   f82b8:	ac990094 	sw	t9,148(a0)
   f82bc:	ac8c0098 	sw	t4,152(a0)
   f82c0:	ac8b009c 	sw	t3,156(a0)
   f82c4:	ac8000a0 	sw	zero,160(a0)
   f82c8:	ac8a00a8 	sw	t2,168(a0)
   f82cc:	ac9900ac 	sw	t9,172(a0)
   f82d0:	ac8c00b0 	sw	t4,176(a0)
   f82d4:	ac8b00b4 	sw	t3,180(a0)
   f82d8:	ac8000b8 	sw	zero,184(a0)
   f82dc:	248400c0 	addiu	a0,a0,192
   f82e0:	5485ffd7 	bnel	a0,a1,f8240 <FLAC__metadata_object_seektable_resize_points+0x470>
   f82e4:	ac8a0000 	sw	t2,0(a0)
   f82e8:	10000008 	b	f830c <FLAC__metadata_object_seektable_resize_points+0x53c>
   f82ec:	ac620014 	sw	v0,20(v1)
   f82f0:	afaa0008 	sw	t2,8(sp)
   f82f4:	0c067e00 	jal	19f800 <free>
   f82f8:	afa90004 	sw	t1,4(sp)
   f82fc:	8fa30008 	lw	v1,8(sp)
   f8300:	8fa80000 	lw	t0,0(sp)
   f8304:	8fa60004 	lw	a2,4(sp)
   f8308:	ac600014 	sw	zero,20(v1)
   f830c:	01064021 	addu	t0,t0,a2
   f8310:	00081040 	sll	v0,t0,0x1
   f8314:	ac660010 	sw	a2,16(v1)
   f8318:	ac620008 	sw	v0,8(v1)
   f831c:	8fbf001c 	lw	ra,28(sp)
   f8320:	24020001 	li	v0,1
   f8324:	03e00008 	jr	ra
   f8328:	27bd0020 	addiu	sp,sp,32
   f832c:	00007825 	move	t7,zero
   f8330:	00006825 	move	t5,zero
   f8334:	00e27021 	addu	t6,a3,v0
   f8338:	add80000 	sw	t8,0(t6)
   f833c:	adcb0004 	sw	t3,4(t6)
   f8340:	8c6c0014 	lw	t4,20(v1)
   f8344:	01822021 	addu	a0,t4,v0
--
   f85c4:	033f1021 	addu	v0,t9,ra
   f85c8:	012d4806 	srlv	t1,t5,t1
   f85cc:	0123100b 	movn	v0,t1,v1
   f85d0:	0003480b 	movn	t1,zero,v1
   f85d4:	00492825 	or	a1,v0,t1
   f85d8:	14a000ae 	bnez	a1,f8894 <FLAC__metadata_object_seektable_template_append_placeholders+0x32c>
   f85dc:	00803825 	move	a3,a0
   f85e0:	8c840014 	lw	a0,20(a0)
   f85e4:	10800019 	beqz	a0,f864c <FLAC__metadata_object_seektable_template_append_placeholders+0xe4>
   f85e8:	3c060aaa 	lui	a2,0xaaa
   f85ec:	34ccaaab 	ori	t4,a2,0xaaab
   f85f0:	010c682b 	sltu	t5,t0,t4
   f85f4:	11a000a7 	beqz	t5,f8894 <FLAC__metadata_object_seektable_template_append_placeholders+0x32c>
   f85f8:	00087040 	sll	t6,t0,0x1
   f85fc:	01c87821 	addu	t7,t6,t0
   f8600:	000f28c0 	sll	a1,t7,0x3
   f8604:	54a000a7 	bnezl	a1,f88a4 <FLAC__metadata_object_seektable_template_append_placeholders+0x33c>
   f8608:	afa70010 	sw	a3,16(sp)
   f860c:	afaa0004 	sw	t2,4(sp)
   f8610:	afa80000 	sw	t0,0(sp)
   f8614:	0c067e00 	jal	19f800 <free>
   f8618:	afa70008 	sw	a3,8(sp)
   f861c:	8fa30008 	lw	v1,8(sp)
   f8620:	8fa80000 	lw	t0,0(sp)
   f8624:	8faa0004 	lw	t2,4(sp)
   f8628:	ac600014 	sw	zero,20(v1)
   f862c:	01485021 	addu	t2,t2,t0
   f8630:	000a1040 	sll	v0,t2,0x1
   f8634:	ac680010 	sw	t0,16(v1)
   f8638:	ac620008 	sw	v0,8(v1)
   f863c:	8fbf001c 	lw	ra,28(sp)
   f8640:	24020001 	li	v0,1
   f8644:	03e00008 	jr	ra
   f8648:	27bd0020 	addiu	sp,sp,32
   f864c:	1100fffc 	beqz	t0,f8640 <FLAC__metadata_object_seektable_template_append_placeholders+0xd8>
   f8650:	8fbf001c 	lw	ra,28(sp)
   f8654:	01002025 	move	a0,t0
   f8658:	24050018 	li	a1,24
   f865c:	afa80000 	sw	t0,0(sp)
   f8660:	afaa0004 	sw	t2,4(sp)
   f8664:	0c04cd1c 	jal	133470 <safe_malloc_mul_2op_p>
--
   f8fe8:	ac4e007c 	sw	t6,124(v0)
   f8fec:	ac450080 	sw	a1,128(v0)
   f8ff0:	ac470084 	sw	a3,132(v0)
   f8ff4:	ac400088 	sw	zero,136(v0)
   f8ff8:	ac590090 	sw	t9,144(v0)
   f8ffc:	ac4e0094 	sw	t6,148(v0)
   f9000:	ac450098 	sw	a1,152(v0)
   f9004:	ac47009c 	sw	a3,156(v0)
   f9008:	ac4000a0 	sw	zero,160(v0)
   f900c:	ac5900a8 	sw	t9,168(v0)
   f9010:	ac4e00ac 	sw	t6,172(v0)
   f9014:	ac4500b0 	sw	a1,176(v0)
   f9018:	ac4700b4 	sw	a3,180(v0)
   f901c:	ac4000b8 	sw	zero,184(v0)
   f9020:	244200c0 	addiu	v0,v0,192
   f9024:	544fffd7 	bnel	v0,t7,f8f84 <FLAC__metadata_object_seektable_template_append_point+0x480>
   f9028:	ac590000 	sw	t9,0(v0)
   f902c:	1000000a 	b	f9058 <FLAC__metadata_object_seektable_template_append_point+0x554>
   f9030:	af040014 	sw	a0,20(t8)
   f9034:	afa80000 	sw	t0,0(sp)
   f9038:	0c067e00 	jal	19f800 <free>
   f903c:	afa70008 	sw	a3,8(sp)
   f9040:	8fb80008 	lw	t8,8(sp)
   f9044:	8fa80000 	lw	t0,0(sp)
   f9048:	8faa0004 	lw	t2,4(sp)
   f904c:	af000014 	sw	zero,20(t8)
   f9050:	00002025 	move	a0,zero
   f9054:	240bffe8 	li	t3,-24
   f9058:	01485021 	addu	t2,t2,t0
   f905c:	000ac840 	sll	t9,t2,0x1
   f9060:	af080010 	sw	t0,16(t8)
   f9064:	af190008 	sw	t9,8(t8)
   f9068:	8fbf0024 	lw	ra,36(sp)
   f906c:	008bc021 	addu	t8,a0,t3
   f9070:	af100000 	sw	s0,0(t8)
   f9074:	af110004 	sw	s1,4(t8)
   f9078:	00008025 	move	s0,zero
   f907c:	00008825 	move	s1,zero
   f9080:	af100008 	sw	s0,8(t8)
   f9084:	af11000c 	sw	s1,12(t8)
   f9088:	8fb0001c 	lw	s0,28(sp)
--
   f9c4c:	313f0020 	andi	ra,t1,0x20
   f9c50:	012c2806 	srlv	a1,t4,t1
   f9c54:	03191021 	addu	v0,t8,t9
   f9c58:	00bf100b 	movn	v0,a1,ra
   f9c5c:	001f280b 	movn	a1,zero,ra
   f9c60:	00451825 	or	v1,v0,a1
   f9c64:	546000a8 	bnezl	v1,f9f08 <FLAC__metadata_object_seektable_template_sort+0x330>
   f9c68:	8fbf0014 	lw	ra,20(sp)
   f9c6c:	8e040014 	lw	a0,20(s0)
   f9c70:	10800014 	beqz	a0,f9cc4 <FLAC__metadata_object_seektable_template_sort+0xec>
   f9c74:	3c090aaa 	lui	t1,0xaaa
   f9c78:	3528aaab 	ori	t0,t1,0xaaab
   f9c7c:	00c8502b 	sltu	t2,a2,t0
   f9c80:	114000a0 	beqz	t2,f9f04 <FLAC__metadata_object_seektable_template_sort+0x32c>
   f9c84:	00065840 	sll	t3,a2,0x1
   f9c88:	01666021 	addu	t4,t3,a2
   f9c8c:	000c28c0 	sll	a1,t4,0x3
   f9c90:	54a000a1 	bnezl	a1,f9f18 <FLAC__metadata_object_seektable_template_sort+0x340>
   f9c94:	afa6000c 	sw	a2,12(sp)
   f9c98:	afa60004 	sw	a2,4(sp)
   f9c9c:	0c067e00 	jal	19f800 <free>
   f9ca0:	afa70000 	sw	a3,0(sp)
   f9ca4:	8fb90000 	lw	t9,0(sp)
   f9ca8:	8fa60004 	lw	a2,4(sp)
   f9cac:	ae000014 	sw	zero,20(s0)
   f9cb0:	0326c821 	addu	t9,t9,a2
   f9cb4:	00191040 	sll	v0,t9,0x1
   f9cb8:	ae060010 	sw	a2,16(s0)
   f9cbc:	1000ffd0 	b	f9c00 <FLAC__metadata_object_seektable_template_sort+0x28>
   f9cc0:	ae020008 	sw	v0,8(s0)
   f9cc4:	10c0ffcf 	beqz	a2,f9c04 <FLAC__metadata_object_seektable_template_sort+0x2c>
   f9cc8:	8fbf0014 	lw	ra,20(sp)
   f9ccc:	00c02025 	move	a0,a2
   f9cd0:	24050018 	li	a1,24
   f9cd4:	afa60000 	sw	a2,0(sp)
   f9cd8:	0c04cd1c 	jal	133470 <safe_malloc_mul_2op_p>
   f9cdc:	afa70004 	sw	a3,4(sp)
   f9ce0:	8fa60000 	lw	a2,0(sp)
   f9ce4:	10400086 	beqz	v0,f9f00 <FLAC__metadata_object_seektable_template_sort+0x328>
   f9ce8:	8fb90004 	lw	t9,4(sp)
   f9cec:	00067840 	sll	t7,a2,0x1
--
   fa1c0:	8fb20008 	lw	s2,8(sp)
   fa1c4:	8fb10004 	lw	s1,4(sp)
   fa1c8:	8fb00000 	lw	s0,0(sp)
   fa1cc:	00001025 	move	v0,zero
   fa1d0:	03e00008 	jr	ra
   fa1d4:	27bd0018 	addiu	sp,sp,24
   fa1d8:	1240008d 	beqz	s2,fa410 <FLAC__metadata_object_vorbiscomment_set_vendor_string+0x29c>
   fa1dc:	8e140014 	lw	s4,20(s0)
   fa1e0:	1660007d 	bnez	s3,fa3d8 <FLAC__metadata_object_vorbiscomment_set_vendor_string+0x264>
   fa1e4:	26250001 	addiu	a1,s1,1
   fa1e8:	2402ffff 	li	v0,-1
   fa1ec:	1222fff2 	beq	s1,v0,fa1b8 <FLAC__metadata_object_vorbiscomment_set_vendor_string+0x44>
   fa1f0:	8fbf0014 	lw	ra,20(sp)
   fa1f4:	0c068119 	jal	1a0464 <realloc>
   fa1f8:	02402025 	move	a0,s2
   fa1fc:	1040ffed 	beqz	v0,fa1b4 <FLAC__metadata_object_vorbiscomment_set_vendor_string+0x40>
   fa200:	00511821 	addu	v1,v0,s1
   fa204:	a0600000 	sb	zero,0(v1)
   fa208:	ae110010 	sw	s1,16(s0)
   fa20c:	ae020014 	sw	v0,20(s0)
   fa210:	0c067e00 	jal	19f800 <free>
   fa214:	02802025 	move	a0,s4
   fa218:	8f878268 	lw	a3,-32152(gp)
   fa21c:	8f898264 	lw	t1,-32156(gp)
   fa220:	8e060010 	lw	a2,16(s0)
   fa224:	000740c2 	srl	t0,a3,0x3
   fa228:	000950c2 	srl	t2,t1,0x3
   fa22c:	8e0b0018 	lw	t3,24(s0)
   fa230:	01486021 	addu	t4,t2,t0
   fa234:	01861021 	addu	v0,t4,a2
   fa238:	1160005e 	beqz	t3,fa3b4 <FLAC__metadata_object_vorbiscomment_set_vendor_string+0x240>
   fa23c:	ae020008 	sw	v0,8(s0)
   fa240:	000b68c0 	sll	t5,t3,0x3
   fa244:	25aefff8 	addiu	t6,t5,-8
   fa248:	8e04001c 	lw	a0,28(s0)
   fa24c:	000e78c2 	srl	t7,t6,0x3
   fa250:	25f80001 	addiu	t8,t7,1
   fa254:	33190007 	andi	t9,t8,0x7
   fa258:	13200033 	beqz	t9,fa328 <FLAC__metadata_object_vorbiscomment_set_vendor_string+0x1b4>
   fa25c:	01a4f821 	addu	ra,t5,a0
   fa260:	24110001 	li	s1,1
--
   fa45c:	8c83001c 	lw	v1,28(a0)
   fa460:	00808025 	move	s0,a0
   fa464:	106000e1 	beqz	v1,fa7ec <FLAC__metadata_object_vorbiscomment_resize_comments+0x3b8>
   fa468:	00a08825 	move	s1,a1
   fa46c:	3c022000 	lui	v0,0x2000
   fa470:	00a2202b 	sltu	a0,a1,v0
   fa474:	508000cd 	beqzl	a0,fa7ac <FLAC__metadata_object_vorbiscomment_resize_comments+0x378>
   fa478:	8fbf0024 	lw	ra,36(sp)
   fa47c:	8e140018 	lw	s4,24(s0)
   fa480:	000590c0 	sll	s2,a1,0x3
   fa484:	00b4282b 	sltu	a1,a1,s4
   fa488:	10a0000e 	beqz	a1,fa4c4 <FLAC__metadata_object_vorbiscomment_resize_comments+0x90>
   fa48c:	00000000 	nop
   fa490:	02804825 	move	t1,s4
   fa494:	02209825 	move	s3,s1
   fa498:	001330c0 	sll	a2,s3,0x3
   fa49c:	00663821 	addu	a3,v1,a2
   fa4a0:	8ce40004 	lw	a0,4(a3)
   fa4a4:	108000cc 	beqz	a0,fa7d8 <FLAC__metadata_object_vorbiscomment_resize_comments+0x3a4>
   fa4a8:	26730001 	addiu	s3,s3,1
   fa4ac:	0c067e00 	jal	19f800 <free>
   fa4b0:	00000000 	nop
   fa4b4:	8e090018 	lw	t1,24(s0)
   fa4b8:	0269502b 	sltu	t2,s3,t1
   fa4bc:	1540fff6 	bnez	t2,fa498 <FLAC__metadata_object_vorbiscomment_resize_comments+0x64>
   fa4c0:	8e03001c 	lw	v1,28(s0)
   fa4c4:	1640007c 	bnez	s2,fa6b8 <FLAC__metadata_object_vorbiscomment_resize_comments+0x284>
   fa4c8:	02402825 	move	a1,s2
   fa4cc:	0c067e00 	jal	19f800 <free>
   fa4d0:	00602025 	move	a0,v1
   fa4d4:	ae00001c 	sw	zero,28(s0)
   fa4d8:	8f958268 	lw	s5,-32152(gp)
   fa4dc:	8f9f8264 	lw	ra,-32156(gp)
   fa4e0:	8e040010 	lw	a0,16(s0)
   fa4e4:	001538c2 	srl	a3,s5,0x3
   fa4e8:	001f10c2 	srl	v0,ra,0x3
   fa4ec:	00472821 	addu	a1,v0,a3
   fa4f0:	00a4c821 	addu	t9,a1,a0
   fa4f4:	ae110018 	sw	s1,24(s0)
   fa4f8:	12200063 	beqz	s1,fa688 <FLAC__metadata_object_vorbiscomment_resize_comments+0x254>
   fa4fc:	ae190008 	sw	t9,8(s0)
   fa500:	2651fff8 	addiu	s1,s2,-8
   fa504:	8e04001c 	lw	a0,28(s0)
   fa508:	001150c2 	srl	t2,s1,0x3
   fa50c:	254b0001 	addiu	t3,t2,1
   fa510:	316c0007 	andi	t4,t3,0x7
   fa514:	11800039 	beqz	t4,fa5fc <FLAC__metadata_object_vorbiscomment_resize_comments+0x1c8>
   fa518:	02449021 	addu	s2,s2,a0
   fa51c:	24170001 	li	s7,1
--
   fab38:	00001025 	move	v0,zero
   fab3c:	03e00008 	jr	ra
   fab40:	27bd0020 	addiu	sp,sp,32
   fab44:	001310c0 	sll	v0,s3,0x3
   fab48:	00623021 	addu	a2,v1,v0
   fab4c:	12400090 	beqz	s2,fad90 <FLAC__metadata_object_vorbiscomment_set_comment+0x2b4>
   fab50:	8cd30004 	lw	s3,4(a2)
   fab54:	1680007e 	bnez	s4,fad50 <FLAC__metadata_object_vorbiscomment_set_comment+0x274>
   fab58:	26250001 	addiu	a1,s1,1
   fab5c:	2404ffff 	li	a0,-1
   fab60:	1224ffef 	beq	s1,a0,fab20 <FLAC__metadata_object_vorbiscomment_set_comment+0x44>
   fab64:	02402025 	move	a0,s2
   fab68:	0c068119 	jal	1a0464 <realloc>
   fab6c:	afa60000 	sw	a2,0(sp)
   fab70:	1040ffeb 	beqz	v0,fab20 <FLAC__metadata_object_vorbiscomment_set_comment+0x44>
   fab74:	8fa70000 	lw	a3,0(sp)
   fab78:	00512821 	addu	a1,v0,s1
   fab7c:	a0a00000 	sb	zero,0(a1)
   fab80:	acf10000 	sw	s1,0(a3)
   fab84:	ace20004 	sw	v0,4(a3)
   fab88:	0c067e00 	jal	19f800 <free>
   fab8c:	02602025 	move	a0,s3
   fab90:	8f8c8268 	lw	t4,-32152(gp)
   fab94:	8f8e8264 	lw	t6,-32156(gp)
   fab98:	8e0b0010 	lw	t3,16(s0)
   fab9c:	000c68c2 	srl	t5,t4,0x3
   faba0:	000e78c2 	srl	t7,t6,0x3
   faba4:	8e180018 	lw	t8,24(s0)
   faba8:	01edc821 	addu	t9,t7,t5
   fabac:	032b1021 	addu	v0,t9,t3
   fabb0:	1300005e 	beqz	t8,fad2c <FLAC__metadata_object_vorbiscomment_set_comment+0x250>
   fabb4:	ae020008 	sw	v0,8(s0)
   fabb8:	0018f8c0 	sll	ra,t8,0x3
   fabbc:	27f1fff8 	addiu	s1,ra,-8
   fabc0:	8e04001c 	lw	a0,28(s0)
   fabc4:	001190c2 	srl	s2,s1,0x3
   fabc8:	26540001 	addiu	s4,s2,1
   fabcc:	32830007 	andi	v1,s4,0x7
   fabd0:	10600033 	beqz	v1,faca0 <FLAC__metadata_object_vorbiscomment_set_comment+0x1c4>
   fabd4:	03e49821 	addu	s3,ra,a0
   fabd8:	24060001 	li	a2,1
--
   fafb8:	afb10004 	sw	s1,4(sp)
   fafbc:	8fbf002c 	lw	ra,44(sp)
   fafc0:	8fb40028 	lw	s4,40(sp)
   fafc4:	8fb30024 	lw	s3,36(sp)
   fafc8:	8fb20020 	lw	s2,32(sp)
   fafcc:	8fb1001c 	lw	s1,28(sp)
   fafd0:	8fb00018 	lw	s0,24(sp)
   fafd4:	03e00008 	jr	ra
   fafd8:	27bd0030 	addiu	sp,sp,48

000fafdc <FLAC__metadata_object_vorbiscomment_delete_comment>:
   fafdc:	8c82001c 	lw	v0,28(a0)
   fafe0:	27bdffe8 	addiu	sp,sp,-24
   fafe4:	afb10010 	sw	s1,16(sp)
   fafe8:	000588c0 	sll	s1,a1,0x3
   fafec:	00511821 	addu	v1,v0,s1
   faff0:	afb0000c 	sw	s0,12(sp)
   faff4:	00808025 	move	s0,a0
   faff8:	8c640004 	lw	a0,4(v1)
   faffc:	afbf0014 	sw	ra,20(sp)
   fb000:	0c067e00 	jal	19f800 <free>
   fb004:	afa50000 	sw	a1,0(sp)
   fb008:	8e060018 	lw	a2,24(s0)
   fb00c:	8fa50000 	lw	a1,0(sp)
   fb010:	8e04001c 	lw	a0,28(s0)
   fb014:	26270008 	addiu	a3,s1,8
   fb018:	00c54023 	subu	t0,a2,a1
   fb01c:	2509ffff 	addiu	t1,t0,-1
   fb020:	00872821 	addu	a1,a0,a3
   fb024:	000930c0 	sll	a2,t1,0x3
   fb028:	0c069598 	jal	1a5660 <memmove>
   fb02c:	00912021 	addu	a0,a0,s1
   fb030:	8e0a0018 	lw	t2,24(s0)
   fb034:	8e0b001c 	lw	t3,28(s0)
   fb038:	8fbf0014 	lw	ra,20(sp)
   fb03c:	8fb10010 	lw	s1,16(sp)
   fb040:	02002025 	move	a0,s0
   fb044:	000a60c0 	sll	t4,t2,0x3
   fb048:	8fb0000c 	lw	s0,12(sp)
   fb04c:	016c7021 	addu	t6,t3,t4
   fb050:	adc0fff8 	sw	zero,-8(t6)
--
   fbb18:	8fbf001c 	lw	ra,28(sp)
   fbb1c:	8fb50018 	lw	s5,24(sp)
   fbb20:	8fb40014 	lw	s4,20(sp)
   fbb24:	8fb30010 	lw	s3,16(sp)
   fbb28:	8fb2000c 	lw	s2,12(sp)
   fbb2c:	8fb10008 	lw	s1,8(sp)
   fbb30:	8fb00004 	lw	s0,4(sp)
   fbb34:	03e00008 	jr	ra
   fbb38:	27bd0020 	addiu	sp,sp,32
   fbb3c:	ae600000 	sw	zero,0(s3)
   fbb40:	8fbf001c 	lw	ra,28(sp)
   fbb44:	8fb50018 	lw	s5,24(sp)
   fbb48:	8fb40014 	lw	s4,20(sp)
   fbb4c:	8fb30010 	lw	s3,16(sp)
   fbb50:	8fb2000c 	lw	s2,12(sp)
   fbb54:	8fb10008 	lw	s1,8(sp)
   fbb58:	8fb00004 	lw	s0,4(sp)
   fbb5c:	00001025 	move	v0,zero
   fbb60:	03e00008 	jr	ra
   fbb64:	27bd0020 	addiu	sp,sp,32
   fbb68:	0c067e00 	jal	19f800 <free>
   fbb6c:	8e640000 	lw	a0,0(s3)
   fbb70:	1000fff4 	b	fbb44 <FLAC__metadata_object_vorbiscomment_entry_to_name_value_pair+0x104>
   fbb74:	8fbf001c 	lw	ra,28(sp)

000fbb78 <FLAC__metadata_object_vorbiscomment_entry_matches>:
   fbb78:	27bdfff0 	addiu	sp,sp,-16
   fbb7c:	afb00000 	sw	s0,0(sp)
   fbb80:	8c900004 	lw	s0,4(a0)
   fbb84:	afb10004 	sw	s1,4(sp)
   fbb88:	00c08825 	move	s1,a2
   fbb8c:	8c860000 	lw	a2,0(a0)
   fbb90:	afb20008 	sw	s2,8(sp)
   fbb94:	02002025 	move	a0,s0
   fbb98:	00a09025 	move	s2,a1
   fbb9c:	afbf000c 	sw	ra,12(sp)
   fbba0:	0c069546 	jal	1a5518 <memchr>
   fbba4:	2405003d 	li	a1,61
   fbba8:	10400005 	beqz	v0,fbbc0 <FLAC__metadata_object_vorbiscomment_entry_matches+0x48>
   fbbac:	8fbf000c 	lw	ra,12(sp)
   fbbb0:	00503023 	subu	a2,v0,s0
--
   fc31c:	8e290018 	lw	t1,24(s1)
   fc320:	1120000b 	beqz	t1,fc350 <FLAC__metadata_object_cuesheet_track_clone+0xa8>
   fc324:	01209025 	move	s2,t1
   fc328:	92240017 	lbu	a0,23(s1)
   fc32c:	0c04cd1c 	jal	133470 <safe_malloc_mul_2op_p>
   fc330:	24050010 	li	a1,16
   fc334:	1040000d 	beqz	v0,fc36c <FLAC__metadata_object_cuesheet_track_clone+0xc4>
   fc338:	00402025 	move	a0,v0
   fc33c:	922a0017 	lbu	t2,23(s1)
   fc340:	8e250018 	lw	a1,24(s1)
   fc344:	0c067a4c 	jal	19e930 <memcpy>
   fc348:	000a3100 	sll	a2,t2,0x4
   fc34c:	ae020018 	sw	v0,24(s0)
   fc350:	8fbf000c 	lw	ra,12(sp)
   fc354:	8fb20008 	lw	s2,8(sp)
   fc358:	8fb10004 	lw	s1,4(sp)
   fc35c:	02001025 	move	v0,s0
   fc360:	8fb00000 	lw	s0,0(sp)
   fc364:	03e00008 	jr	ra
   fc368:	27bd0010 	addiu	sp,sp,16
   fc36c:	0c067e00 	jal	19f800 <free>
   fc370:	02402025 	move	a0,s2
   fc374:	0c067e00 	jal	19f800 <free>
   fc378:	02002025 	move	a0,s0
   fc37c:	1000fff4 	b	fc350 <FLAC__metadata_object_cuesheet_track_clone+0xa8>
   fc380:	00008025 	move	s0,zero

000fc384 <FLAC__metadata_object_cuesheet_track_delete_data>:
   fc384:	8c840018 	lw	a0,24(a0)
   fc388:	10800003 	beqz	a0,fc398 <FLAC__metadata_object_cuesheet_track_delete_data+0x14>
   fc38c:	00000000 	nop
   fc390:	08067e00 	j	19f800 <free>
   fc394:	00000000 	nop
   fc398:	03e00008 	jr	ra
   fc39c:	00000000 	nop

000fc3a0 <FLAC__metadata_object_cuesheet_track_delete>:
   fc3a0:	00801025 	move	v0,a0
   fc3a4:	8c840018 	lw	a0,24(a0)
   fc3a8:	10800009 	beqz	a0,fc3d0 <FLAC__metadata_object_cuesheet_track_delete+0x30>
   fc3ac:	00000000 	nop
   fc3b0:	27bdfff0 	addiu	sp,sp,-16
   fc3b4:	afbf000c 	sw	ra,12(sp)
   fc3b8:	0c067e00 	jal	19f800 <free>
   fc3bc:	afa20000 	sw	v0,0(sp)
   fc3c0:	8fa40000 	lw	a0,0(sp)
   fc3c4:	8fbf000c 	lw	ra,12(sp)
   fc3c8:	08067e00 	j	19f800 <free>
   fc3cc:	27bd0010 	addiu	sp,sp,16
   fc3d0:	08067e00 	j	19f800 <free>
   fc3d4:	00402025 	move	a0,v0

000fc3d8 <FLAC__metadata_object_cuesheet_track_resize_indices>:
   fc3d8:	27bdffe8 	addiu	sp,sp,-24
   fc3dc:	afbf0014 	sw	ra,20(sp)
   fc3e0:	afb00010 	sw	s0,16(sp)
   fc3e4:	8c8300a8 	lw	v1,168(a0)
   fc3e8:	00052940 	sll	a1,a1,0x5
   fc3ec:	00804025 	move	t0,a0
   fc3f0:	00654821 	addu	t1,v1,a1
   fc3f4:	8d240018 	lw	a0,24(t1)
   fc3f8:	10800016 	beqz	a0,fc454 <FLAC__metadata_object_cuesheet_track_resize_indices+0x7c>
   fc3fc:	3c021000 	lui	v0,0x1000
   fc400:	00c2102b 	sltu	v0,a2,v0
   fc404:	1040000f 	beqz	v0,fc444 <FLAC__metadata_object_cuesheet_track_resize_indices+0x6c>
   fc408:	00062900 	sll	a1,a2,0x4
   fc40c:	54a00020 	bnezl	a1,fc490 <FLAC__metadata_object_cuesheet_track_resize_indices+0xb8>
   fc410:	91300017 	lbu	s0,23(t1)
   fc414:	afa60008 	sw	a2,8(sp)
   fc418:	afa80004 	sw	t0,4(sp)
   fc41c:	0c067e00 	jal	19f800 <free>
   fc420:	afa90000 	sw	t1,0(sp)
   fc424:	8faf0000 	lw	t7,0(sp)
   fc428:	8fae0004 	lw	t6,4(sp)
   fc42c:	8fad0008 	lw	t5,8(sp)
   fc430:	ade00018 	sw	zero,24(t7)
   fc434:	a1ed0017 	sb	t5,23(t7)
   fc438:	0c03d4bc 	jal	f52f0 <cuesheet_calculate_length_>
   fc43c:	01c02025 	move	a0,t6
   fc440:	24020001 	li	v0,1
   fc444:	8fbf0014 	lw	ra,20(sp)
   fc448:	8fb00010 	lw	s0,16(sp)
   fc44c:	03e00008 	jr	ra
   fc450:	27bd0018 	addiu	sp,sp,24
   fc454:	10c0fffb 	beqz	a2,fc444 <FLAC__metadata_object_cuesheet_track_resize_indices+0x6c>
   fc458:	24020001 	li	v0,1
   fc45c:	24050010 	li	a1,16
   fc460:	00c02025 	move	a0,a2
   fc464:	afa60000 	sw	a2,0(sp)
   fc468:	afa90004 	sw	t1,4(sp)
   fc46c:	0c0679c3 	jal	19e70c <calloc>
--
   fc784:	00061900 	sll	v1,a2,0x4
   fc788:	00463023 	subu	a2,v0,a2
   fc78c:	24c7ffff 	addiu	a3,a2,-1
   fc790:	24650010 	addiu	a1,v1,16
   fc794:	00852821 	addu	a1,a0,a1
   fc798:	00073100 	sll	a2,a3,0x4
   fc79c:	0c069598 	jal	1a5660 <memmove>
   fc7a0:	00832021 	addu	a0,a0,v1
   fc7a4:	8e4800a8 	lw	t0,168(s2)
   fc7a8:	92690017 	lbu	t1,23(s3)
   fc7ac:	01118021 	addu	s0,t0,s1
   fc7b0:	8e040018 	lw	a0,24(s0)
   fc7b4:	10800017 	beqz	a0,fc814 <FLAC__metadata_object_cuesheet_track_delete_index+0xc0>
   fc7b8:	2531ffff 	addiu	s1,t1,-1
   fc7bc:	3c0a1000 	lui	t2,0x1000
   fc7c0:	022a582b 	sltu	t3,s1,t2
   fc7c4:	11600009 	beqz	t3,fc7ec <FLAC__metadata_object_cuesheet_track_delete_index+0x98>
   fc7c8:	00112900 	sll	a1,s1,0x4
   fc7cc:	54a00019 	bnezl	a1,fc834 <FLAC__metadata_object_cuesheet_track_delete_index+0xe0>
   fc7d0:	92130017 	lbu	s3,23(s0)
   fc7d4:	0c067e00 	jal	19f800 <free>
   fc7d8:	00000000 	nop
   fc7dc:	ae000018 	sw	zero,24(s0)
   fc7e0:	a2110017 	sb	s1,23(s0)
   fc7e4:	0c03d4bc 	jal	f52f0 <cuesheet_calculate_length_>
   fc7e8:	02402025 	move	a0,s2
   fc7ec:	0c03d4bc 	jal	f52f0 <cuesheet_calculate_length_>
   fc7f0:	02402025 	move	a0,s2
   fc7f4:	8fbf001c 	lw	ra,28(sp)
   fc7f8:	8fb30018 	lw	s3,24(sp)
   fc7fc:	8fb20014 	lw	s2,20(sp)
   fc800:	8fb10010 	lw	s1,16(sp)
   fc804:	8fb0000c 	lw	s0,12(sp)
   fc808:	24020001 	li	v0,1
   fc80c:	03e00008 	jr	ra
   fc810:	27bd0020 	addiu	sp,sp,32
   fc814:	1220fff5 	beqz	s1,fc7ec <FLAC__metadata_object_cuesheet_track_delete_index+0x98>
   fc818:	24050010 	li	a1,16
   fc81c:	0c0679c3 	jal	19e70c <calloc>
   fc820:	02202025 	move	a0,s1
   fc824:	1440ffee 	bnez	v0,fc7e0 <FLAC__metadata_object_cuesheet_track_delete_index+0x8c>
--
   fc880:	afbf0014 	sw	ra,20(sp)
   fc884:	afb40010 	sw	s4,16(sp)
   fc888:	afb3000c 	sw	s3,12(sp)
   fc88c:	afb10004 	sw	s1,4(sp)
   fc890:	00808025 	move	s0,a0
   fc894:	8c8400a8 	lw	a0,168(a0)
   fc898:	10800025 	beqz	a0,fc930 <FLAC__metadata_object_cuesheet_resize_tracks+0xbc>
   fc89c:	00a09025 	move	s2,a1
   fc8a0:	3c020800 	lui	v0,0x800
   fc8a4:	00a2102b 	sltu	v0,a1,v0
   fc8a8:	5040001a 	beqzl	v0,fc914 <FLAC__metadata_object_cuesheet_resize_tracks+0xa0>
   fc8ac:	8fbf0014 	lw	ra,20(sp)
   fc8b0:	8e0300a4 	lw	v1,164(s0)
   fc8b4:	00a3282b 	sltu	a1,a1,v1
   fc8b8:	10a0000b 	beqz	a1,fc8e8 <FLAC__metadata_object_cuesheet_resize_tracks+0x74>
   fc8bc:	0060a025 	move	s4,v1
   fc8c0:	02408825 	move	s1,s2
   fc8c4:	00113140 	sll	a2,s1,0x5
   fc8c8:	00862021 	addu	a0,a0,a2
   fc8cc:	8c840018 	lw	a0,24(a0)
   fc8d0:	0c067e00 	jal	19f800 <free>
   fc8d4:	26310001 	addiu	s1,s1,1
   fc8d8:	8e0700a4 	lw	a3,164(s0)
   fc8dc:	0227402b 	sltu	t0,s1,a3
   fc8e0:	1500fff8 	bnez	t0,fc8c4 <FLAC__metadata_object_cuesheet_resize_tracks+0x50>
   fc8e4:	8e0400a8 	lw	a0,168(s0)
   fc8e8:	00124940 	sll	t1,s2,0x5
   fc8ec:	15200019 	bnez	t1,fc954 <FLAC__metadata_object_cuesheet_resize_tracks+0xe0>
   fc8f0:	00129940 	sll	s3,s2,0x5
   fc8f4:	0c067e00 	jal	19f800 <free>
   fc8f8:	00000000 	nop
   fc8fc:	ae0000a8 	sw	zero,168(s0)
   fc900:	ae1200a4 	sw	s2,164(s0)
   fc904:	0c03d4bc 	jal	f52f0 <cuesheet_calculate_length_>
   fc908:	02002025 	move	a0,s0
   fc90c:	24020001 	li	v0,1
   fc910:	8fbf0014 	lw	ra,20(sp)
   fc914:	8fb40010 	lw	s4,16(sp)
   fc918:	8fb3000c 	lw	s3,12(sp)
   fc91c:	8fb20008 	lw	s2,8(sp)
   fc920:	8fb10004 	lw	s1,4(sp)
   fc924:	8fb00000 	lw	s0,0(sp)
   fc928:	03e00008 	jr	ra
   fc92c:	27bd0018 	addiu	sp,sp,24
   fc930:	10a0fff7 	beqz	a1,fc910 <FLAC__metadata_object_cuesheet_resize_tracks+0x9c>
   fc934:	24020001 	li	v0,1
   fc938:	24050020 	li	a1,32
   fc93c:	0c0679c3 	jal	19e70c <calloc>
   fc940:	02402025 	move	a0,s2
   fc944:	1440ffee 	bnez	v0,fc900 <FLAC__metadata_object_cuesheet_resize_tracks+0x8c>
--
   fc994:	afb00008 	sw	s0,8(sp)
   fc998:	afbf000c 	sw	ra,12(sp)
   fc99c:	00808025 	move	s0,a0
   fc9a0:	8c8400a8 	lw	a0,168(a0)
   fc9a4:	00052940 	sll	a1,a1,0x5
   fc9a8:	24c20020 	addiu	v0,a2,32
   fc9ac:	00852021 	addu	a0,a0,a1
   fc9b0:	14e00015 	bnez	a3,fca08 <FLAC__metadata_object_cuesheet_set_track+0x78>
   fc9b4:	8c830018 	lw	v1,24(a0)
   fc9b8:	8cc90000 	lw	t1,0(a2)
   fc9bc:	8cc80004 	lw	t0,4(a2)
   fc9c0:	8cc70008 	lw	a3,8(a2)
   fc9c4:	8cca000c 	lw	t2,12(a2)
   fc9c8:	24c60010 	addiu	a2,a2,16
   fc9cc:	ac890000 	sw	t1,0(a0)
   fc9d0:	ac880004 	sw	t0,4(a0)
   fc9d4:	ac870008 	sw	a3,8(a0)
   fc9d8:	ac8a000c 	sw	t2,12(a0)
   fc9dc:	14c2fff6 	bne	a2,v0,fc9b8 <FLAC__metadata_object_cuesheet_set_track+0x28>
   fc9e0:	24840010 	addiu	a0,a0,16
   fc9e4:	0c067e00 	jal	19f800 <free>
   fc9e8:	00602025 	move	a0,v1
   fc9ec:	0c03d4bc 	jal	f52f0 <cuesheet_calculate_length_>
   fc9f0:	02002025 	move	a0,s0
   fc9f4:	8fbf000c 	lw	ra,12(sp)
   fc9f8:	8fb00008 	lw	s0,8(sp)
   fc9fc:	24020001 	li	v0,1
   fca00:	03e00008 	jr	ra
   fca04:	27bd0010 	addiu	sp,sp,16
   fca08:	00c02825 	move	a1,a2
   fca0c:	0c03d597 	jal	f565c <copy_track_>
   fca10:	afa30000 	sw	v1,0(sp)
   fca14:	1440fff3 	bnez	v0,fc9e4 <FLAC__metadata_object_cuesheet_set_track+0x54>
   fca18:	8fa30000 	lw	v1,0(sp)
   fca1c:	8fbf000c 	lw	ra,12(sp)
   fca20:	8fb00008 	lw	s0,8(sp)
   fca24:	03e00008 	jr	ra
   fca28:	27bd0010 	addiu	sp,sp,16

000fca2c <FLAC__metadata_object_cuesheet_insert_track>:
   fca2c:	8c8200a4 	lw	v0,164(a0)
--
   fcaa4:	8e2b00a8 	lw	t3,168(s1)
   fcaa8:	01706021 	addu	t4,t3,s0
   fcaac:	ad800018 	sw	zero,24(t4)
   fcab0:	8e2d00a8 	lw	t5,168(s1)
   fcab4:	01b02021 	addu	a0,t5,s0
   fcab8:	1660001b 	bnez	s3,fcb28 <FLAC__metadata_object_cuesheet_insert_track+0xfc>
   fcabc:	8c900018 	lw	s0,24(a0)
   fcac0:	02801025 	move	v0,s4
   fcac4:	268e0020 	addiu	t6,s4,32
   fcac8:	8c4f0000 	lw	t7,0(v0)
   fcacc:	8c580004 	lw	t8,4(v0)
   fcad0:	8c590008 	lw	t9,8(v0)
   fcad4:	8c5f000c 	lw	ra,12(v0)
   fcad8:	24420010 	addiu	v0,v0,16
   fcadc:	ac8f0000 	sw	t7,0(a0)
   fcae0:	ac980004 	sw	t8,4(a0)
   fcae4:	ac990008 	sw	t9,8(a0)
   fcae8:	ac9f000c 	sw	ra,12(a0)
   fcaec:	144efff6 	bne	v0,t6,fcac8 <FLAC__metadata_object_cuesheet_insert_track+0x9c>
   fcaf0:	24840010 	addiu	a0,a0,16
   fcaf4:	0c067e00 	jal	19f800 <free>
   fcaf8:	02002025 	move	a0,s0
   fcafc:	0c03d4bc 	jal	f52f0 <cuesheet_calculate_length_>
   fcb00:	02202025 	move	a0,s1
   fcb04:	8fbf0014 	lw	ra,20(sp)
   fcb08:	8fb40010 	lw	s4,16(sp)
   fcb0c:	8fb3000c 	lw	s3,12(sp)
   fcb10:	8fb10004 	lw	s1,4(sp)
   fcb14:	8fb00000 	lw	s0,0(sp)
   fcb18:	02401025 	move	v0,s2
   fcb1c:	8fb20008 	lw	s2,8(sp)
   fcb20:	03e00008 	jr	ra
   fcb24:	27bd0018 	addiu	sp,sp,24
   fcb28:	0c03d597 	jal	f565c <copy_track_>
   fcb2c:	02802825 	move	a1,s4
   fcb30:	1440fff0 	bnez	v0,fcaf4 <FLAC__metadata_object_cuesheet_insert_track+0xc8>
   fcb34:	00000000 	nop
   fcb38:	8fbf0014 	lw	ra,20(sp)
   fcb3c:	00009025 	move	s2,zero
   fcb40:	8fb40010 	lw	s4,16(sp)
   fcb44:	8fb3000c 	lw	s3,12(sp)
--
   fcbf8:	ada00018 	sw	zero,24(t5)
   fcbfc:	8e2e00a8 	lw	t6,168(s1)
   fcc00:	01d02821 	addu	a1,t6,s0
   fcc04:	8ca40018 	lw	a0,24(a1)
   fcc08:	8faf0020 	lw	t7,32(sp)
   fcc0c:	8fa60020 	lw	a2,32(sp)
   fcc10:	24a50010 	addiu	a1,a1,16
   fcc14:	8df80000 	lw	t8,0(t7)
   fcc18:	8df90004 	lw	t9,4(t7)
   fcc1c:	8dff0008 	lw	ra,8(t7)
   fcc20:	8de2000c 	lw	v0,12(t7)
   fcc24:	24c30010 	addiu	v1,a2,16
   fcc28:	afa30020 	sw	v1,32(sp)
   fcc2c:	acb8fff0 	sw	t8,-16(a1)
   fcc30:	acb9fff4 	sw	t9,-12(a1)
   fcc34:	acbffff8 	sw	ra,-8(a1)
   fcc38:	aca2fffc 	sw	v0,-4(a1)
   fcc3c:	8fb00020 	lw	s0,32(sp)
   fcc40:	560afff2 	bnel	s0,t2,fcc0c <FLAC__metadata_object_cuesheet_insert_blank_track+0xac>
   fcc44:	8faf0020 	lw	t7,32(sp)
   fcc48:	0c067e00 	jal	19f800 <free>
   fcc4c:	00000000 	nop
   fcc50:	0c03d4bc 	jal	f52f0 <cuesheet_calculate_length_>
   fcc54:	02202025 	move	a0,s1
   fcc58:	8fbf0034 	lw	ra,52(sp)
   fcc5c:	8fb1002c 	lw	s1,44(sp)
   fcc60:	8fb00028 	lw	s0,40(sp)
   fcc64:	02401025 	move	v0,s2
   fcc68:	8fb20030 	lw	s2,48(sp)
   fcc6c:	03e00008 	jr	ra
   fcc70:	27bd0038 	addiu	sp,sp,56

000fcc74 <FLAC__metadata_object_cuesheet_delete_track>:
   fcc74:	8c8200a8 	lw	v0,168(a0)
   fcc78:	27bdffe8 	addiu	sp,sp,-24
   fcc7c:	afb10010 	sw	s1,16(sp)
   fcc80:	00058940 	sll	s1,a1,0x5
   fcc84:	00511821 	addu	v1,v0,s1
   fcc88:	afb0000c 	sw	s0,12(sp)
   fcc8c:	00808025 	move	s0,a0
   fcc90:	8c640018 	lw	a0,24(v1)
   fcc94:	afbf0014 	sw	ra,20(sp)
   fcc98:	0c067e00 	jal	19f800 <free>
   fcc9c:	afa50000 	sw	a1,0(sp)
   fcca0:	8e0600a4 	lw	a2,164(s0)
   fcca4:	8fa50000 	lw	a1,0(sp)
   fcca8:	8e0400a8 	lw	a0,168(s0)
   fccac:	26270020 	addiu	a3,s1,32
   fccb0:	00c54023 	subu	t0,a2,a1
   fccb4:	2509ffff 	addiu	t1,t0,-1
   fccb8:	00872821 	addu	a1,a0,a3
   fccbc:	00093140 	sll	a2,t1,0x5
   fccc0:	0c069598 	jal	1a5660 <memmove>
   fccc4:	00912021 	addu	a0,a0,s1
   fccc8:	8e0a00a4 	lw	t2,164(s0)
   fcccc:	3c0c07ff 	lui	t4,0x7ff
   fccd0:	8e0b00a8 	lw	t3,168(s0)
   fccd4:	358dffff 	ori	t5,t4,0xffff
   fccd8:	014d7021 	addu	t6,t2,t5
   fccdc:	000e7940 	sll	t7,t6,0x5
   fcce0:	016fc021 	addu	t8,t3,t7
   fcce4:	a3000017 	sb	zero,23(t8)
   fcce8:	8e1900a4 	lw	t9,164(s0)
--
   fcf84:	afb50020 	sw	s5,32(sp)
   fcf88:	afb30018 	sw	s3,24(sp)
   fcf8c:	afb0000c 	sw	s0,12(sp)
   fcf90:	afbf0024 	sw	ra,36(sp)
   fcf94:	afb4001c 	sw	s4,28(sp)
   fcf98:	afb20014 	sw	s2,20(sp)
   fcf9c:	afb10010 	sw	s1,16(sp)
   fcfa0:	8c910014 	lw	s1,20(a0)
   fcfa4:	00808025 	move	s0,a0
   fcfa8:	00a09825 	move	s3,a1
   fcfac:	12200024 	beqz	s1,fd040 <FLAC__metadata_object_picture_set_mime_type+0xc0>
   fcfb0:	00c0a825 	move	s5,a2
   fcfb4:	0c06789a 	jal	19e268 <strlen>
   fcfb8:	02202025 	move	a0,s1
   fcfbc:	00409025 	move	s2,v0
   fcfc0:	0c06789a 	jal	19e268 <strlen>
   fcfc4:	02602025 	move	a0,s3
   fcfc8:	16a00012 	bnez	s5,fd014 <FLAC__metadata_object_picture_set_mime_type+0x94>
   fcfcc:	0040a025 	move	s4,v0
   fcfd0:	ae130014 	sw	s3,20(s0)
   fcfd4:	0c067e00 	jal	19f800 <free>
   fcfd8:	02202025 	move	a0,s1
   fcfdc:	8e030008 	lw	v1,8(s0)
   fcfe0:	24020001 	li	v0,1
   fcfe4:	02832021 	addu	a0,s4,v1
   fcfe8:	00922823 	subu	a1,a0,s2
   fcfec:	ae050008 	sw	a1,8(s0)
   fcff0:	8fbf0024 	lw	ra,36(sp)
   fcff4:	8fb50020 	lw	s5,32(sp)
   fcff8:	8fb4001c 	lw	s4,28(sp)
   fcffc:	8fb30018 	lw	s3,24(sp)
   fd000:	8fb20014 	lw	s2,20(sp)
   fd004:	8fb10010 	lw	s1,16(sp)
   fd008:	8fb0000c 	lw	s0,12(sp)
   fd00c:	03e00008 	jr	ra
   fd010:	27bd0028 	addiu	sp,sp,40
   fd014:	24460001 	addiu	a2,v0,1
   fd018:	00c02025 	move	a0,a2
   fd01c:	0c067dfc 	jal	19f7f0 <malloc>
   fd020:	afa60000 	sw	a2,0(sp)
   fd024:	10400008 	beqz	v0,fd048 <FLAC__metadata_object_picture_set_mime_type+0xc8>
--
   fd054:	afb50020 	sw	s5,32(sp)
   fd058:	afb30018 	sw	s3,24(sp)
   fd05c:	afb0000c 	sw	s0,12(sp)
   fd060:	afbf0024 	sw	ra,36(sp)
   fd064:	afb4001c 	sw	s4,28(sp)
   fd068:	afb20014 	sw	s2,20(sp)
   fd06c:	afb10010 	sw	s1,16(sp)
   fd070:	8c910018 	lw	s1,24(a0)
   fd074:	00808025 	move	s0,a0
   fd078:	00a09825 	move	s3,a1
   fd07c:	12200024 	beqz	s1,fd110 <FLAC__metadata_object_picture_set_description+0xc0>
   fd080:	00c0a825 	move	s5,a2
   fd084:	0c06789a 	jal	19e268 <strlen>
   fd088:	02202025 	move	a0,s1
   fd08c:	00409025 	move	s2,v0
   fd090:	0c06789a 	jal	19e268 <strlen>
   fd094:	02602025 	move	a0,s3
   fd098:	16a00012 	bnez	s5,fd0e4 <FLAC__metadata_object_picture_set_description+0x94>
   fd09c:	0040a025 	move	s4,v0
   fd0a0:	ae130018 	sw	s3,24(s0)
   fd0a4:	0c067e00 	jal	19f800 <free>
   fd0a8:	02202025 	move	a0,s1
   fd0ac:	8e030008 	lw	v1,8(s0)
   fd0b0:	24020001 	li	v0,1
   fd0b4:	02832021 	addu	a0,s4,v1
   fd0b8:	00922823 	subu	a1,a0,s2
   fd0bc:	ae050008 	sw	a1,8(s0)
   fd0c0:	8fbf0024 	lw	ra,36(sp)
   fd0c4:	8fb50020 	lw	s5,32(sp)
   fd0c8:	8fb4001c 	lw	s4,28(sp)
   fd0cc:	8fb30018 	lw	s3,24(sp)
   fd0d0:	8fb20014 	lw	s2,20(sp)
   fd0d4:	8fb10010 	lw	s1,16(sp)
   fd0d8:	8fb0000c 	lw	s0,12(sp)
   fd0dc:	03e00008 	jr	ra
   fd0e0:	27bd0028 	addiu	sp,sp,40
   fd0e4:	24460001 	addiu	a2,v0,1
   fd0e8:	00c02025 	move	a0,a2
   fd0ec:	0c067dfc 	jal	19f7f0 <malloc>
   fd0f0:	afa60000 	sw	a2,0(sp)
   fd0f4:	10400008 	beqz	v0,fd118 <FLAC__metadata_object_picture_set_description+0xc8>
   fd0f8:	00402025 	move	a0,v0
   fd0fc:	8fa60000 	lw	a2,0(sp)
   fd100:	0c067a4c 	jal	19e930 <memcpy>
   fd104:	02602825 	move	a1,s3
   fd108:	1000ffe6 	b	fd0a4 <FLAC__metadata_object_picture_set_description+0x54>
   fd10c:	ae020018 	sw	v0,24(s0)
   fd110:	1000ffdf 	b	fd090 <FLAC__metadata_object_picture_set_description+0x40>
   fd114:	00009025 	move	s2,zero
   fd118:	1000ffe9 	b	fd0c0 <FLAC__metadata_object_picture_set_description+0x70>
   fd11c:	00001025 	move	v0,zero

000fd120 <FLAC__metadata_object_picture_set_data>:
   fd120:	27bdffe8 	addiu	sp,sp,-24
   fd124:	afb00010 	sw	s0,16(sp)
   fd128:	afbf0014 	sw	ra,20(sp)
   fd12c:	8c830030 	lw	v1,48(a0)
   fd130:	14e00011 	bnez	a3,fd178 <FLAC__metadata_object_picture_set_data+0x58>
   fd134:	00808025 	move	s0,a0
   fd138:	ac850030 	sw	a1,48(a0)
   fd13c:	00602025 	move	a0,v1
   fd140:	0c067e00 	jal	19f800 <free>
   fd144:	afa60000 	sw	a2,0(sp)
   fd148:	8e050008 	lw	a1,8(s0)
   fd14c:	8fa60000 	lw	a2,0(sp)
   fd150:	8e04002c 	lw	a0,44(s0)
   fd154:	24020001 	li	v0,1
   fd158:	00c53821 	addu	a3,a2,a1
   fd15c:	00e44023 	subu	t0,a3,a0
   fd160:	ae06002c 	sw	a2,44(s0)
   fd164:	ae080008 	sw	t0,8(s0)
   fd168:	8fbf0014 	lw	ra,20(sp)
   fd16c:	8fb00010 	lw	s0,16(sp)
   fd170:	03e00008 	jr	ra
   fd174:	27bd0018 	addiu	sp,sp,24
   fd178:	50c0fff0 	beqzl	a2,fd13c <FLAC__metadata_object_picture_set_data+0x1c>
   fd17c:	ae000030 	sw	zero,48(s0)
   fd180:	10a0000e 	beqz	a1,fd1bc <FLAC__metadata_object_picture_set_data+0x9c>
   fd184:	00c02025 	move	a0,a2
   fd188:	afa30004 	sw	v1,4(sp)
   fd18c:	afa60000 	sw	a2,0(sp)
   fd190:	0c067dfc 	jal	19f7f0 <malloc>
--
   fd390:	02002025 	move	a0,s0
   fd394:	00001025 	move	v0,zero
   fd398:	8fbf0024 	lw	ra,36(sp)
   fd39c:	8fb00020 	lw	s0,32(sp)
   fd3a0:	03e00008 	jr	ra
   fd3a4:	27bd0028 	addiu	sp,sp,40
   fd3a8:	0c040a5c 	jal	102970 <FLAC__stream_decoder_get_state>
   fd3ac:	02002025 	move	a0,s0
   fd3b0:	24080004 	li	t0,4
   fd3b4:	1048ffe8 	beq	v0,t0,fd358 <FLAC__metadata_object_set_raw+0xa8>
   fd3b8:	8fa9000c 	lw	t1,12(sp)
   fd3bc:	0c04095b 	jal	10256c <FLAC__stream_decoder_finish>
   fd3c0:	02002025 	move	a0,s0
   fd3c4:	0c04092f 	jal	1024bc <FLAC__stream_decoder_delete>
   fd3c8:	02002025 	move	a0,s0
   fd3cc:	8fb00008 	lw	s0,8(sp)
   fd3d0:	1200fff1 	beqz	s0,fd398 <FLAC__metadata_object_set_raw+0xe8>
   fd3d4:	00001025 	move	v0,zero
   fd3d8:	0c03d69d 	jal	f5a74 <FLAC__metadata_object_delete_data>
   fd3dc:	02002025 	move	a0,s0
   fd3e0:	0c067e00 	jal	19f800 <free>
   fd3e4:	02002025 	move	a0,s0
   fd3e8:	1000ffeb 	b	fd398 <FLAC__metadata_object_set_raw+0xe8>
   fd3ec:	00001025 	move	v0,zero

000fd3f0 <read_callback_proxy_>:
   fd3f0:	8c820004 	lw	v0,4(a0)
   fd3f4:	27bdfff8 	addiu	sp,sp,-8
   fd3f8:	afbf0004 	sw	ra,4(sp)
   fd3fc:	8c420004 	lw	v0,4(v0)
   fd400:	0040f809 	jalr	v0
   fd404:	00000000 	nop
   fd408:	38450001 	xori	a1,v0,0x1
   fd40c:	8fbf0004 	lw	ra,4(sp)
   fd410:	24030006 	li	v1,6
   fd414:	00402025 	move	a0,v0
   fd418:	0045180a 	movz	v1,v0,a1
   fd41c:	0062200b 	movn	a0,v1,v0
   fd420:	00801025 	move	v0,a0
   fd424:	03e00008 	jr	ra
   fd428:	27bd0008 	addiu	sp,sp,8
--
   fe1d4:	17e0ff7c 	bnez	ra,fdfc8 <write_audio_frame_to_client_+0x1e8>
   fe1d8:	01687023 	subu	t6,t3,t0
   fe1dc:	1000ffdb 	b	fe14c <write_audio_frame_to_client_+0x36c>
   fe1e0:	00001025 	move	v0,zero

000fe1e4 <FLAC__stream_decoder_finish.part.0>:
   fe1e4:	27bdffe0 	addiu	sp,sp,-32
   fe1e8:	afb20014 	sw	s2,20(sp)
   fe1ec:	00809025 	move	s2,a0
   fe1f0:	8c840004 	lw	a0,4(a0)
   fe1f4:	afbf001c 	sw	ra,28(sp)
   fe1f8:	afb30018 	sw	s3,24(sp)
   fe1fc:	2485128c 	addiu	a1,a0,4748
   fe200:	248412ec 	addiu	a0,a0,4844
   fe204:	afb0000c 	sw	s0,12(sp)
   fe208:	0c04c302 	jal	130c08 <FLAC__MD5Final>
   fe20c:	afb10010 	sw	s1,16(sp)
   fe210:	8e420004 	lw	v0,4(s2)
   fe214:	00008025 	move	s0,zero
   fe218:	24130008 	li	s3,8
   fe21c:	0c067e00 	jal	19f800 <free>
   fe220:	8c4401bc 	lw	a0,444(v0)
   fe224:	8e430004 	lw	v1,4(s2)
   fe228:	ac6001bc 	sw	zero,444(v1)
   fe22c:	8e450004 	lw	a1,4(s2)
   fe230:	8ca4002c 	lw	a0,44(a1)
   fe234:	0c042fda 	jal	10bf68 <FLAC__bitreader_free>
   fe238:	aca000f4 	sw	zero,244(a1)
   fe23c:	8e420004 	lw	v0,4(s2)
   fe240:	2611000c 	addiu	s1,s0,12
   fe244:	00118880 	sll	s1,s1,0x2
   fe248:	00513021 	addu	a2,v0,s1
   fe24c:	8cc70000 	lw	a3,0(a2)
   fe250:	10e00006 	beqz	a3,fe26c <FLAC__stream_decoder_finish.part.0+0x88>
   fe254:	24e4fff0 	addiu	a0,a3,-16
   fe258:	0c067e00 	jal	19f800 <free>
   fe25c:	00000000 	nop
   fe260:	8e420004 	lw	v0,4(s2)
   fe264:	00514021 	addu	t0,v0,s1
   fe268:	ad000000 	sw	zero,0(t0)
   fe26c:	00105080 	sll	t2,s0,0x2
   fe270:	004a5821 	addu	t3,v0,t2
   fe274:	8d64125c 	lw	a0,4700(t3)
   fe278:	50800009 	beqzl	a0,fe2a0 <FLAC__stream_decoder_finish.part.0+0xbc>
   fe27c:	26100001 	addiu	s0,s0,1
   fe280:	0c067e00 	jal	19f800 <free>
   fe284:	00000000 	nop
   fe288:	8e420004 	lw	v0,4(s2)
   fe28c:	00106080 	sll	t4,s0,0x2
   fe290:	004c6821 	addu	t5,v0,t4
   fe294:	ada00050 	sw	zero,80(t5)
   fe298:	ada0125c 	sw	zero,4700(t5)
   fe29c:	26100001 	addiu	s0,s0,1
   fe2a0:	1613ffe8 	bne	s0,s3,fe244 <FLAC__stream_decoder_finish.part.0+0x60>
   fe2a4:	2611000c 	addiu	s1,s0,12
   fe2a8:	8c440070 	lw	a0,112(v0)
   fe2ac:	50800006 	beqzl	a0,fe2c8 <FLAC__stream_decoder_finish.part.0+0xe4>
   fe2b0:	8c4e0000 	lw	t6,0(v0)
   fe2b4:	0c067e00 	jal	19f800 <free>
   fe2b8:	00000000 	nop
   fe2bc:	8e420004 	lw	v0,4(s2)
   fe2c0:	ac400070 	sw	zero,112(v0)
   fe2c4:	8c4e0000 	lw	t6,0(v0)
   fe2c8:	ac4000d8 	sw	zero,216(v0)
   fe2cc:	15c00039 	bnez	t6,fe3b4 <FLAC__stream_decoder_finish.part.0+0x1d0>
   fe2d0:	ac4000dc 	sw	zero,220(v0)
   fe2d4:	8c440028 	lw	a0,40(v0)
   fe2d8:	10800008 	beqz	a0,fe2fc <FLAC__stream_decoder_finish.part.0+0x118>
   fe2dc:	8f9883c0 	lw	t8,-31808(gp)
   fe2e0:	8f190004 	lw	t9,4(t8)
   fe2e4:	50990005 	beql	a0,t9,fe2fc <FLAC__stream_decoder_finish.part.0+0x118>
   fe2e8:	ac400028 	sw	zero,40(v0)
   fe2ec:	0c068b1a 	jal	1a2c68 <fclose>
   fe2f0:	00000000 	nop
   fe2f4:	8e420004 	lw	v0,4(s2)
   fe2f8:	ac400028 	sw	zero,40(v0)
   fe2fc:	8c5f127c 	lw	ra,4732(v0)
   fe300:	13e00008 	beqz	ra,fe324 <FLAC__stream_decoder_finish.part.0+0x140>
   fe304:	24130001 	li	s3,1
--
   fe590:	1440000b 	bnez	v0,fe5c0 <read_frame_+0x1f8>
   fe594:	8d510478 	lw	s1,1144(t2)
   fe598:	8d4300dc 	lw	v1,220(t2)
   fe59c:	0076382b 	sltu	a3,v1,s6
   fe5a0:	14e00008 	bnez	a3,fe5c4 <read_frame_+0x1fc>
   fe5a4:	00009825 	move	s3,zero
   fe5a8:	2e320020 	sltiu	s2,s1,32
   fe5ac:	16400144 	bnez	s2,feac0 <read_frame_+0x6f8>
   fe5b0:	00000000 	nop
   fe5b4:	8d480070 	lw	t0,112(t2)
   fe5b8:	15000141 	bnez	t0,feac0 <read_frame_+0x6f8>
   fe5bc:	00000000 	nop
   fe5c0:	00009825 	move	s3,zero
   fe5c4:	24120008 	li	s2,8
   fe5c8:	266b000c 	addiu	t3,s3,12
   fe5cc:	000ba880 	sll	s5,t3,0x2
   fe5d0:	01556021 	addu	t4,t2,s5
   fe5d4:	8d8d0000 	lw	t5,0(t4)
   fe5d8:	11a00007 	beqz	t5,fe5f8 <read_frame_+0x230>
   fe5dc:	00133080 	sll	a2,s3,0x2
   fe5e0:	0c067e00 	jal	19f800 <free>
   fe5e4:	25a4fff0 	addiu	a0,t5,-16
   fe5e8:	8e0a0004 	lw	t2,4(s0)
   fe5ec:	01557021 	addu	t6,t2,s5
   fe5f0:	adc00000 	sw	zero,0(t6)
   fe5f4:	00133080 	sll	a2,s3,0x2
   fe5f8:	0146c021 	addu	t8,t2,a2
   fe5fc:	8f04125c 	lw	a0,4700(t8)
   fe600:	50800009 	beqzl	a0,fe628 <read_frame_+0x260>
   fe604:	26730001 	addiu	s3,s3,1
   fe608:	0c067e00 	jal	19f800 <free>
   fe60c:	00000000 	nop
   fe610:	8e0a0004 	lw	t2,4(s0)
   fe614:	0013c880 	sll	t9,s3,0x2
   fe618:	01594821 	addu	t1,t2,t9
   fe61c:	ad200050 	sw	zero,80(t1)
   fe620:	ad20125c 	sw	zero,4700(t1)
   fe624:	26730001 	addiu	s3,s3,1
   fe628:	1672ffe8 	bne	s3,s2,fe5cc <read_frame_+0x204>
   fe62c:	266b000c 	addiu	t3,s3,12
   fe630:	8d440070 	lw	a0,112(t2)
   fe634:	50800006 	beqzl	a0,fe650 <read_frame_+0x288>
   fe638:	8d5f00d8 	lw	ra,216(t2)
   fe63c:	0c067e00 	jal	19f800 <free>
   fe640:	00000000 	nop
   fe644:	8e0a0004 	lw	t2,4(s0)
   fe648:	ad400070 	sw	zero,112(t2)
   fe64c:	8d5f00d8 	lw	ra,216(t2)
   fe650:	03f7282b 	sltu	a1,ra,s7
   fe654:	12c00114 	beqz	s6,feaa8 <read_frame_+0x6e0>
   fe658:	03e5b80a 	movz	s7,ra,a1
   fe65c:	3c0a3fff 	lui	t2,0x3fff
   fe660:	3544fffc 	ori	a0,t2,0xfffc
   fe664:	02e4102b 	sltu	v0,s7,a0
   fe668:	14400933 	bnez	v0,100b38 <read_frame_+0x2770>
   fe66c:	26e30004 	addiu	v1,s7,4
   fe670:	8e020000 	lw	v0,0(s0)
   fe674:	24080008 	li	t0,8
   fe678:	ac480000 	sw	t0,0(v0)
   fe67c:	8fbf0e34 	lw	ra,3636(sp)
   fe680:	8fbe0e30 	lw	s8,3632(sp)
   fe684:	8fb70e2c 	lw	s7,3628(sp)
   fe688:	8fb60e28 	lw	s6,3624(sp)
   fe68c:	8fb50e24 	lw	s5,3620(sp)
--
  1001e0:	afa00bf8 	sw	zero,3064(sp)
  1001e4:	afac0c00 	sw	t4,3072(sp)
  1001e8:	afae0c04 	sw	t6,3076(sp)
  1001ec:	afa00da0 	sw	zero,3488(sp)
  1001f0:	27a60db0 	addiu	a2,sp,3504
  1001f4:	03a02825 	move	a1,sp
  1001f8:	0c03f778 	jal	fdde0 <write_audio_frame_to_client_>
  1001fc:	02002025 	move	a0,s0
  100200:	54400295 	bnezl	v0,100c58 <read_frame_+0x2890>
  100204:	8e100000 	lw	s0,0(s0)
  100208:	16e0ffb6 	bnez	s7,1000e4 <read_frame_+0x1d1c>
  10020c:	8fab0018 	lw	t3,24(sp)
  100210:	8fb60008 	lw	s6,8(sp)
  100214:	27b40db0 	addiu	s4,sp,3504
  100218:	02f6a82b 	sltu	s5,s7,s6
  10021c:	52a0028c 	beqzl	s5,100c50 <read_frame_+0x2888>
  100220:	8e0a0004 	lw	t2,4(s0)
  100224:	8e840000 	lw	a0,0(s4)
  100228:	10800004 	beqz	a0,10023c <read_frame_+0x1e74>
  10022c:	26f70001 	addiu	s7,s7,1
  100230:	0c067e00 	jal	19f800 <free>
  100234:	00000000 	nop
  100238:	8fb60008 	lw	s6,8(sp)
  10023c:	1000fff6 	b	100218 <read_frame_+0x1e50>
  100240:	26940004 	addiu	s4,s4,4
  100244:	24130001 	li	s3,1
  100248:	1000f8a8 	b	fe4ec <read_frame_+0x124>
  10024c:	00009025 	move	s2,zero
  100250:	8d57002c 	lw	s7,44(t2)
  100254:	afa00000 	sw	zero,0(sp)
  100258:	0c04311b 	jal	10c46c <FLAC__bitreader_bits_left_for_byte_alignment>
  10025c:	02e02025 	move	a0,s7
  100260:	00403025 	move	a2,v0
  100264:	03a02825 	move	a1,sp
  100268:	0c043137 	jal	10c4dc <FLAC__bitreader_read_raw_uint32>
  10026c:	02e02025 	move	a0,s7
  100270:	1040f902 	beqz	v0,fe67c <read_frame_+0x2b4>
  100274:	8fad0000 	lw	t5,0(sp)
  100278:	11a0faa1 	beqz	t5,fed00 <read_frame_+0x938>
  10027c:	8e0a0004 	lw	t2,4(s0)
  100280:	8d5f1284 	lw	ra,4740(t2)
--
  100c34:	0c03f691 	jal	fda44 <read_residual_partitioned_rice_>
  100c38:	afae0df8 	sw	t6,3576(sp)
  100c3c:	1040f7f6 	beqz	v0,fec18 <read_frame_+0x850>
  100c40:	8fad0dfc 	lw	t5,3580(sp)
  100c44:	8e0b0004 	lw	t3,4(s0)
  100c48:	1000ff4e 	b	100984 <read_frame_+0x25bc>
  100c4c:	8fae0df8 	lw	t6,3576(sp)
  100c50:	1000f7f7 	b	fec30 <read_frame_+0x868>
  100c54:	8e020000 	lw	v0,0(s0)
  100c58:	241e0007 	li	s8,7
  100c5c:	8fb20008 	lw	s2,8(sp)
  100c60:	27b10db0 	addiu	s1,sp,3504
  100c64:	ae1e0000 	sw	s8,0(s0)
  100c68:	00009825 	move	s3,zero
  100c6c:	0272b82b 	sltu	s7,s3,s2
  100c70:	12e0f683 	beqz	s7,fe680 <read_frame_+0x2b8>
  100c74:	8fbf0e34 	lw	ra,3636(sp)
  100c78:	8e240000 	lw	a0,0(s1)
  100c7c:	10800004 	beqz	a0,100c90 <read_frame_+0x28c8>
  100c80:	26730001 	addiu	s3,s3,1
  100c84:	0c067e00 	jal	19f800 <free>
  100c88:	00000000 	nop
  100c8c:	8fb20008 	lw	s2,8(sp)
  100c90:	1000fff6 	b	100c6c <read_frame_+0x28a4>
  100c94:	26310004 	addiu	s1,s1,4
  100c98:	8fb60008 	lw	s6,8(sp)
  100c9c:	27be0db0 	addiu	s8,sp,3504
  100ca0:	0000a025 	move	s4,zero
  100ca4:	0296a82b 	sltu	s5,s4,s6
  100ca8:	52a0f672 	beqzl	s5,fe674 <read_frame_+0x2ac>
  100cac:	8e020000 	lw	v0,0(s0)
  100cb0:	8fc40000 	lw	a0,0(s8)
  100cb4:	10800004 	beqz	a0,100cc8 <read_frame_+0x2900>
  100cb8:	26940001 	addiu	s4,s4,1
  100cbc:	0c067e00 	jal	19f800 <free>
  100cc0:	00000000 	nop
  100cc4:	8fb60008 	lw	s6,8(sp)
  100cc8:	1000fff6 	b	100ca4 <read_frame_+0x28dc>
  100ccc:	27de0004 	addiu	s8,s8,4

00100cd0 <frame_sync_>:
  100cd0:	8c820004 	lw	v0,4(a0)
  100cd4:	27bdffd8 	addiu	sp,sp,-40
  100cd8:	afb20014 	sw	s2,20(sp)
  100cdc:	00809025 	move	s2,a0
  100ce0:	8c44002c 	lw	a0,44(v0)
  100ce4:	afbf0024 	sw	ra,36(sp)
  100ce8:	afb50020 	sw	s5,32(sp)
  100cec:	afb4001c 	sw	s4,28(sp)
  100cf0:	afb30018 	sw	s3,24(sp)
  100cf4:	afb10010 	sw	s1,16(sp)
  100cf8:	0c043117 	jal	10c45c <FLAC__bitreader_is_consumed_byte_aligned>
  100cfc:	afb0000c 	sw	s0,12(sp)
  100d00:	5040004e 	beqzl	v0,100e3c <frame_sync_+0x16c>
  100d04:	8e430004 	lw	v1,4(s2)
--
  101ce8:	8fa400b8 	lw	a0,184(sp)
  101cec:	2c8a0007 	sltiu	t2,a0,7
  101cf0:	11400078 	beqz	t2,101ed4 <read_metadata_+0x100c>
  101cf4:	3c0c001e 	lui	t4,0x1e
  101cf8:	00045880 	sll	t3,a0,0x2
  101cfc:	259f85f4 	addiu	ra,t4,-31244
  101d00:	03eb6821 	addu	t5,ra,t3
  101d04:	8da50000 	lw	a1,0(t5)
  101d08:	00a00008 	jr	a1
  101d0c:	00000000 	nop
  101d10:	8e030004 	lw	v1,4(s0)
  101d14:	02c02825 	move	a1,s6
  101d18:	0c043387 	jal	10ce1c <FLAC__bitreader_skip_byte_block_aligned_no_crc>
  101d1c:	8c64002c 	lw	a0,44(v1)
  101d20:	1000fe9d 	b	101798 <read_metadata_+0x8d0>
  101d24:	0002b82b 	sltu	s7,zero,v0
  101d28:	24140001 	li	s4,1
  101d2c:	8fa40014 	lw	a0,20(sp)
  101d30:	50800004 	beqzl	a0,101d44 <read_metadata_+0xe7c>
  101d34:	8fa40018 	lw	a0,24(sp)
  101d38:	0c067e00 	jal	19f800 <free>
  101d3c:	00000000 	nop
  101d40:	8fa40018 	lw	a0,24(sp)
  101d44:	50800004 	beqzl	a0,101d58 <read_metadata_+0xe90>
  101d48:	8fa40030 	lw	a0,48(sp)
  101d4c:	0c067e00 	jal	19f800 <free>
  101d50:	00000000 	nop
  101d54:	8fa40030 	lw	a0,48(sp)
  101d58:	10800003 	beqz	a0,101d68 <read_metadata_+0xea0>
  101d5c:	00000000 	nop
  101d60:	0c067e00 	jal	19f800 <free>
  101d64:	00000000 	nop
  101d68:	1680fc90 	bnez	s4,100fac <read_metadata_+0xe4>
  101d6c:	8fb900c0 	lw	t9,192(sp)
  101d70:	1000fc69 	b	100f18 <read_metadata_+0x50>
  101d74:	00001025 	move	v0,zero
  101d78:	24140001 	li	s4,1
  101d7c:	8fa40014 	lw	a0,20(sp)
  101d80:	10800004 	beqz	a0,101d94 <read_metadata_+0xecc>
  101d84:	8fa70018 	lw	a3,24(sp)
  101d88:	0c067e00 	jal	19f800 <free>
  101d8c:	00000000 	nop
  101d90:	8fa70018 	lw	a3,24(sp)
  101d94:	10e0000f 	beqz	a3,101dd4 <read_metadata_+0xf0c>
  101d98:	8fb8001c 	lw	t8,28(sp)
  101d9c:	0000f025 	move	s8,zero
  101da0:	001eb8c0 	sll	s7,s8,0x3
  101da4:	0317c821 	addu	t9,t8,s7
  101da8:	8f240004 	lw	a0,4(t9)
  101dac:	5080008b 	beqzl	a0,101fdc <read_metadata_+0x1114>
  101db0:	27de0001 	addiu	s8,s8,1
  101db4:	0c067e00 	jal	19f800 <free>
  101db8:	afbe00c4 	sw	s8,196(sp)
  101dbc:	8fa900c4 	lw	t1,196(sp)
  101dc0:	8fa70018 	lw	a3,24(sp)
  101dc4:	253e0001 	addiu	s8,t1,1
  101dc8:	03c7302b 	sltu	a2,s8,a3
  101dcc:	14c0fff4 	bnez	a2,101da0 <read_metadata_+0xed8>
  101dd0:	8fb8001c 	lw	t8,28(sp)
  101dd4:	1300ffe4 	beqz	t8,101d68 <read_metadata_+0xea0>
  101dd8:	00000000 	nop
  101ddc:	0c067e00 	jal	19f800 <free>
  101de0:	03002025 	move	a0,t8
  101de4:	1000ffe0 	b	101d68 <read_metadata_+0xea0>
  101de8:	00000000 	nop
  101dec:	8fb600a4 	lw	s6,164(sp)
  101df0:	12c000b4 	beqz	s6,1020c4 <read_metadata_+0x11fc>
  101df4:	8fb800a8 	lw	t8,168(sp)
  101df8:	1300fc6b 	beqz	t8,100fa8 <read_metadata_+0xe0>
  101dfc:	24140001 	li	s4,1
  101e00:	00009825 	move	s3,zero
  101e04:	00137140 	sll	t6,s3,0x5
  101e08:	030e7821 	addu	t7,t8,t6
  101e0c:	8de40018 	lw	a0,24(t7)
  101e10:	50800085 	beqzl	a0,102028 <read_metadata_+0x1160>
  101e14:	26730001 	addiu	s3,s3,1
  101e18:	0c067e00 	jal	19f800 <free>
  101e1c:	afb300c4 	sw	s3,196(sp)
  101e20:	8fa800c4 	lw	t0,196(sp)
  101e24:	8fb600a4 	lw	s6,164(sp)
  101e28:	25130001 	addiu	s3,t0,1
  101e2c:	0276182b 	sltu	v1,s3,s6
  101e30:	1460fff4 	bnez	v1,101e04 <read_metadata_+0xf3c>
  101e34:	8fb800a8 	lw	t8,168(sp)
  101e38:	1000ffe6 	b	101dd4 <read_metadata_+0xf0c>
  101e3c:	00000000 	nop
  101e40:	8fa40014 	lw	a0,20(sp)
  101e44:	1080fc59 	beqz	a0,100fac <read_metadata_+0xe4>
  101e48:	8fb900c0 	lw	t9,192(sp)
  101e4c:	0c067e00 	jal	19f800 <free>
  101e50:	00000000 	nop
  101e54:	1000fc55 	b	100fac <read_metadata_+0xe4>
  101e58:	8fb900c0 	lw	t9,192(sp)
  101e5c:	8fa40010 	lw	a0,16(sp)
  101e60:	1080fc52 	beqz	a0,100fac <read_metadata_+0xe4>
  101e64:	8fb900c0 	lw	t9,192(sp)
  101e68:	0c067e00 	jal	19f800 <free>
  101e6c:	00000000 	nop
  101e70:	1000fc4e 	b	100fac <read_metadata_+0xe4>
  101e74:	8fb900c0 	lw	t9,192(sp)
  101e78:	24020002 	li	v0,2
  101e7c:	0c04312e 	jal	10c4b8 <FLAC__bitreader_remove_limit>
  101e80:	ad220000 	sw	v0,0(t1)
  101e84:	1000ff99 	b	101cec <read_metadata_+0xe24>
  101e88:	8fa400b8 	lw	a0,184(sp)
  101e8c:	1000ffa7 	b	101d2c <read_metadata_+0xe64>
  101e90:	0000a025 	move	s4,zero
  101e94:	1000ffb9 	b	101d7c <read_metadata_+0xeb4>
  101e98:	0000a025 	move	s4,zero
  101e9c:	8fb600a4 	lw	s6,164(sp)
  101ea0:	12c00082 	beqz	s6,1020ac <read_metadata_+0x11e4>
  101ea4:	8fb800a8 	lw	t8,168(sp)
  101ea8:	1700ffd5 	bnez	t8,101e00 <read_metadata_+0xf38>
  101eac:	0000a025 	move	s4,zero
  101eb0:	1000fc19 	b	100f18 <read_metadata_+0x50>
  101eb4:	00001025 	move	v0,zero
  101eb8:	8fa40014 	lw	a0,20(sp)
  101ebc:	1080fc16 	beqz	a0,100f18 <read_metadata_+0x50>
  101ec0:	00001025 	move	v0,zero
  101ec4:	0c067e00 	jal	19f800 <free>
  101ec8:	00000000 	nop
  101ecc:	1000fc12 	b	100f18 <read_metadata_+0x50>
  101ed0:	00001025 	move	v0,zero
  101ed4:	8fa40010 	lw	a0,16(sp)
  101ed8:	1080fc0f 	beqz	a0,100f18 <read_metadata_+0x50>
  101edc:	00001025 	move	v0,zero
  101ee0:	0c067e00 	jal	19f800 <free>
  101ee4:	00000000 	nop
  101ee8:	1000fc0b 	b	100f18 <read_metadata_+0x50>
  101eec:	00001025 	move	v0,zero
  101ef0:	27e40001 	addiu	a0,ra,1
  101ef4:	0c067dfc 	jal	19f7f0 <malloc>
  101ef8:	00000000 	nop
  101efc:	10400067 	beqz	v0,10209c <read_metadata_+0x11d4>
  101f00:	afa20014 	sw	v0,20(sp)
  101f04:	8e040004 	lw	a0,4(s0)
  101f08:	02403025 	move	a2,s2
  101f0c:	00402825 	move	a1,v0
  101f10:	0c043577 	jal	10d5dc <FLAC__bitreader_read_byte_block_aligned_no_crc>
  101f14:	8c84002c 	lw	a0,44(a0)
  101f18:	5040ff5c 	beqzl	v0,101c8c <read_metadata_+0xdc4>
  101f1c:	8e030004 	lw	v1,4(s0)
  101f20:	8faa0014 	lw	t2,20(sp)
  101f24:	8fab0010 	lw	t3,16(sp)
  101f28:	27a50018 	addiu	a1,sp,24
  101f2c:	014b6021 	addu	t4,t2,t3
  101f30:	a1800000 	sb	zero,0(t4)
  101f34:	8e0d0004 	lw	t5,4(s0)
  101f38:	0c043359 	jal	10cd64 <FLAC__bitreader_read_uint32_little_endian>
  101f3c:	8da4002c 	lw	a0,44(t5)
  101f40:	1040ff51 	beqz	v0,101c88 <read_metadata_+0xdc0>
  101f44:	8fa40018 	lw	a0,24(sp)
  101f48:	3c050001 	lui	a1,0x1
  101f4c:	34ae86a1 	ori	t6,a1,0x86a1
  101f50:	008e782b 	sltu	t7,a0,t6
  101f54:	51e0ff4c 	beqzl	t7,101c88 <read_metadata_+0xdc0>
  101f58:	afa00018 	sw	zero,24(sp)
  101f5c:	14800089 	bnez	a0,102184 <read_metadata_+0x12bc>
  101f60:	02328823 	subu	s1,s1,s2
  101f64:	5220fea8 	beqzl	s1,101a08 <read_metadata_+0xb40>
  101f68:	8e110004 	lw	s1,4(s0)
  101f6c:	0c067e00 	jal	19f800 <free>
  101f70:	8fa4001c 	lw	a0,28(sp)
  101f74:	8e060004 	lw	a2,4(s0)
  101f78:	afa0001c 	sw	zero,28(sp)
  101f7c:	1000ff40 	b	101c80 <read_metadata_+0xdb8>
  101f80:	8cc4002c 	lw	a0,44(a2)
  101f84:	00e05825 	move	t3,a3
  101f88:	00006025 	move	t4,zero
  101f8c:	0000a825 	move	s5,zero
  101f90:	ad6c20b8 	sw	t4,8376(t3)
  101f94:	1000fccd 	b	1012cc <read_metadata_+0x404>
  101f98:	ad7520bc 	sw	s5,8380(t3)
  101f9c:	8ef61284 	lw	s6,4740(s7)
  101fa0:	24080001 	li	t0,1
  101fa4:	16c0fc00 	bnez	s6,100fa8 <read_metadata_+0xe0>
  101fa8:	aee800f4 	sw	t0,244(s7)
  101fac:	8ef80264 	lw	t8,612(s7)
  101fb0:	1300fbfe 	beqz	t8,100fac <read_metadata_+0xe4>
  101fb4:	8fb900c0 	lw	t9,192(sp)
  101fb8:	8ee3001c 	lw	v1,28(s7)
  101fbc:	1060fbfb 	beqz	v1,100fac <read_metadata_+0xe4>
--
  101ffc:	8fb800c4 	lw	t8,196(sp)
  102000:	1440fcd7 	bnez	v0,101360 <read_metadata_+0x498>
  102004:	af0201bc 	sw	v0,444(t8)
  102008:	8e100000 	lw	s0,0(s0)
  10200c:	24170008 	li	s7,8
  102010:	1000fbc0 	b	100f14 <read_metadata_+0x4c>
  102014:	ae170000 	sw	s7,0(s0)
  102018:	0c043134 	jal	10c4d0 <FLAC__bitreader_limit_invalidate>
  10201c:	8ca4002c 	lw	a0,44(a1)
  102020:	1000fbbd 	b	100f18 <read_metadata_+0x50>
  102024:	00001025 	move	v0,zero
  102028:	0276a82b 	sltu	s5,s3,s6
  10202c:	16a0ff76 	bnez	s5,101e08 <read_metadata_+0xf40>
  102030:	00137140 	sll	t6,s3,0x5
  102034:	1000ff67 	b	101dd4 <read_metadata_+0xf0c>
  102038:	00000000 	nop
  10203c:	16c00008 	bnez	s6,102060 <read_metadata_+0x1198>
  102040:	02c02025 	move	a0,s6
  102044:	1000fe6f 	b	101a04 <read_metadata_+0xb3c>
  102048:	afa00010 	sw	zero,16(sp)
  10204c:	0c067e00 	jal	19f800 <free>
  102050:	afb500c0 	sw	s5,192(sp)
  102054:	8fa800c0 	lw	t0,192(sp)
  102058:	1000ffeb 	b	102008 <read_metadata_+0x1140>
  10205c:	ad0001bc 	sw	zero,444(t0)
  102060:	0c067dfc 	jal	19f7f0 <malloc>
  102064:	afb600c4 	sw	s6,196(sp)
  102068:	1040000c 	beqz	v0,10209c <read_metadata_+0x11d4>
  10206c:	afa20010 	sw	v0,16(sp)
  102070:	8e040004 	lw	a0,4(s0)
  102074:	8fa600c4 	lw	a2,196(sp)
  102078:	00402825 	move	a1,v0
  10207c:	0c043577 	jal	10d5dc <FLAC__bitreader_read_byte_block_aligned_no_crc>
  102080:	8c84002c 	lw	a0,44(a0)
  102084:	1000fdc4 	b	101798 <read_metadata_+0x8d0>
  102088:	0002b82b 	sltu	s7,zero,v0
  10208c:	0c067dfc 	jal	19f7f0 <malloc>
  102090:	afb600c4 	sw	s6,196(sp)
  102094:	1440fff6 	bnez	v0,102070 <read_metadata_+0x11a8>
  102098:	afa20014 	sw	v0,20(sp)
  10209c:	8e080000 	lw	t0,0(s0)
  1020a0:	24180008 	li	t8,8
  1020a4:	1000fef8 	b	101c88 <read_metadata_+0xdc0>
  1020a8:	ad180000 	sw	t8,0(t0)
  1020ac:	1300fb9a 	beqz	t8,100f18 <read_metadata_+0x50>
  1020b0:	00001025 	move	v0,zero
  1020b4:	0c067e00 	jal	19f800 <free>
  1020b8:	03002025 	move	a0,t8
  1020bc:	1000fb96 	b	100f18 <read_metadata_+0x50>
  1020c0:	00001025 	move	v0,zero
  1020c4:	1300fbb9 	beqz	t8,100fac <read_metadata_+0xe4>
  1020c8:	8fb900c0 	lw	t9,192(sp)
  1020cc:	0c067e00 	jal	19f800 <free>
  1020d0:	03002025 	move	a0,t8
  1020d4:	1000fbb5 	b	100fac <read_metadata_+0xe4>
  1020d8:	8fb900c0 	lw	t9,192(sp)
  1020dc:	1000ffef 	b	10209c <read_metadata_+0x11d4>
  1020e0:	afa00018 	sw	zero,24(sp)
  1020e4:	1000fdac 	b	101798 <read_metadata_+0x8d0>
  1020e8:	0000b825 	move	s7,zero
  1020ec:	30a400ff 	andi	a0,a1,0xff
  1020f0:	10800064 	beqz	a0,102284 <read_metadata_+0x13bc>
  1020f4:	00000000 	nop
  1020f8:	0c0679c3 	jal	19e70c <calloc>
  1020fc:	24050010 	li	a1,16
  102100:	1040ffe6 	beqz	v0,10209c <read_metadata_+0x11d4>
  102104:	afc20018 	sw	v0,24(s8)
  102108:	10000018 	b	10216c <read_metadata_+0x12a4>
  10210c:	00007025 	move	t6,zero
  102110:	8fc80018 	lw	t0,24(s8)
  102114:	000e1900 	sll	v1,t6,0x4
  102118:	8ea4002c 	lw	a0,44(s5)
  10211c:	8f868260 	lw	a2,-32160(gp)
--
  102244:	8d7f0000 	lw	ra,0(t3)
  102248:	258d0001 	addiu	t5,t4,1
  10224c:	009f2821 	addu	a1,a0,ra
  102250:	a0a00000 	sb	zero,0(a1)
  102254:	8fb40018 	lw	s4,24(sp)
  102258:	01b4982b 	sltu	s3,t5,s4
  10225c:	1260fe81 	beqz	s3,101c64 <read_metadata_+0xd9c>
  102260:	8fb8001c 	lw	t8,28(sp)
  102264:	000da8c0 	sll	s5,t5,0x3
  102268:	2e280004 	sltiu	t0,s1,4
  10226c:	03152821 	addu	a1,t8,s5
  102270:	aca00000 	sw	zero,0(a1)
  102274:	1100ffca 	beqz	t0,1021a0 <read_metadata_+0x12d8>
  102278:	aca00004 	sw	zero,4(a1)
  10227c:	1000fe79 	b	101c64 <read_metadata_+0xd9c>
  102280:	afad0018 	sw	t5,24(sp)
  102284:	0c067dfc 	jal	19f7f0 <malloc>
  102288:	24040001 	li	a0,1
  10228c:	1000ff9c 	b	102100 <read_metadata_+0x1238>
  102290:	00000000 	nop
  102294:	0c067e00 	jal	19f800 <free>
  102298:	00000000 	nop
  10229c:	8fae001c 	lw	t6,28(sp)
  1022a0:	8fad00c4 	lw	t5,196(sp)
  1022a4:	01d57821 	addu	t7,t6,s5
  1022a8:	ade00004 	sw	zero,4(t7)
  1022ac:	1000fe6d 	b	101c64 <read_metadata_+0xd9c>
  1022b0:	afad0018 	sw	t5,24(sp)
  1022b4:	8e140000 	lw	s4,0(s0)
  1022b8:	24130008 	li	s3,8
  1022bc:	ae930000 	sw	s3,0(s4)
  1022c0:	1000fe71 	b	101c88 <read_metadata_+0xdc0>
  1022c4:	afa70018 	sw	a3,24(sp)
  1022c8:	8e150004 	lw	s5,4(s0)
  1022cc:	afa70018 	sw	a3,24(sp)
  1022d0:	0c043134 	jal	10c4d0 <FLAC__bitreader_limit_invalidate>
  1022d4:	8ea4002c 	lw	a0,44(s5)
  1022d8:	1000fe6c 	b	101c8c <read_metadata_+0xdc4>
  1022dc:	8e030004 	lw	v1,4(s0)
  1022e0:	24080008 	li	t0,8
  1022e4:	afa00018 	sw	zero,24(sp)
--
  10243c:	ae000024 	sw	zero,36(s0)
  102440:	24050001 	li	a1,1
  102444:	ae050258 	sw	a1,600(s0)
  102448:	ae00045c 	sw	zero,1116(s0)
  10244c:	ae80001c 	sw	zero,28(s4)
  102450:	0c0426d7 	jal	109b5c <FLAC__ogg_decoder_aspect_set_defaults>
  102454:	26840020 	addiu	a0,s4,32
  102458:	24060009 	li	a2,9
  10245c:	ae860000 	sw	a2,0(s4)
  102460:	8fbf0014 	lw	ra,20(sp)
  102464:	8fb40010 	lw	s4,16(sp)
  102468:	8fb20008 	lw	s2,8(sp)
  10246c:	8fb10004 	lw	s1,4(sp)
  102470:	8fb00000 	lw	s0,0(sp)
  102474:	02601025 	move	v0,s3
  102478:	8fb3000c 	lw	s3,12(sp)
  10247c:	03e00008 	jr	ra
  102480:	27bd0018 	addiu	sp,sp,24
  102484:	0c042faf 	jal	10bebc <FLAC__bitreader_delete>
  102488:	02202025 	move	a0,s1
  10248c:	0c067e00 	jal	19f800 <free>
  102490:	02002025 	move	a0,s0
  102494:	0c067e00 	jal	19f800 <free>
  102498:	02802025 	move	a0,s4
  10249c:	0c067e00 	jal	19f800 <free>
  1024a0:	02602025 	move	a0,s3
  1024a4:	1000ffee 	b	102460 <FLAC__stream_decoder_new+0x14c>
  1024a8:	00009825 	move	s3,zero
  1024ac:	0c067e00 	jal	19f800 <free>
  1024b0:	02602025 	move	a0,s3
  1024b4:	1000ffea 	b	102460 <FLAC__stream_decoder_new+0x14c>
  1024b8:	00009825 	move	s3,zero

001024bc <FLAC__stream_decoder_delete>:
  1024bc:	10800029 	beqz	a0,102564 <FLAC__stream_decoder_delete+0xa8>
  1024c0:	00000000 	nop
  1024c4:	8c830000 	lw	v1,0(a0)
  1024c8:	27bdfff0 	addiu	sp,sp,-16
  1024cc:	24020009 	li	v0,9
  1024d0:	8c650000 	lw	a1,0(v1)
  1024d4:	afb10004 	sw	s1,4(sp)
  1024d8:	afbf000c 	sw	ra,12(sp)
  1024dc:	afb20008 	sw	s2,8(sp)
  1024e0:	afb00000 	sw	s0,0(sp)
  1024e4:	10a20003 	beq	a1,v0,1024f4 <FLAC__stream_decoder_delete+0x38>
  1024e8:	00808825 	move	s1,a0
  1024ec:	0c03f879 	jal	fe1e4 <FLAC__stream_decoder_finish.part.0>
  1024f0:	00000000 	nop
  1024f4:	8e260004 	lw	a2,4(s1)
  1024f8:	8cc40458 	lw	a0,1112(a2)
  1024fc:	50800005 	beqzl	a0,102514 <FLAC__stream_decoder_delete+0x58>
  102500:	8cc4002c 	lw	a0,44(a2)
  102504:	0c067e00 	jal	19f800 <free>
  102508:	00000000 	nop
  10250c:	8e260004 	lw	a2,4(s1)
  102510:	8cc4002c 	lw	a0,44(a2)
  102514:	24100078 	li	s0,120
  102518:	0c042faf 	jal	10bebc <FLAC__bitreader_delete>
  10251c:	241200d8 	li	s2,216
  102520:	8e240004 	lw	a0,4(s1)
  102524:	00902021 	addu	a0,a0,s0
  102528:	0c046eb9 	jal	11bae4 <FLAC__format_entropy_coding_method_partitioned_rice_contents_clear>
  10252c:	2610000c 	addiu	s0,s0,12
  102530:	5612fffc 	bnel	s0,s2,102524 <FLAC__stream_decoder_delete+0x68>
  102534:	8e240004 	lw	a0,4(s1)
  102538:	0c067e00 	jal	19f800 <free>
  10253c:	8e240004 	lw	a0,4(s1)
  102540:	0c067e00 	jal	19f800 <free>
  102544:	8e240000 	lw	a0,0(s1)
  102548:	8fbf000c 	lw	ra,12(sp)
  10254c:	8fb20008 	lw	s2,8(sp)
  102550:	8fb00000 	lw	s0,0(sp)
  102554:	02202025 	move	a0,s1
  102558:	8fb10004 	lw	s1,4(sp)
  10255c:	08067e00 	j	19f800 <free>
  102560:	27bd0010 	addiu	sp,sp,16
  102564:	03e00008 	jr	ra
  102568:	00000000 	nop

0010256c <FLAC__stream_decoder_finish>:
  10256c:	8c830000 	lw	v1,0(a0)
  102570:	24020009 	li	v0,9
  102574:	8c650000 	lw	a1,0(v1)
  102578:	10a20003 	beq	a1,v0,102588 <FLAC__stream_decoder_finish+0x1c>
  10257c:	00000000 	nop
  102580:	0803f879 	j	fe1e4 <FLAC__stream_decoder_finish.part.0>
  102584:	00000000 	nop
  102588:	03e00008 	jr	ra
--
  102730:	00095040 	sll	t2,t1,0x1
  102734:	1000ffd9 	b	10269c <FLAC__stream_decoder_set_metadata_respond_application+0x30>
  102738:	ad0a0460 	sw	t2,1120(t0)
  10273c:	03e00008 	jr	ra
  102740:	24020001 	li	v0,1
  102744:	afa50008 	sw	a1,8(sp)
  102748:	00002825 	move	a1,zero
  10274c:	afa60004 	sw	a2,4(sp)
  102750:	0c068119 	jal	1a0464 <realloc>
  102754:	afa80000 	sw	t0,0(sp)
  102758:	8fa50000 	lw	a1,0(sp)
  10275c:	8fb90004 	lw	t9,4(sp)
  102760:	8fa70008 	lw	a3,8(sp)
  102764:	1440ffef 	bnez	v0,102724 <FLAC__stream_decoder_set_metadata_respond_application+0xb8>
  102768:	aca20458 	sw	v0,1112(a1)
  10276c:	8e1f0000 	lw	ra,0(s0)
  102770:	24100008 	li	s0,8
  102774:	1000ffd6 	b	1026d0 <FLAC__stream_decoder_set_metadata_respond_application+0x64>
  102778:	aff00000 	sw	s0,0(ra)
  10277c:	afa60004 	sw	a2,4(sp)
  102780:	0c067e00 	jal	19f800 <free>
  102784:	afa80000 	sw	t0,0(sp)
  102788:	8fa30000 	lw	v1,0(sp)
  10278c:	8fb90004 	lw	t9,4(sp)
  102790:	1000fff6 	b	10276c <FLAC__stream_decoder_set_metadata_respond_application+0x100>
  102794:	ac600458 	sw	zero,1112(v1)

00102798 <FLAC__stream_decoder_set_metadata_respond_all>:
  102798:	8c850004 	lw	a1,4(a0)
  10279c:	24030001 	li	v1,1
  1027a0:	24a20258 	addiu	v0,a1,600
  1027a4:	24a40458 	addiu	a0,a1,1112
  1027a8:	ac430000 	sw	v1,0(v0)
  1027ac:	ac430004 	sw	v1,4(v0)
  1027b0:	ac430008 	sw	v1,8(v0)
  1027b4:	ac43000c 	sw	v1,12(v0)
  1027b8:	ac430010 	sw	v1,16(v0)
  1027bc:	ac430014 	sw	v1,20(v0)
  1027c0:	ac430018 	sw	v1,24(v0)
  1027c4:	ac43001c 	sw	v1,28(v0)
  1027c8:	24420020 	addiu	v0,v0,32
--
  1028cc:	8ce80460 	lw	t0,1120(a3)
  1028d0:	8ce9045c 	lw	t1,1116(a3)
  1028d4:	00085040 	sll	t2,t0,0x1
  1028d8:	1000ffdc 	b	10284c <FLAC__stream_decoder_set_metadata_ignore_application+0x30>
  1028dc:	acea0460 	sw	t2,1120(a3)
  1028e0:	03e00008 	jr	ra
  1028e4:	24020001 	li	v0,1
  1028e8:	afa50004 	sw	a1,4(sp)
  1028ec:	00002825 	move	a1,zero
  1028f0:	0c068119 	jal	1a0464 <realloc>
  1028f4:	afa70000 	sw	a3,0(sp)
  1028f8:	8fa50000 	lw	a1,0(sp)
  1028fc:	8fa60004 	lw	a2,4(sp)
  102900:	1440fff1 	bnez	v0,1028c8 <FLAC__stream_decoder_set_metadata_ignore_application+0xac>
  102904:	aca20458 	sw	v0,1112(a1)
  102908:	8e190000 	lw	t9,0(s0)
  10290c:	241f0008 	li	ra,8
  102910:	00001025 	move	v0,zero
  102914:	1000ffda 	b	102880 <FLAC__stream_decoder_set_metadata_ignore_application+0x64>
  102918:	af3f0000 	sw	ra,0(t9)
  10291c:	0c067e00 	jal	19f800 <free>
  102920:	afa70000 	sw	a3,0(sp)
  102924:	8fa30000 	lw	v1,0(sp)
  102928:	1000fff7 	b	102908 <FLAC__stream_decoder_set_metadata_ignore_application+0xec>
  10292c:	ac600458 	sw	zero,1112(v1)

00102930 <FLAC__stream_decoder_set_metadata_ignore_all>:
  102930:	27bdfff8 	addiu	sp,sp,-8
  102934:	afb00000 	sw	s0,0(sp)
  102938:	00808025 	move	s0,a0
  10293c:	8c840004 	lw	a0,4(a0)
  102940:	24060200 	li	a2,512
  102944:	00002825 	move	a1,zero
  102948:	afbf0004 	sw	ra,4(sp)
  10294c:	0c067a05 	jal	19e814 <memset>
  102950:	24840258 	addiu	a0,a0,600
  102954:	8e030004 	lw	v1,4(s0)
  102958:	8fbf0004 	lw	ra,4(sp)
  10295c:	8fb00000 	lw	s0,0(sp)
  102960:	24020001 	li	v0,1
  102964:	ac60045c 	sw	zero,1116(v1)
--
  102c44:	8e1f0000 	lw	ra,0(s0)
  102c48:	8f9883c0 	lw	t8,-31808(gp)
  102c4c:	8cef0028 	lw	t7,40(a3)
  102c50:	8f190004 	lw	t9,4(t8)
  102c54:	11f90031 	beq	t7,t9,102d1c <FLAC__stream_decoder_reset+0x16c>
  102c58:	8fbf0004 	lw	ra,4(sp)
  102c5c:	8ce50008 	lw	a1,8(a3)
  102c60:	10a00009 	beqz	a1,102c88 <FLAC__stream_decoder_reset+0xd8>
  102c64:	00003025 	move	a2,zero
  102c68:	8ce80024 	lw	t0,36(a3)
  102c6c:	00003825 	move	a3,zero
  102c70:	00a0f809 	jalr	a1
  102c74:	02002025 	move	a0,s0
  102c78:	24060001 	li	a2,1
  102c7c:	10460027 	beq	v0,a2,102d1c <FLAC__stream_decoder_reset+0x16c>
  102c80:	8fbf0004 	lw	ra,4(sp)
  102c84:	8e070004 	lw	a3,4(s0)
  102c88:	8e1f0000 	lw	ra,0(s0)
  102c8c:	afe00000 	sw	zero,0(ra)
  102c90:	8ce401bc 	lw	a0,444(a3)
  102c94:	0c067e00 	jal	19f800 <free>
  102c98:	ace000f0 	sw	zero,240(a3)
  102c9c:	8e030004 	lw	v1,4(s0)
  102ca0:	ac6001bc 	sw	zero,444(v1)
  102ca4:	8e080004 	lw	t0,4(s0)
  102ca8:	8e040000 	lw	a0,0(s0)
  102cac:	ad0000f4 	sw	zero,244(t0)
  102cb0:	8c89001c 	lw	t1,28(a0)
  102cb4:	8d0a1280 	lw	t2,4736(t0)
  102cb8:	ad0000e4 	sw	zero,228(t0)
  102cbc:	ad09127c 	sw	t1,4732(t0)
  102cc0:	1140002b 	beqz	t2,102d70 <FLAC__stream_decoder_reset+0x1c0>
  102cc4:	ad0000e0 	sw	zero,224(t0)
  102cc8:	ad001280 	sw	zero,4736(t0)
  102ccc:	0c04c2f1 	jal	130bc4 <FLAC__MD5Init>
  102cd0:	2504128c 	addiu	a0,t0,4748
  102cd4:	8e100004 	lw	s0,4(s0)
  102cd8:	8fbf0004 	lw	ra,4(sp)
  102cdc:	00005825 	move	t3,zero
  102ce0:	00006025 	move	t4,zero
  102ce4:	ae0b20b8 	sw	t3,8376(s0)
--
  103b84:	24020001 	li	v0,1
  103b88:	03e00008 	jr	ra
  103b8c:	00000000 	nop
  103b90:	27bdfff0 	addiu	sp,sp,-16
  103b94:	afb00008 	sw	s0,8(sp)
  103b98:	00808025 	move	s0,a0
  103b9c:	8c840004 	lw	a0,4(a0)
  103ba0:	afa20000 	sw	v0,0(sp)
  103ba4:	afbf000c 	sw	ra,12(sp)
  103ba8:	2485128c 	addiu	a1,a0,4748
  103bac:	0c04c302 	jal	130c08 <FLAC__MD5Final>
  103bb0:	248412ec 	addiu	a0,a0,4844
  103bb4:	8e080004 	lw	t0,4(s0)
  103bb8:	8d07127c 	lw	a3,4732(t0)
  103bbc:	14e00028 	bnez	a3,103c60 <FLAC__stream_decoder_finish_link+0xec>
  103bc0:	8fa20000 	lw	v0,0(sp)
  103bc4:	8e090000 	lw	t1,0(s0)
  103bc8:	afa20000 	sw	v0,0(sp)
  103bcc:	ad200000 	sw	zero,0(t1)
  103bd0:	8d0401bc 	lw	a0,444(t0)
  103bd4:	0c067e00 	jal	19f800 <free>
  103bd8:	ad0000f0 	sw	zero,240(t0)
  103bdc:	8e0a0004 	lw	t2,4(s0)
  103be0:	8faf0000 	lw	t7,0(sp)
  103be4:	ad4001bc 	sw	zero,444(t2)
  103be8:	8e0b0004 	lw	t3,4(s0)
  103bec:	8e0c0000 	lw	t4,0(s0)
  103bf0:	ad6000f4 	sw	zero,244(t3)
  103bf4:	8d8d001c 	lw	t5,28(t4)
  103bf8:	8d6e1280 	lw	t6,4736(t3)
  103bfc:	ad6000e4 	sw	zero,228(t3)
  103c00:	ad6d127c 	sw	t5,4732(t3)
  103c04:	11c00027 	beqz	t6,103ca4 <FLAC__stream_decoder_finish_link+0x130>
  103c08:	ad6000e0 	sw	zero,224(t3)
  103c0c:	ad601280 	sw	zero,4736(t3)
  103c10:	2564128c 	addiu	a0,t3,4748
  103c14:	0c04c2f1 	jal	130bc4 <FLAC__MD5Init>
  103c18:	afaf0000 	sw	t7,0(sp)
  103c1c:	8e180004 	lw	t8,4(s0)
  103c20:	00002825 	move	a1,zero
  103c24:	00001825 	move	v1,zero
--
  103cd0:	afbf0014 	sw	ra,20(sp)
  103cd4:	00808025 	move	s0,a0
  103cd8:	26318694 	addiu	s1,s1,-31084
  103cdc:	8ca20000 	lw	v0,0(a1)
  103ce0:	2c43000b 	sltiu	v1,v0,11
  103ce4:	50600043 	beqzl	v1,103df4 <FLAC__stream_decoder_process_until_end_of_stream+0x138>
  103ce8:	00001025 	move	v0,zero
  103cec:	00022080 	sll	a0,v0,0x2
  103cf0:	02242821 	addu	a1,s1,a0
  103cf4:	8ca60000 	lw	a2,0(a1)
  103cf8:	00c00008 	jr	a2
  103cfc:	00000000 	nop
  103d00:	8e070004 	lw	a3,4(s0)
  103d04:	24e412ec 	addiu	a0,a3,4844
  103d08:	0c04c302 	jal	130c08 <FLAC__MD5Final>
  103d0c:	24e5128c 	addiu	a1,a3,4748
  103d10:	8e080000 	lw	t0,0(s0)
  103d14:	8e090004 	lw	t1,4(s0)
  103d18:	ad000000 	sw	zero,0(t0)
  103d1c:	8d2401bc 	lw	a0,444(t1)
  103d20:	0c067e00 	jal	19f800 <free>
  103d24:	ad2000f0 	sw	zero,240(t1)
  103d28:	8e0a0004 	lw	t2,4(s0)
  103d2c:	ad4001bc 	sw	zero,444(t2)
  103d30:	8e0b0004 	lw	t3,4(s0)
  103d34:	8e0c0000 	lw	t4,0(s0)
  103d38:	ad6000f4 	sw	zero,244(t3)
  103d3c:	8d8d001c 	lw	t5,28(t4)
  103d40:	8d6e1280 	lw	t6,4736(t3)
  103d44:	ad6000e4 	sw	zero,228(t3)
  103d48:	ad6d127c 	sw	t5,4732(t3)
  103d4c:	11c00040 	beqz	t6,103e50 <FLAC__stream_decoder_process_until_end_of_stream+0x194>
  103d50:	ad6000e0 	sw	zero,224(t3)
  103d54:	ad601280 	sw	zero,4736(t3)
  103d58:	0c04c2f1 	jal	130bc4 <FLAC__MD5Init>
  103d5c:	2564128c 	addiu	a0,t3,4748
  103d60:	8e0f0004 	lw	t7,4(s0)
  103d64:	0000c825 	move	t9,zero
  103d68:	00001025 	move	v0,zero
  103d6c:	8df80000 	lw	t8,0(t7)
  103d70:	adf920b8 	sw	t9,8376(t7)
--
  103f98:	240d0009 	li	t5,9
  103f9c:	504d0036 	beql	v0,t5,104078 <FLAC__stream_decoder_skip_single_link+0x178>
  103fa0:	8d2d0004 	lw	t5,4(t1)
  103fa4:	50400007 	beqzl	v0,103fc4 <FLAC__stream_decoder_skip_single_link+0xc4>
  103fa8:	8d2e0004 	lw	t6,4(t1)
  103fac:	8d3f0000 	lw	ra,0(t1)
  103fb0:	24090005 	li	t1,5
  103fb4:	1000ffe7 	b	103f54 <FLAC__stream_decoder_skip_single_link+0x54>
  103fb8:	afe90000 	sw	t1,0(ra)
  103fbc:	03e00008 	jr	ra
  103fc0:	00001025 	move	v0,zero
  103fc4:	afa90000 	sw	t1,0(sp)
  103fc8:	25c5128c 	addiu	a1,t6,4748
  103fcc:	0c04c302 	jal	130c08 <FLAC__MD5Final>
  103fd0:	25c412ec 	addiu	a0,t6,4844
  103fd4:	8faf0000 	lw	t7,0(sp)
  103fd8:	8df80000 	lw	t8,0(t7)
  103fdc:	8df90004 	lw	t9,4(t7)
  103fe0:	af000000 	sw	zero,0(t8)
  103fe4:	8f2401bc 	lw	a0,444(t9)
  103fe8:	0c067e00 	jal	19f800 <free>
  103fec:	af2000f0 	sw	zero,240(t9)
  103ff0:	8fa50000 	lw	a1,0(sp)
  103ff4:	8ca30004 	lw	v1,4(a1)
  103ff8:	ac6001bc 	sw	zero,444(v1)
  103ffc:	8ca60004 	lw	a2,4(a1)
  104000:	8ca20000 	lw	v0,0(a1)
  104004:	acc000f4 	sw	zero,244(a2)
  104008:	8c47001c 	lw	a3,28(v0)
  10400c:	8cc81280 	lw	t0,4736(a2)
  104010:	acc000e4 	sw	zero,228(a2)
  104014:	acc7127c 	sw	a3,4732(a2)
  104018:	11000053 	beqz	t0,104168 <FLAC__stream_decoder_skip_single_link+0x268>
  10401c:	acc000e0 	sw	zero,224(a2)
  104020:	acc01280 	sw	zero,4736(a2)
  104024:	24c4128c 	addiu	a0,a2,4748
  104028:	0c04c2f1 	jal	130bc4 <FLAC__MD5Init>
  10402c:	afa50000 	sw	a1,0(sp)
  104030:	8fa40000 	lw	a0,0(sp)
  104034:	00006025 	move	t4,zero
  104038:	00005025 	move	t2,zero
--
  10407c:	afa90000 	sw	t1,0(sp)
  104080:	0c040eaf 	jal	103abc <FLAC__stream_decoder_process_until_end_of_link>
  104084:	adaa1284 	sw	t2,4740(t5)
  104088:	8fae0000 	lw	t6,0(sp)
  10408c:	2418000a 	li	t8,10
  104090:	8dcf0000 	lw	t7,0(t6)
  104094:	8df90000 	lw	t9,0(t7)
  104098:	13380004 	beq	t9,t8,1040ac <FLAC__stream_decoder_skip_single_link+0x1ac>
  10409c:	8dc30004 	lw	v1,4(t6)
  1040a0:	ac601284 	sw	zero,4740(v1)
  1040a4:	1000ffac 	b	103f58 <FLAC__stream_decoder_skip_single_link+0x58>
  1040a8:	24020001 	li	v0,1
  1040ac:	2465128c 	addiu	a1,v1,4748
  1040b0:	0c04c302 	jal	130c08 <FLAC__MD5Final>
  1040b4:	246412ec 	addiu	a0,v1,4844
  1040b8:	8fa50000 	lw	a1,0(sp)
  1040bc:	8ca30000 	lw	v1,0(a1)
  1040c0:	8ca60004 	lw	a2,4(a1)
  1040c4:	ac600000 	sw	zero,0(v1)
  1040c8:	8cc401bc 	lw	a0,444(a2)
  1040cc:	0c067e00 	jal	19f800 <free>
  1040d0:	acc000f0 	sw	zero,240(a2)
  1040d4:	8fa70000 	lw	a3,0(sp)
  1040d8:	8ce20004 	lw	v0,4(a3)
  1040dc:	ac4001bc 	sw	zero,444(v0)
  1040e0:	8ce80004 	lw	t0,4(a3)
  1040e4:	8ce40000 	lw	a0,0(a3)
  1040e8:	ad0000f4 	sw	zero,244(t0)
  1040ec:	8c8b001c 	lw	t3,28(a0)
  1040f0:	8d0c1280 	lw	t4,4736(t0)
  1040f4:	ad0000e4 	sw	zero,228(t0)
  1040f8:	ad0b127c 	sw	t3,4732(t0)
  1040fc:	11800020 	beqz	t4,104180 <FLAC__stream_decoder_skip_single_link+0x280>
  104100:	ad0000e0 	sw	zero,224(t0)
  104104:	ad001280 	sw	zero,4736(t0)
  104108:	2504128c 	addiu	a0,t0,4748
  10410c:	0c04c2f1 	jal	130bc4 <FLAC__MD5Init>
  104110:	afa70000 	sw	a3,0(sp)
  104114:	8faa0000 	lw	t2,0(sp)
  104118:	00006825 	move	t5,zero
  10411c:	00007025 	move	t6,zero
--
  109ac4:	afb20008 	sw	s2,8(sp)
  109ac8:	00809025 	move	s2,a0
  109acc:	24840170 	addiu	a0,a0,368
  109ad0:	afbf000c 	sw	ra,12(sp)
  109ad4:	afb10004 	sw	s1,4(sp)
  109ad8:	0c0547d5 	jal	151f54 <ogg_sync_clear>
  109adc:	afb00000 	sw	s0,0(sp)
  109ae0:	0c054580 	jal	151600 <ogg_stream_clear>
  109ae4:	26440008 	addiu	a0,s2,8
  109ae8:	8e4401e8 	lw	a0,488(s2)
  109aec:	10800012 	beqz	a0,109b38 <FLAC__ogg_decoder_aspect_finish+0x78>
  109af0:	8fbf000c 	lw	ra,12(sp)
  109af4:	8e420220 	lw	v0,544(s2)
  109af8:	1040000c 	beqz	v0,109b2c <FLAC__ogg_decoder_aspect_finish+0x6c>
  109afc:	00000000 	nop
  109b00:	00008825 	move	s1,zero
  109b04:	00008025 	move	s0,zero
  109b08:	00912021 	addu	a0,a0,s1
  109b0c:	8c84001c 	lw	a0,28(a0)
  109b10:	26100001 	addiu	s0,s0,1
  109b14:	0c067e00 	jal	19f800 <free>
  109b18:	26310028 	addiu	s1,s1,40
  109b1c:	8e430220 	lw	v1,544(s2)
  109b20:	0203282b 	sltu	a1,s0,v1
  109b24:	14a0fff8 	bnez	a1,109b08 <FLAC__ogg_decoder_aspect_finish+0x48>
  109b28:	8e4401e8 	lw	a0,488(s2)
  109b2c:	0c067e00 	jal	19f800 <free>
  109b30:	00000000 	nop
  109b34:	8fbf000c 	lw	ra,12(sp)
  109b38:	8fb10004 	lw	s1,4(sp)
  109b3c:	8fb00000 	lw	s0,0(sp)
  109b40:	ae4001e8 	sw	zero,488(s2)
  109b44:	8fb20008 	lw	s2,8(sp)
  109b48:	03e00008 	jr	ra
  109b4c:	27bd0010 	addiu	sp,sp,16

00109b50 <FLAC__ogg_decoder_aspect_set_serial_number>:
  109b50:	ac800000 	sw	zero,0(a0)
  109b54:	03e00008 	jr	ra
  109b58:	ac850004 	sw	a1,4(a0)

00109b5c <FLAC__ogg_decoder_aspect_set_defaults>:
  109b5c:	24020001 	li	v0,1
  109b60:	ac820000 	sw	v0,0(a0)
  109b64:	03e00008 	jr	ra
  109b68:	ac8001a8 	sw	zero,424(a0)

--
  10be94:	008ff806 	srlv	ra,t7,a0
  10be98:	24190018 	li	t9,24
  10be9c:	00007825 	move	t7,zero
  10bea0:	03242023 	subu	a0,t9,a0
  10bea4:	01e87824 	and	t7,t7,t0
  10bea8:	1000ffdd 	b	10be20 <FLAC__bitreader_read_raw_uint32.constprop.0+0x5e4>
  10beac:	008ff806 	srlv	ra,t7,a0

0010beb0 <FLAC__bitreader_new>:
  10beb0:	24050038 	li	a1,56
  10beb4:	080679c3 	j	19e70c <calloc>
  10beb8:	24040001 	li	a0,1

0010bebc <FLAC__bitreader_delete>:
  10bebc:	00801025 	move	v0,a0
  10bec0:	8c840000 	lw	a0,0(a0)
  10bec4:	10800009 	beqz	a0,10beec <FLAC__bitreader_delete+0x30>
  10bec8:	00000000 	nop
  10becc:	27bdfff0 	addiu	sp,sp,-16
  10bed0:	afbf000c 	sw	ra,12(sp)
  10bed4:	0c067e00 	jal	19f800 <free>
  10bed8:	afa20000 	sw	v0,0(sp)
  10bedc:	8fa40000 	lw	a0,0(sp)
  10bee0:	8fbf000c 	lw	ra,12(sp)
  10bee4:	08067e00 	j	19f800 <free>
  10bee8:	27bd0010 	addiu	sp,sp,16
  10beec:	08067e00 	j	19f800 <free>
  10bef0:	00402025 	move	a0,v0

0010bef4 <FLAC__bitreader_init>:
  10bef4:	27bdfff0 	addiu	sp,sp,-16
  10bef8:	24020800 	li	v0,2048
  10befc:	afb00008 	sw	s0,8(sp)
  10bf00:	afbf000c 	sw	ra,12(sp)
  10bf04:	00808025 	move	s0,a0
  10bf08:	ac80000c 	sw	zero,12(a0)
  10bf0c:	ac800008 	sw	zero,8(a0)
  10bf10:	ac800014 	sw	zero,20(a0)
  10bf14:	ac800010 	sw	zero,16(a0)
  10bf18:	ac820004 	sw	v0,4(a0)
  10bf1c:	24042000 	li	a0,8192
--
  10bf38:	8fa60000 	lw	a2,0(sp)
  10bf3c:	2403ffff 	li	v1,-1
  10bf40:	ae050030 	sw	a1,48(s0)
  10bf44:	ae060034 	sw	a2,52(s0)
  10bf48:	ae000024 	sw	zero,36(s0)
  10bf4c:	ae030028 	sw	v1,40(s0)
  10bf50:	ae03002c 	sw	v1,44(s0)
  10bf54:	24020001 	li	v0,1
  10bf58:	8fbf000c 	lw	ra,12(sp)
  10bf5c:	8fb00008 	lw	s0,8(sp)
  10bf60:	03e00008 	jr	ra
  10bf64:	27bd0010 	addiu	sp,sp,16

0010bf68 <FLAC__bitreader_free>:
  10bf68:	00801025 	move	v0,a0
  10bf6c:	8c840000 	lw	a0,0(a0)
  10bf70:	10800015 	beqz	a0,10bfc8 <FLAC__bitreader_free+0x60>
  10bf74:	2403ffff 	li	v1,-1
  10bf78:	27bdfff0 	addiu	sp,sp,-16
  10bf7c:	afbf000c 	sw	ra,12(sp)
  10bf80:	0c067e00 	jal	19f800 <free>
  10bf84:	afa20000 	sw	v0,0(sp)
  10bf88:	8fa40000 	lw	a0,0(sp)
  10bf8c:	8fbf000c 	lw	ra,12(sp)
  10bf90:	2405ffff 	li	a1,-1
  10bf94:	ac800000 	sw	zero,0(a0)
  10bf98:	ac800004 	sw	zero,4(a0)
  10bf9c:	ac80000c 	sw	zero,12(a0)
  10bfa0:	ac800008 	sw	zero,8(a0)
  10bfa4:	ac800014 	sw	zero,20(a0)
  10bfa8:	ac800010 	sw	zero,16(a0)
  10bfac:	ac800030 	sw	zero,48(a0)
  10bfb0:	ac800034 	sw	zero,52(a0)
  10bfb4:	ac800024 	sw	zero,36(a0)
  10bfb8:	ac850028 	sw	a1,40(a0)
  10bfbc:	ac85002c 	sw	a1,44(a0)
  10bfc0:	03e00008 	jr	ra
  10bfc4:	27bd0010 	addiu	sp,sp,16
  10bfc8:	ac400000 	sw	zero,0(v0)
  10bfcc:	ac400004 	sw	zero,4(v0)
  10bfd0:	ac40000c 	sw	zero,12(v0)
--
  10fbf4:	aca20000 	sw	v0,0(a1)
  10fbf8:	aca30008 	sw	v1,8(a1)
  10fbfc:	24020001 	li	v0,1
  10fc00:	03e00008 	jr	ra
  10fc04:	27bd0010 	addiu	sp,sp,16
  10fc08:	03e00008 	jr	ra
  10fc0c:	24020001 	li	v0,1

0010fc10 <FLAC__bitwriter_new>:
  10fc10:	24050014 	li	a1,20
  10fc14:	080679c3 	j	19e70c <calloc>
  10fc18:	24040001 	li	a0,1

0010fc1c <FLAC__bitwriter_delete>:
  10fc1c:	00801025 	move	v0,a0
  10fc20:	8c840000 	lw	a0,0(a0)
  10fc24:	10800009 	beqz	a0,10fc4c <FLAC__bitwriter_delete+0x30>
  10fc28:	00000000 	nop
  10fc2c:	27bdfff0 	addiu	sp,sp,-16
  10fc30:	afbf000c 	sw	ra,12(sp)
  10fc34:	0c067e00 	jal	19f800 <free>
  10fc38:	afa20000 	sw	v0,0(sp)
  10fc3c:	8fa40000 	lw	a0,0(sp)
  10fc40:	8fbf000c 	lw	ra,12(sp)
  10fc44:	08067e00 	j	19f800 <free>
  10fc48:	27bd0010 	addiu	sp,sp,16
  10fc4c:	08067e00 	j	19f800 <free>
  10fc50:	00402025 	move	a0,v0

0010fc54 <FLAC__bitwriter_init>:
  10fc54:	27bdfff8 	addiu	sp,sp,-8
  10fc58:	24022000 	li	v0,8192
  10fc5c:	afb00000 	sw	s0,0(sp)
  10fc60:	afbf0004 	sw	ra,4(sp)
  10fc64:	00808025 	move	s0,a0
  10fc68:	ac800010 	sw	zero,16(a0)
  10fc6c:	ac80000c 	sw	zero,12(a0)
  10fc70:	ac820008 	sw	v0,8(a0)
  10fc74:	0c067dfc 	jal	19f7f0 <malloc>
  10fc78:	34048000 	li	a0,0x8000
  10fc7c:	8fbf0004 	lw	ra,4(sp)
  10fc80:	ae020000 	sw	v0,0(s0)
  10fc84:	8fb00000 	lw	s0,0(sp)
  10fc88:	0002102b 	sltu	v0,zero,v0
  10fc8c:	03e00008 	jr	ra
  10fc90:	27bd0008 	addiu	sp,sp,8

0010fc94 <FLAC__bitwriter_free>:
  10fc94:	00801025 	move	v0,a0
  10fc98:	8c840000 	lw	a0,0(a0)
  10fc9c:	5080000d 	beqzl	a0,10fcd4 <FLAC__bitwriter_free+0x40>
  10fca0:	ac400000 	sw	zero,0(v0)
  10fca4:	27bdfff0 	addiu	sp,sp,-16
  10fca8:	afbf000c 	sw	ra,12(sp)
  10fcac:	0c067e00 	jal	19f800 <free>
  10fcb0:	afa20000 	sw	v0,0(sp)
  10fcb4:	8fa30000 	lw	v1,0(sp)
  10fcb8:	8fbf000c 	lw	ra,12(sp)
  10fcbc:	ac600000 	sw	zero,0(v1)
  10fcc0:	ac600008 	sw	zero,8(v1)
  10fcc4:	ac600010 	sw	zero,16(v1)
  10fcc8:	ac60000c 	sw	zero,12(v1)
  10fccc:	03e00008 	jr	ra
  10fcd0:	27bd0010 	addiu	sp,sp,16
  10fcd4:	ac400008 	sw	zero,8(v0)
  10fcd8:	ac400010 	sw	zero,16(v0)
  10fcdc:	03e00008 	jr	ra
  10fce0:	ac40000c 	sw	zero,12(v0)

0010fce4 <FLAC__bitwriter_clear>:
  10fce4:	ac800010 	sw	zero,16(a0)
  10fce8:	03e00008 	jr	ra
  10fcec:	ac80000c 	sw	zero,12(a0)

0010fcf0 <FLAC__bitwriter_get_write_crc16>:
--
  11babc:	00801025 	move	v0,a0
  11bac0:	00cc682b 	sltu	t5,a2,t4
  11bac4:	15a0fffc 	bnez	t5,11bab8 <FLAC__format_get_max_rice_partition_order_from_blocksize_limited_max_and_predictor_order+0x174>
  11bac8:	00000000 	nop
  11bacc:	1000ffae 	b	11b988 <FLAC__format_get_max_rice_partition_order_from_blocksize_limited_max_and_predictor_order+0x44>
  11bad0:	2484ffff 	addiu	a0,a0,-1

0011bad4 <FLAC__format_entropy_coding_method_partitioned_rice_contents_init>:
  11bad4:	ac800000 	sw	zero,0(a0)
  11bad8:	ac800004 	sw	zero,4(a0)
  11badc:	03e00008 	jr	ra
  11bae0:	ac800008 	sw	zero,8(a0)

0011bae4 <FLAC__format_entropy_coding_method_partitioned_rice_contents_clear>:
  11bae4:	27bdfff8 	addiu	sp,sp,-8
  11bae8:	afb00000 	sw	s0,0(sp)
  11baec:	00808025 	move	s0,a0
  11baf0:	8c840000 	lw	a0,0(a0)
  11baf4:	10800003 	beqz	a0,11bb04 <FLAC__format_entropy_coding_method_partitioned_rice_contents_clear+0x20>
  11baf8:	afbf0004 	sw	ra,4(sp)
  11bafc:	0c067e00 	jal	19f800 <free>
  11bb00:	00000000 	nop
  11bb04:	8e040004 	lw	a0,4(s0)
  11bb08:	10800004 	beqz	a0,11bb1c <FLAC__format_entropy_coding_method_partitioned_rice_contents_clear+0x38>
  11bb0c:	8fbf0004 	lw	ra,4(sp)
  11bb10:	0c067e00 	jal	19f800 <free>
  11bb14:	00000000 	nop
  11bb18:	8fbf0004 	lw	ra,4(sp)
  11bb1c:	ae000000 	sw	zero,0(s0)
  11bb20:	ae000004 	sw	zero,4(s0)
  11bb24:	ae000008 	sw	zero,8(s0)
  11bb28:	8fb00000 	lw	s0,0(sp)
  11bb2c:	03e00008 	jr	ra
  11bb30:	27bd0008 	addiu	sp,sp,8

0011bb34 <FLAC__format_entropy_coding_method_partitioned_rice_contents_ensure_size>:
  11bb34:	8c820008 	lw	v0,8(a0)
  11bb38:	0045302b 	sltu	a2,v0,a1
  11bb3c:	14c00008 	bnez	a2,11bb60 <FLAC__format_entropy_coding_method_partitioned_rice_contents_ensure_size+0x2c>
  11bb40:	8c830000 	lw	v1,0(a0)
  11bb44:	10600006 	beqz	v1,11bb60 <FLAC__format_entropy_coding_method_partitioned_rice_contents_ensure_size+0x2c>
  11bb48:	00000000 	nop
  11bb4c:	8c870004 	lw	a3,4(a0)
  11bb50:	10e00003 	beqz	a3,11bb60 <FLAC__format_entropy_coding_method_partitioned_rice_contents_ensure_size+0x2c>
  11bb54:	24020001 	li	v0,1
  11bb58:	03e00008 	jr	ra
--
  11bbec:	03e00008 	jr	ra
  11bbf0:	27bd0020 	addiu	sp,sp,32
  11bbf4:	14400009 	bnez	v0,11bc1c <FLAC__format_entropy_coding_method_partitioned_rice_contents_ensure_size+0xe8>
  11bbf8:	ae020000 	sw	v0,0(s0)
  11bbfc:	00001025 	move	v0,zero
  11bc00:	8fbf001c 	lw	ra,28(sp)
  11bc04:	8fb30018 	lw	s3,24(sp)
  11bc08:	8fb20014 	lw	s2,20(sp)
  11bc0c:	8fb10010 	lw	s1,16(sp)
  11bc10:	8fb0000c 	lw	s0,12(sp)
  11bc14:	03e00008 	jr	ra
  11bc18:	27bd0020 	addiu	sp,sp,32
  11bc1c:	8e040004 	lw	a0,4(s0)
  11bc20:	0c068119 	jal	1a0464 <realloc>
  11bc24:	00002825 	move	a1,zero
  11bc28:	00402025 	move	a0,v0
  11bc2c:	1440ffe5 	bnez	v0,11bbc4 <FLAC__format_entropy_coding_method_partitioned_rice_contents_ensure_size+0x90>
  11bc30:	ae020004 	sw	v0,4(s0)
  11bc34:	1000fff2 	b	11bc00 <FLAC__format_entropy_coding_method_partitioned_rice_contents_ensure_size+0xcc>
  11bc38:	00001025 	move	v0,zero
  11bc3c:	0c067e00 	jal	19f800 <free>
  11bc40:	8fa40000 	lw	a0,0(sp)
  11bc44:	ae000000 	sw	zero,0(s0)
  11bc48:	1000ffed 	b	11bc00 <FLAC__format_entropy_coding_method_partitioned_rice_contents_ensure_size+0xcc>
  11bc4c:	00001025 	move	v0,zero
  11bc50:	0c067e00 	jal	19f800 <free>
  11bc54:	02602025 	move	a0,s3
  11bc58:	ae000004 	sw	zero,4(s0)
  11bc5c:	1000ffe8 	b	11bc00 <FLAC__format_entropy_coding_method_partitioned_rice_contents_ensure_size+0xcc>
  11bc60:	00001025 	move	v0,zero

0011bc64 <FLAC__lpc_window_data>:
  11bc64:	10e00079 	beqz	a3,11be4c <FLAC__lpc_window_data+0x1e8>
  11bc68:	00073880 	sll	a3,a3,0x2
  11bc6c:	24e2fffc 	addiu	v0,a3,-4
  11bc70:	00021882 	srl	v1,v0,0x2
  11bc74:	24680001 	addiu	t0,v1,1
  11bc78:	31090007 	andi	t1,t0,0x7
  11bc7c:	11200045 	beqz	t1,11bd94 <FLAC__lpc_window_data+0x130>
  11bc80:	00875021 	addu	t2,a0,a3
  11bc84:	240b0001 	li	t3,1
  11bc88:	112b0038 	beq	t1,t3,11bd6c <FLAC__lpc_window_data+0x108>
  11bc8c:	240c0002 	li	t4,2
  11bc90:	112c002d 	beq	t1,t4,11bd48 <FLAC__lpc_window_data+0xe4>
  11bc94:	240d0003 	li	t5,3
  11bc98:	112d0022 	beq	t1,t5,11bd24 <FLAC__lpc_window_data+0xc0>
--
  130c80:	ae39003c 	sw	t9,60(s1)
  130c84:	8a470003 	lwl	a3,3(s2)
  130c88:	8a450007 	lwl	a1,7(s2)
  130c8c:	8a43000b 	lwl	v1,11(s2)
  130c90:	8a42000f 	lwl	v0,15(s2)
  130c94:	9a270040 	lwr	a3,64(s1)
  130c98:	9a450004 	lwr	a1,4(s2)
  130c9c:	9a42000c 	lwr	v0,12(s2)
  130ca0:	9a430008 	lwr	v1,8(s2)
  130ca4:	aa070003 	swl	a3,3(s0)
  130ca8:	ba070000 	swr	a3,0(s0)
  130cac:	aa050007 	swl	a1,7(s0)
  130cb0:	ba050004 	swr	a1,4(s0)
  130cb4:	aa03000b 	swl	v1,11(s0)
  130cb8:	ba030008 	swr	v1,8(s0)
  130cbc:	aa02000f 	swl	v0,15(s0)
  130cc0:	ba02000c 	swr	v0,12(s0)
  130cc4:	8e240058 	lw	a0,88(s1)
  130cc8:	10800004 	beqz	a0,130cdc <FLAC__MD5Final+0xd4>
  130ccc:	8fbf000c 	lw	ra,12(sp)
  130cd0:	0c067e00 	jal	19f800 <free>
  130cd4:	00000000 	nop
  130cd8:	8fbf000c 	lw	ra,12(sp)
  130cdc:	8fb20008 	lw	s2,8(sp)
  130ce0:	8fb00000 	lw	s0,0(sp)
  130ce4:	02202025 	move	a0,s1
  130ce8:	8fb10004 	lw	s1,4(sp)
  130cec:	24060060 	li	a2,96
  130cf0:	00002825 	move	a1,zero
  130cf4:	08067a05 	j	19e814 <memset>
  130cf8:	27bd0010 	addiu	sp,sp,16
  130cfc:	2409003f 	li	t1,63
  130d00:	01276023 	subu	t4,t1,a3
  130d04:	2d8a0004 	sltiu	t2,t4,4
  130d08:	5140001a 	beqzl	t2,130d74 <FLAC__MD5Final+0x16c>
  130d0c:	258cfffc 	addiu	t4,t4,-4
  130d10:	2d8b0002 	sltiu	t3,t4,2
  130d14:	51600011 	beqzl	t3,130d5c <FLAC__MD5Final+0x154>
  130d18:	258cfffe 	addiu	t4,t4,-2
  130d1c:	15800008 	bnez	t4,130d40 <FLAC__MD5Final+0x138>
  130d20:	26320040 	addiu	s2,s1,64
--
  132bcc:	ad32fff0 	sw	s2,-16(t1)
  132bd0:	8c82fff4 	lw	v0,-12(a0)
  132bd4:	ad22fff4 	sw	v0,-12(t1)
  132bd8:	8c88fff8 	lw	t0,-8(a0)
  132bdc:	ad28fff8 	sw	t0,-8(t1)
  132be0:	8c85fffc 	lw	a1,-4(a0)
  132be4:	152cffee 	bne	t1,t4,132ba0 <FLAC__MD5Accumulate+0x1e08>
  132be8:	ad25fffc 	sw	a1,-4(t1)
  132bec:	1000f956 	b	131148 <FLAC__MD5Accumulate+0x3b0>
  132bf0:	8e090050 	lw	t1,80(s0)
  132bf4:	02203025 	move	a2,s1
  132bf8:	0c067a4c 	jal	19e930 <memcpy>
  132bfc:	02132021 	addu	a0,s0,s3
  132c00:	1000f993 	b	131250 <FLAC__MD5Accumulate+0x4b8>
  132c04:	24020001 	li	v0,1
  132c08:	8fa40000 	lw	a0,0(sp)
  132c0c:	afa70010 	sw	a3,16(sp)
  132c10:	afad000c 	sw	t5,12(sp)
  132c14:	afa80008 	sw	t0,8(sp)
  132c18:	afa60004 	sw	a2,4(sp)
  132c1c:	0c067e00 	jal	19f800 <free>
  132c20:	afa90000 	sw	t1,0(sp)
  132c24:	0c067dfc 	jal	19f7f0 <malloc>
  132c28:	02202025 	move	a0,s1
  132c2c:	00401825 	move	v1,v0
  132c30:	8fa90000 	lw	t1,0(sp)
  132c34:	8fa60004 	lw	a2,4(sp)
  132c38:	8fa80008 	lw	t0,8(sp)
  132c3c:	8fad000c 	lw	t5,12(sp)
  132c40:	8fa70010 	lw	a3,16(sp)
  132c44:	1440f885 	bnez	v0,130e5c <FLAC__MD5Accumulate+0xc4>
  132c48:	ae020058 	sw	v0,88(s0)
  132c4c:	ae00005c 	sw	zero,92(s0)
  132c50:	1000f97f 	b	131250 <FLAC__MD5Accumulate+0x4b8>
  132c54:	00001025 	move	v0,zero
  132c58:	24140004 	li	s4,4
  132c5c:	5514f93a 	bnel	t0,s4,131148 <FLAC__MD5Accumulate+0x3b0>
  132c60:	8e090050 	lw	t1,80(s0)
  132c64:	50e0f938 	beqzl	a3,131148 <FLAC__MD5Accumulate+0x3b0>
  132c68:	8e090050 	lw	t1,80(s0)
  132c6c:	10c0f935 	beqz	a2,131144 <FLAC__MD5Accumulate+0x3ac>
--
  13317c:	0082182b 	sltu	v1,a0,v0
  133180:	14600003 	bnez	v1,133190 <FLAC__memory_alloc_aligned_int32_array+0x18>
  133184:	00001025 	move	v0,zero
  133188:	03e00008 	jr	ra
  13318c:	00000000 	nop
  133190:	27bdffe8 	addiu	sp,sp,-24
  133194:	00042080 	sll	a0,a0,0x2
  133198:	afb0000c 	sw	s0,12(sp)
  13319c:	00a08025 	move	s0,a1
  1331a0:	24050001 	li	a1,1
  1331a4:	00a4200a 	movz	a0,a1,a0
  1331a8:	afb10010 	sw	s1,16(sp)
  1331ac:	afbf0014 	sw	ra,20(sp)
  1331b0:	0c067dfc 	jal	19f7f0 <malloc>
  1331b4:	00c08825 	move	s1,a2
  1331b8:	1040000f 	beqz	v0,1331f8 <FLAC__memory_alloc_aligned_int32_array+0x80>
  1331bc:	00403025 	move	a2,v0
  1331c0:	8e040000 	lw	a0,0(s0)
  1331c4:	10800005 	beqz	a0,1331dc <FLAC__memory_alloc_aligned_int32_array+0x64>
  1331c8:	8fbf0014 	lw	ra,20(sp)
  1331cc:	0c067e00 	jal	19f800 <free>
  1331d0:	afa20000 	sw	v0,0(sp)
  1331d4:	8fa60000 	lw	a2,0(sp)
  1331d8:	8fbf0014 	lw	ra,20(sp)
  1331dc:	ae060000 	sw	a2,0(s0)
  1331e0:	24020001 	li	v0,1
  1331e4:	8fb0000c 	lw	s0,12(sp)
  1331e8:	ae260000 	sw	a2,0(s1)
  1331ec:	8fb10010 	lw	s1,16(sp)
  1331f0:	03e00008 	jr	ra
  1331f4:	27bd0018 	addiu	sp,sp,24
  1331f8:	8fbf0014 	lw	ra,20(sp)
  1331fc:	8fb10010 	lw	s1,16(sp)
  133200:	8fb0000c 	lw	s0,12(sp)
  133204:	00001025 	move	v0,zero
  133208:	03e00008 	jr	ra
  13320c:	27bd0018 	addiu	sp,sp,24

00133210 <FLAC__memory_alloc_aligned_uint32_array>:
  133210:	3c024000 	lui	v0,0x4000
  133214:	0082182b 	sltu	v1,a0,v0
  133218:	14600003 	bnez	v1,133228 <FLAC__memory_alloc_aligned_uint32_array+0x18>
  13321c:	00001025 	move	v0,zero
  133220:	03e00008 	jr	ra
  133224:	00000000 	nop
  133228:	27bdffe8 	addiu	sp,sp,-24
  13322c:	00042080 	sll	a0,a0,0x2
  133230:	afb0000c 	sw	s0,12(sp)
  133234:	00a08025 	move	s0,a1
  133238:	24050001 	li	a1,1
  13323c:	00a4200a 	movz	a0,a1,a0
  133240:	afb10010 	sw	s1,16(sp)
  133244:	afbf0014 	sw	ra,20(sp)
  133248:	0c067dfc 	jal	19f7f0 <malloc>
  13324c:	00c08825 	move	s1,a2
  133250:	1040000f 	beqz	v0,133290 <FLAC__memory_alloc_aligned_uint32_array+0x80>
  133254:	00403025 	move	a2,v0
  133258:	8e040000 	lw	a0,0(s0)
  13325c:	10800005 	beqz	a0,133274 <FLAC__memory_alloc_aligned_uint32_array+0x64>
  133260:	8fbf0014 	lw	ra,20(sp)
  133264:	0c067e00 	jal	19f800 <free>
  133268:	afa20000 	sw	v0,0(sp)
  13326c:	8fa60000 	lw	a2,0(sp)
  133270:	8fbf0014 	lw	ra,20(sp)
  133274:	ae060000 	sw	a2,0(s0)
  133278:	24020001 	li	v0,1
  13327c:	8fb0000c 	lw	s0,12(sp)
  133280:	ae260000 	sw	a2,0(s1)
  133284:	8fb10010 	lw	s1,16(sp)
  133288:	03e00008 	jr	ra
  13328c:	27bd0018 	addiu	sp,sp,24
  133290:	8fbf0014 	lw	ra,20(sp)
  133294:	8fb10010 	lw	s1,16(sp)
  133298:	8fb0000c 	lw	s0,12(sp)
  13329c:	00001025 	move	v0,zero
  1332a0:	03e00008 	jr	ra
  1332a4:	27bd0018 	addiu	sp,sp,24

001332a8 <FLAC__memory_alloc_aligned_int64_array>:
  1332a8:	3c022000 	lui	v0,0x2000
  1332ac:	0082182b 	sltu	v1,a0,v0
  1332b0:	14600003 	bnez	v1,1332c0 <FLAC__memory_alloc_aligned_int64_array+0x18>
  1332b4:	00001025 	move	v0,zero
  1332b8:	03e00008 	jr	ra
  1332bc:	00000000 	nop
  1332c0:	27bdffe8 	addiu	sp,sp,-24
  1332c4:	000420c0 	sll	a0,a0,0x3
  1332c8:	afb0000c 	sw	s0,12(sp)
  1332cc:	00a08025 	move	s0,a1
  1332d0:	24050001 	li	a1,1
  1332d4:	00a4200a 	movz	a0,a1,a0
  1332d8:	afb10010 	sw	s1,16(sp)
  1332dc:	afbf0014 	sw	ra,20(sp)
  1332e0:	0c067dfc 	jal	19f7f0 <malloc>
  1332e4:	00c08825 	move	s1,a2
  1332e8:	1040000f 	beqz	v0,133328 <FLAC__memory_alloc_aligned_int64_array+0x80>
  1332ec:	00403025 	move	a2,v0
  1332f0:	8e040000 	lw	a0,0(s0)
  1332f4:	10800005 	beqz	a0,13330c <FLAC__memory_alloc_aligned_int64_array+0x64>
  1332f8:	8fbf0014 	lw	ra,20(sp)
  1332fc:	0c067e00 	jal	19f800 <free>
  133300:	afa20000 	sw	v0,0(sp)
  133304:	8fa60000 	lw	a2,0(sp)
  133308:	8fbf0014 	lw	ra,20(sp)
  13330c:	ae060000 	sw	a2,0(s0)
  133310:	24020001 	li	v0,1
  133314:	8fb0000c 	lw	s0,12(sp)
  133318:	ae260000 	sw	a2,0(s1)
  13331c:	8fb10010 	lw	s1,16(sp)
  133320:	03e00008 	jr	ra
  133324:	27bd0018 	addiu	sp,sp,24
  133328:	8fbf0014 	lw	ra,20(sp)
  13332c:	8fb10010 	lw	s1,16(sp)
  133330:	8fb0000c 	lw	s0,12(sp)
  133334:	00001025 	move	v0,zero
  133338:	03e00008 	jr	ra
  13333c:	27bd0018 	addiu	sp,sp,24

00133340 <FLAC__memory_alloc_aligned_uint64_array>:
  133340:	3c022000 	lui	v0,0x2000
  133344:	0082182b 	sltu	v1,a0,v0
  133348:	14600003 	bnez	v1,133358 <FLAC__memory_alloc_aligned_uint64_array+0x18>
  13334c:	00001025 	move	v0,zero
  133350:	03e00008 	jr	ra
  133354:	00000000 	nop
  133358:	27bdffe8 	addiu	sp,sp,-24
  13335c:	000420c0 	sll	a0,a0,0x3
  133360:	afb0000c 	sw	s0,12(sp)
  133364:	00a08025 	move	s0,a1
  133368:	24050001 	li	a1,1
  13336c:	00a4200a 	movz	a0,a1,a0
  133370:	afb10010 	sw	s1,16(sp)
  133374:	afbf0014 	sw	ra,20(sp)
  133378:	0c067dfc 	jal	19f7f0 <malloc>
  13337c:	00c08825 	move	s1,a2
  133380:	1040000f 	beqz	v0,1333c0 <FLAC__memory_alloc_aligned_uint64_array+0x80>
  133384:	00403025 	move	a2,v0
  133388:	8e040000 	lw	a0,0(s0)
  13338c:	10800005 	beqz	a0,1333a4 <FLAC__memory_alloc_aligned_uint64_array+0x64>
  133390:	8fbf0014 	lw	ra,20(sp)
  133394:	0c067e00 	jal	19f800 <free>
  133398:	afa20000 	sw	v0,0(sp)
  13339c:	8fa60000 	lw	a2,0(sp)
  1333a0:	8fbf0014 	lw	ra,20(sp)
  1333a4:	ae060000 	sw	a2,0(s0)
  1333a8:	24020001 	li	v0,1
  1333ac:	8fb0000c 	lw	s0,12(sp)
  1333b0:	ae260000 	sw	a2,0(s1)
  1333b4:	8fb10010 	lw	s1,16(sp)
  1333b8:	03e00008 	jr	ra
  1333bc:	27bd0018 	addiu	sp,sp,24
  1333c0:	8fbf0014 	lw	ra,20(sp)
  1333c4:	8fb10010 	lw	s1,16(sp)
  1333c8:	8fb0000c 	lw	s0,12(sp)
  1333cc:	00001025 	move	v0,zero
  1333d0:	03e00008 	jr	ra
  1333d4:	27bd0018 	addiu	sp,sp,24

001333d8 <FLAC__memory_alloc_aligned_real_array>:
  1333d8:	3c024000 	lui	v0,0x4000
  1333dc:	0082182b 	sltu	v1,a0,v0
  1333e0:	14600003 	bnez	v1,1333f0 <FLAC__memory_alloc_aligned_real_array+0x18>
  1333e4:	00001025 	move	v0,zero
  1333e8:	03e00008 	jr	ra
  1333ec:	00000000 	nop
  1333f0:	27bdffe8 	addiu	sp,sp,-24
  1333f4:	00042080 	sll	a0,a0,0x2
  1333f8:	afb0000c 	sw	s0,12(sp)
  1333fc:	00a08025 	move	s0,a1
  133400:	24050001 	li	a1,1
  133404:	00a4200a 	movz	a0,a1,a0
  133408:	afb10010 	sw	s1,16(sp)
  13340c:	afbf0014 	sw	ra,20(sp)
  133410:	0c067dfc 	jal	19f7f0 <malloc>
  133414:	00c08825 	move	s1,a2
  133418:	1040000f 	beqz	v0,133458 <FLAC__memory_alloc_aligned_real_array+0x80>
  13341c:	00403025 	move	a2,v0
  133420:	8e040000 	lw	a0,0(s0)
  133424:	10800005 	beqz	a0,13343c <FLAC__memory_alloc_aligned_real_array+0x64>
  133428:	8fbf0014 	lw	ra,20(sp)
  13342c:	0c067e00 	jal	19f800 <free>
  133430:	afa20000 	sw	v0,0(sp)
  133434:	8fa60000 	lw	a2,0(sp)
  133438:	8fbf0014 	lw	ra,20(sp)
  13343c:	ae060000 	sw	a2,0(s0)
  133440:	24020001 	li	v0,1
  133444:	8fb0000c 	lw	s0,12(sp)
  133448:	ae260000 	sw	a2,0(s1)
  13344c:	8fb10010 	lw	s1,16(sp)
  133450:	03e00008 	jr	ra
  133454:	27bd0018 	addiu	sp,sp,24
  133458:	8fbf0014 	lw	ra,20(sp)
  13345c:	8fb10010 	lw	s1,16(sp)
  133460:	8fb0000c 	lw	s0,12(sp)
  133464:	00001025 	move	v0,zero
  133468:	03e00008 	jr	ra
  13346c:	27bd0018 	addiu	sp,sp,24

00133470 <safe_malloc_mul_2op_p>:
  133470:	10800008 	beqz	a0,133494 <safe_malloc_mul_2op_p+0x24>
  133474:	00000000 	nop
--
  133600:	03c0e825 	move	sp,s8
  133604:	8fbf000c 	lw	ra,12(sp)
  133608:	8fbe0008 	lw	s8,8(sp)
  13360c:	27bd0010 	addiu	sp,sp,16
  133610:	03e00008 	jr	ra
  133614:	00000000 	nop

00133618 <mad_frame_finish>:
  133618:	27bdfff0 	addiu	sp,sp,-16
  13361c:	afbf000c 	sw	ra,12(sp)
  133620:	afbe0008 	sw	s8,8(sp)
  133624:	03a0f025 	move	s8,sp
  133628:	afc40000 	sw	a0,0(s8)
  13362c:	8fc20000 	lw	v0,0(s8)
  133630:	8c422430 	lw	v0,9264(v0)
  133634:	10400008 	beqz	v0,133658 <mad_frame_finish+0x40>
  133638:	00000000 	nop
  13363c:	8fc20000 	lw	v0,0(s8)
  133640:	8c422430 	lw	v0,9264(v0)
  133644:	00402025 	move	a0,v0
  133648:	0c067e00 	jal	19f800 <free>
  13364c:	00000000 	nop
  133650:	8fc20000 	lw	v0,0(s8)
  133654:	ac402430 	sw	zero,9264(v0)
  133658:	00000000 	nop
  13365c:	03c0e825 	move	sp,s8
  133660:	8fbf000c 	lw	ra,12(sp)
  133664:	8fbe0008 	lw	s8,8(sp)
  133668:	27bd0010 	addiu	sp,sp,16
  13366c:	03e00008 	jr	ra
  133670:	00000000 	nop

00133674 <decode_header>:
  133674:	27bdffe8 	addiu	sp,sp,-24
  133678:	afbf0014 	sw	ra,20(sp)
  13367c:	afbe0010 	sw	s8,16(sp)
  133680:	03a0f025 	move	s8,sp
  133684:	afc40008 	sw	a0,8(s8)
  133688:	afc5000c 	sw	a1,12(s8)
  13368c:	8fc20008 	lw	v0,8(s8)
  133690:	ac40001c 	sw	zero,28(v0)
--
  13c108:	03c0e825 	move	sp,s8
  13c10c:	8fbf000c 	lw	ra,12(sp)
  13c110:	8fbe0008 	lw	s8,8(sp)
  13c114:	27bd0010 	addiu	sp,sp,16
  13c118:	03e00008 	jr	ra
  13c11c:	00000000 	nop

0013c120 <mad_stream_finish>:
  13c120:	27bdfff0 	addiu	sp,sp,-16
  13c124:	afbf000c 	sw	ra,12(sp)
  13c128:	afbe0008 	sw	s8,8(sp)
  13c12c:	03a0f025 	move	s8,sp
  13c130:	afc40000 	sw	a0,0(s8)
  13c134:	8fc20000 	lw	v0,0(s8)
  13c138:	8c420030 	lw	v0,48(v0)
  13c13c:	10400008 	beqz	v0,13c160 <mad_stream_finish+0x40>
  13c140:	00000000 	nop
  13c144:	8fc20000 	lw	v0,0(s8)
  13c148:	8c420030 	lw	v0,48(v0)
  13c14c:	00402025 	move	a0,v0
  13c150:	0c067e00 	jal	19f800 <free>
  13c154:	00000000 	nop
  13c158:	8fc20000 	lw	v0,0(s8)
  13c15c:	ac400030 	sw	zero,48(v0)
  13c160:	00000000 	nop
  13c164:	03c0e825 	move	sp,s8
  13c168:	8fbf000c 	lw	ra,12(sp)
  13c16c:	8fbe0008 	lw	s8,8(sp)
  13c170:	27bd0010 	addiu	sp,sp,16
  13c174:	03e00008 	jr	ra
  13c178:	00000000 	nop

0013c17c <mad_stream_buffer>:
  13c17c:	27bdffe8 	addiu	sp,sp,-24
  13c180:	afbf0014 	sw	ra,20(sp)
  13c184:	afbe0010 	sw	s8,16(sp)
  13c188:	03a0f025 	move	s8,sp
  13c18c:	afc40000 	sw	a0,0(s8)
  13c190:	afc50004 	sw	a1,4(s8)
  13c194:	afc60008 	sw	a2,8(s8)
  13c198:	8fc20000 	lw	v0,0(s8)
--
  142090:	27bdfff0 	addiu	sp,sp,-16
  142094:	afb00004 	sw	s0,4(sp)
  142098:	00808025 	move	s0,a0
  14209c:	24840230 	addiu	a0,a0,560
  1420a0:	afbf000c 	sw	ra,12(sp)
  1420a4:	0c051942 	jal	146508 <vorbis_block_clear>
  1420a8:	afb10008 	sw	s1,8(sp)
  1420ac:	0c051971 	jal	1465c4 <vorbis_dsp_clear>
  1420b0:	260401e0 	addiu	a0,s0,480
  1420b4:	0c054580 	jal	151600 <ogg_stream_clear>
  1420b8:	26040078 	addiu	a0,s0,120
  1420bc:	8e040048 	lw	a0,72(s0)
  1420c0:	50800005 	beqzl	a0,1420d8 <ov_clear.part.0+0x48>
  1420c4:	8e04003c 	lw	a0,60(s0)
  1420c8:	8e020034 	lw	v0,52(s0)
  1420cc:	14400027 	bnez	v0,14216c <ov_clear.part.0+0xdc>
  1420d0:	00000000 	nop
  1420d4:	8e04003c 	lw	a0,60(s0)
  1420d8:	50800004 	beqzl	a0,1420ec <ov_clear.part.0+0x5c>
  1420dc:	8e040044 	lw	a0,68(s0)
  1420e0:	0c067e00 	jal	19f800 <free>
  1420e4:	00000000 	nop
  1420e8:	8e040044 	lw	a0,68(s0)
  1420ec:	50800004 	beqzl	a0,142100 <ov_clear.part.0+0x70>
  1420f0:	8e040040 	lw	a0,64(s0)
  1420f4:	0c067e00 	jal	19f800 <free>
  1420f8:	00000000 	nop
  1420fc:	8e040040 	lw	a0,64(s0)
  142100:	50800004 	beqzl	a0,142114 <ov_clear.part.0+0x84>
  142104:	8e040038 	lw	a0,56(s0)
  142108:	0c067e00 	jal	19f800 <free>
  14210c:	00000000 	nop
  142110:	8e040038 	lw	a0,56(s0)
  142114:	10800003 	beqz	a0,142124 <ov_clear.part.0+0x94>
  142118:	00000000 	nop
  14211c:	0c067e00 	jal	19f800 <free>
  142120:	00000000 	nop
  142124:	0c0547d5 	jal	151f54 <ogg_sync_clear>
  142128:	26040018 	addiu	a0,s0,24
  14212c:	8e040000 	lw	a0,0(s0)
  142130:	10800007 	beqz	a0,142150 <ov_clear.part.0+0xc0>
  142134:	8fbf000c 	lw	ra,12(sp)
  142138:	8e020290 	lw	v0,656(s0)
  14213c:	50400005 	beqzl	v0,142154 <ov_clear.part.0+0xc4>
  142140:	8fb10008 	lw	s1,8(sp)
  142144:	0040f809 	jalr	v0
  142148:	00000000 	nop
  14214c:	8fbf000c 	lw	ra,12(sp)
  142150:	8fb10008 	lw	s1,8(sp)
  142154:	02002025 	move	a0,s0
  142158:	8fb00004 	lw	s0,4(sp)
  14215c:	24060298 	li	a2,664
  142160:	00002825 	move	a1,zero
  142164:	08067a05 	j	19e814 <memset>
  142168:	27bd0010 	addiu	sp,sp,16
  14216c:	1840000e 	blez	v0,1421a8 <ov_clear.part.0+0x118>
  142170:	00000000 	nop
  142174:	00008825 	move	s1,zero
  142178:	00111140 	sll	v0,s1,0x5
  14217c:	0c051eb0 	jal	147ac0 <vorbis_info_clear>
  142180:	00822021 	addu	a0,a0,v0
  142184:	8e04004c 	lw	a0,76(s0)
  142188:	00111100 	sll	v0,s1,0x4
  14218c:	26310001 	addiu	s1,s1,1
  142190:	0c051e6a 	jal	1479a8 <vorbis_comment_clear>
  142194:	00822021 	addu	a0,a0,v0
  142198:	8e020034 	lw	v0,52(s0)
  14219c:	0222102a 	slt	v0,s1,v0
  1421a0:	1440fff5 	bnez	v0,142178 <ov_clear.part.0+0xe8>
  1421a4:	8e040048 	lw	a0,72(s0)
  1421a8:	0c067e00 	jal	19f800 <free>
  1421ac:	00000000 	nop
  1421b0:	0c067e00 	jal	19f800 <free>
  1421b4:	8e04004c 	lw	a0,76(s0)
  1421b8:	1000ffc7 	b	1420d8 <ov_clear.part.0+0x48>
  1421bc:	8e04003c 	lw	a0,60(s0)

001421c0 <_get_prev_page_serial>:
  1421c0:	27bdffa0 	addiu	sp,sp,-96
  1421c4:	2402ffff 	li	v0,-1
  1421c8:	afa20010 	sw	v0,16(sp)
  1421cc:	afa20020 	sw	v0,32(sp)
  1421d0:	afa2001c 	sw	v0,28(sp)
  1421d4:	3c02ffff 	lui	v0,0xffff
  1421d8:	24420001 	addiu	v0,v0,1
  1421dc:	afbe0058 	sw	s8,88(sp)
  1421e0:	afb5004c 	sw	s5,76(sp)
  1421e4:	afb40048 	sw	s4,72(sp)
  1421e8:	afb30044 	sw	s3,68(sp)
  1421ec:	afb20040 	sw	s2,64(sp)
  1421f0:	afb1003c 	sw	s1,60(sp)
  1421f4:	afb00038 	sw	s0,56(sp)
  1421f8:	afbf005c 	sw	ra,92(sp)
--
  1424b8:	1240002a 	beqz	s2,142564 <_fetch_headers+0x130>
  1424bc:	02002025 	move	a0,s0
  1424c0:	8e5e0000 	lw	s8,0(s2)
  1424c4:	0c05451c 	jal	151470 <ogg_page_serialno>
  1424c8:	8e760000 	lw	s6,0(s3)
  1424cc:	13c00014 	beqz	s8,142520 <_fetch_headers+0xec>
  1424d0:	00000000 	nop
  1424d4:	12c00012 	beqz	s6,142520 <_fetch_headers+0xec>
  1424d8:	02c01825 	move	v1,s6
  1424dc:	10000004 	b	1424f0 <_fetch_headers+0xbc>
  1424e0:	8fc40000 	lw	a0,0(s8)
  1424e4:	1060000e 	beqz	v1,142520 <_fetch_headers+0xec>
  1424e8:	00000000 	nop
  1424ec:	8fc40000 	lw	a0,0(s8)
  1424f0:	2463ffff 	addiu	v1,v1,-1
  1424f4:	1444fffb 	bne	v0,a0,1424e4 <_fetch_headers+0xb0>
  1424f8:	27de0004 	addiu	s8,s8,4
  1424fc:	8e440000 	lw	a0,0(s2)
  142500:	50800004 	beqzl	a0,142514 <_fetch_headers+0xe0>
  142504:	ae400000 	sw	zero,0(s2)
  142508:	0c067e00 	jal	19f800 <free>
  14250c:	00000000 	nop
  142510:	ae400000 	sw	zero,0(s2)
  142514:	ae600000 	sw	zero,0(s3)
  142518:	10000081 	b	142720 <_fetch_headers+0x2ec>
  14251c:	2417ff7b 	li	s7,-133
  142520:	0c05451c 	jal	151470 <ogg_page_serialno>
  142524:	02002025 	move	a0,s0
  142528:	8e650000 	lw	a1,0(s3)
  14252c:	8e440000 	lw	a0,0(s2)
  142530:	0040b025 	move	s6,v0
  142534:	24a50001 	addiu	a1,a1,1
  142538:	10800075 	beqz	a0,142710 <_fetch_headers+0x2dc>
  14253c:	ae650000 	sw	a1,0(s3)
  142540:	0c068119 	jal	1a0464 <realloc>
  142544:	00052880 	sll	a1,a1,0x2
  142548:	8e630000 	lw	v1,0(s3)
  14254c:	8fa40030 	lw	a0,48(sp)
  142550:	ae420000 	sw	v0,0(s2)
  142554:	00641821 	addu	v1,v1,a0
  142558:	00031880 	sll	v1,v1,0x2
--
  142858:	53d7000f 	beql	s8,s7,142898 <_bisect_forward_serialno+0xd4>
  14285c:	8fa200c4 	lw	v0,196(sp)
  142860:	8fa60084 	lw	a2,132(sp)
  142864:	8fa70078 	lw	a3,120(sp)
  142868:	8fa900c0 	lw	t1,192(sp)
  14286c:	8fa800bc 	lw	t0,188(sp)
  142870:	02202025 	move	a0,s1
  142874:	27ab00b0 	addiu	t3,sp,176
  142878:	27aa00b8 	addiu	t2,sp,184
  14287c:	0c050870 	jal	1421c0 <_get_prev_page_serial>
  142880:	afb700b8 	sw	s7,184(sp)
  142884:	8fa400b8 	lw	a0,184(sp)
  142888:	00603825 	move	a3,v1
  14288c:	1497fff6 	bne	a0,s7,142868 <_bisect_forward_serialno+0xa4>
  142890:	00403025 	move	a2,v0
  142894:	8fa200c4 	lw	v0,196(sp)
  142898:	8e240038 	lw	a0,56(s1)
  14289c:	24500001 	addiu	s0,v0,1
  1428a0:	10800003 	beqz	a0,1428b0 <_bisect_forward_serialno+0xec>
  1428a4:	ae300034 	sw	s0,52(s1)
  1428a8:	0c067e00 	jal	19f800 <free>
  1428ac:	00000000 	nop
  1428b0:	8e240040 	lw	a0,64(s1)
  1428b4:	50800004 	beqzl	a0,1428c8 <_bisect_forward_serialno+0x104>
  1428b8:	8e24003c 	lw	a0,60(s1)
  1428bc:	0c067e00 	jal	19f800 <free>
  1428c0:	00000000 	nop
  1428c4:	8e24003c 	lw	a0,60(s1)
  1428c8:	50800004 	beqzl	a0,1428dc <_bisect_forward_serialno+0x118>
  1428cc:	8e320034 	lw	s2,52(s1)
  1428d0:	0c067e00 	jal	19f800 <free>
  1428d4:	00000000 	nop
  1428d8:	8e320034 	lw	s2,52(s1)
  1428dc:	001080c0 	sll	s0,s0,0x3
  1428e0:	26440001 	addiu	a0,s2,1
  1428e4:	0c067dfc 	jal	19f7f0 <malloc>
  1428e8:	000420c0 	sll	a0,a0,0x3
  1428ec:	8e240048 	lw	a0,72(s1)
  1428f0:	00122940 	sll	a1,s2,0x5
  1428f4:	0c068119 	jal	1a0464 <realloc>
  1428f8:	ae220038 	sw	v0,56(s1)
  1428fc:	8e250034 	lw	a1,52(s1)
  142900:	8e24004c 	lw	a0,76(s1)
  142904:	ae220048 	sw	v0,72(s1)
  142908:	0c068119 	jal	1a0464 <realloc>
  14290c:	00052900 	sll	a1,a1,0x4
  142910:	8e320034 	lw	s2,52(s1)
  142914:	ae22004c 	sw	v0,76(s1)
  142918:	0c067dfc 	jal	19f7f0 <malloc>
  14291c:	00122080 	sll	a0,s2,0x2
  142920:	ae220040 	sw	v0,64(s1)
--
  142b48:	8fb70068 	lw	s7,104(sp)
  142b4c:	0060b025 	move	s6,v1
  142b50:	afa20010 	sw	v0,16(sp)
  142b54:	8fa300b4 	lw	v1,180(sp)
  142b58:	8fa200b0 	lw	v0,176(sp)
  142b5c:	8faa0084 	lw	t2,132(sp)
  142b60:	8fab0078 	lw	t3,120(sp)
  142b64:	8fa6007c 	lw	a2,124(sp)
  142b68:	8fa70080 	lw	a3,128(sp)
  142b6c:	afb00014 	sw	s0,20(sp)
  142b70:	afb7000c 	sw	s7,12(sp)
  142b74:	afbe0008 	sw	s8,8(sp)
  142b78:	afa20000 	sw	v0,0(sp)
  142b7c:	afa30004 	sw	v1,4(sp)
  142b80:	0c0509f1 	jal	1427c4 <_bisect_forward_serialno>
  142b84:	02202025 	move	a0,s1
  142b88:	1440ff82 	bnez	v0,142994 <_bisect_forward_serialno+0x1d0>
  142b8c:	8fbf00ac 	lw	ra,172(sp)
  142b90:	52e00004 	beqzl	s7,142ba4 <_bisect_forward_serialno+0x3e0>
  142b94:	8e260040 	lw	a2,64(s1)
  142b98:	0c067e00 	jal	19f800 <free>
  142b9c:	02e02025 	move	a0,s7
  142ba0:	8e260040 	lw	a2,64(s1)
  142ba4:	8e220038 	lw	v0,56(s1)
  142ba8:	00103880 	sll	a3,s0,0x2
  142bac:	00c73021 	addu	a2,a2,a3
  142bb0:	8fa7007c 	lw	a3,124(sp)
  142bb4:	001020c0 	sll	a0,s0,0x3
  142bb8:	8e25003c 	lw	a1,60(s1)
  142bbc:	00441021 	addu	v0,v0,a0
  142bc0:	8e230048 	lw	v1,72(s1)
  142bc4:	ac470000 	sw	a3,0(v0)
  142bc8:	8fa70080 	lw	a3,128(sp)
  142bcc:	00a42021 	addu	a0,a1,a0
  142bd0:	00102940 	sll	a1,s0,0x5
  142bd4:	ac470004 	sw	a3,4(v0)
  142bd8:	00651821 	addu	v1,v1,a1
  142bdc:	acd30000 	sw	s3,0(a2)
  142be0:	27a20018 	addiu	v0,sp,24
  142be4:	ac940000 	sw	s4,0(a0)
  142be8:	ac950004 	sw	s5,4(a0)
--
  142ef4:	24050008 	li	a1,8
  142ef8:	0c0679c3 	jal	19e70c <calloc>
  142efc:	24040001 	li	a0,1
  142f00:	ae020038 	sw	v0,56(s0)
  142f04:	24050008 	li	a1,8
  142f08:	24040001 	li	a0,1
  142f0c:	0c0679c3 	jal	19e70c <calloc>
  142f10:	0040a025 	move	s4,v0
  142f14:	8e040008 	lw	a0,8(s0)
  142f18:	8e05000c 	lw	a1,12(s0)
  142f1c:	00003025 	move	a2,zero
  142f20:	00003825 	move	a3,zero
  142f24:	ae02003c 	sw	v0,60(s0)
  142f28:	ae860000 	sw	a2,0(s4)
  142f2c:	ae870004 	sw	a3,4(s4)
  142f30:	ac440000 	sw	a0,0(v0)
  142f34:	ac450004 	sw	a1,4(v0)
  142f38:	ae130058 	sw	s3,88(s0)
  142f3c:	12200004 	beqz	s1,142f50 <_ov_open1+0x1d0>
  142f40:	8fbf0034 	lw	ra,52(sp)
  142f44:	0c067e00 	jal	19f800 <free>
  142f48:	02202025 	move	a0,s1
  142f4c:	8fbf0034 	lw	ra,52(sp)
  142f50:	8fbe0030 	lw	s8,48(sp)
  142f54:	8fb7002c 	lw	s7,44(sp)
  142f58:	8fb60028 	lw	s6,40(sp)
  142f5c:	8fb50024 	lw	s5,36(sp)
  142f60:	8fb40020 	lw	s4,32(sp)
  142f64:	8fb3001c 	lw	s3,28(sp)
  142f68:	8fb10014 	lw	s1,20(sp)
  142f6c:	8fb00010 	lw	s0,16(sp)
  142f70:	02401025 	move	v0,s2
  142f74:	8fb20018 	lw	s2,24(sp)
  142f78:	03e00008 	jr	ra
  142f7c:	27bd0038 	addiu	sp,sp,56
  142f80:	ae000000 	sw	zero,0(s0)
  142f84:	0c050824 	jal	142090 <ov_clear.part.0>
  142f88:	02002025 	move	a0,s0
  142f8c:	1000ffeb 	b	142f3c <_ov_open1+0x1bc>
  142f90:	00000000 	nop

--
  146438:	afa50000 	sw	a1,0(sp)
  14643c:	8fa30004 	lw	v1,4(sp)
  146440:	8fa40000 	lw	a0,0(sp)
  146444:	8fbf0014 	lw	ra,20(sp)
  146448:	ac620044 	sw	v0,68(v1)
  14644c:	ac640048 	sw	a0,72(v1)
  146450:	03e00008 	jr	ra
  146454:	27bd0018 	addiu	sp,sp,24

00146458 <_vorbis_block_ripcord>:
  146458:	27bdfff0 	addiu	sp,sp,-16
  14645c:	afb00000 	sw	s0,0(sp)
  146460:	8c900054 	lw	s0,84(a0)
  146464:	afb20008 	sw	s2,8(sp)
  146468:	afbf000c 	sw	ra,12(sp)
  14646c:	afb10004 	sw	s1,4(sp)
  146470:	12000009 	beqz	s0,146498 <_vorbis_block_ripcord+0x40>
  146474:	00809025 	move	s2,a0
  146478:	8e040000 	lw	a0,0(s0)
  14647c:	02008825 	move	s1,s0
  146480:	0c067e00 	jal	19f800 <free>
  146484:	8e100004 	lw	s0,4(s0)
  146488:	0c067e00 	jal	19f800 <free>
  14648c:	02202025 	move	a0,s1
  146490:	5600fffa 	bnezl	s0,14647c <_vorbis_block_ripcord+0x24>
  146494:	8e040000 	lw	a0,0(s0)
  146498:	8e420050 	lw	v0,80(s2)
  14649c:	14400008 	bnez	v0,1464c0 <_vorbis_block_ripcord+0x68>
  1464a0:	8fbf000c 	lw	ra,12(sp)
  1464a4:	8fb10004 	lw	s1,4(sp)
  1464a8:	8fb00000 	lw	s0,0(sp)
  1464ac:	ae400048 	sw	zero,72(s2)
  1464b0:	ae400054 	sw	zero,84(s2)
  1464b4:	8fb20008 	lw	s2,8(sp)
  1464b8:	03e00008 	jr	ra
  1464bc:	27bd0010 	addiu	sp,sp,16
  1464c0:	8e45004c 	lw	a1,76(s2)
  1464c4:	8e440044 	lw	a0,68(s2)
  1464c8:	0c068119 	jal	1a0464 <realloc>
  1464cc:	00452821 	addu	a1,v0,a1
  1464d0:	8e43004c 	lw	v1,76(s2)
  1464d4:	8e440050 	lw	a0,80(s2)
  1464d8:	8fbf000c 	lw	ra,12(sp)
--
  1464e0:	00641821 	addu	v1,v1,a0
  1464e4:	8fb00000 	lw	s0,0(sp)
  1464e8:	ae420044 	sw	v0,68(s2)
  1464ec:	ae400050 	sw	zero,80(s2)
  1464f0:	ae43004c 	sw	v1,76(s2)
  1464f4:	ae400048 	sw	zero,72(s2)
  1464f8:	ae400054 	sw	zero,84(s2)
  1464fc:	8fb20008 	lw	s2,8(sp)
  146500:	03e00008 	jr	ra
  146504:	27bd0010 	addiu	sp,sp,16

00146508 <vorbis_block_clear>:
  146508:	27bdfff8 	addiu	sp,sp,-8
  14650c:	afb00000 	sw	s0,0(sp)
  146510:	afbf0004 	sw	ra,4(sp)
  146514:	0c051916 	jal	146458 <_vorbis_block_ripcord>
  146518:	00808025 	move	s0,a0
  14651c:	8e040044 	lw	a0,68(s0)
  146520:	50800004 	beqzl	a0,146534 <vorbis_block_clear+0x2c>
  146524:	02002025 	move	a0,s0
  146528:	0c067e00 	jal	19f800 <free>
  14652c:	00000000 	nop
  146530:	02002025 	move	a0,s0
  146534:	24060058 	li	a2,88
  146538:	0c067a05 	jal	19e814 <memset>
  14653c:	00002825 	move	a1,zero
  146540:	8fbf0004 	lw	ra,4(sp)
  146544:	8fb00000 	lw	s0,0(sp)
  146548:	00001025 	move	v0,zero
  14654c:	03e00008 	jr	ra
  146550:	27bd0008 	addiu	sp,sp,8

00146554 <vorbis_synthesis_restart>:
  146554:	8c830048 	lw	v1,72(a0)
  146558:	10600018 	beqz	v1,1465bc <vorbis_synthesis_restart+0x68>
  14655c:	00000000 	nop
  146560:	8c820004 	lw	v0,4(a0)
  146564:	10400015 	beqz	v0,1465bc <vorbis_synthesis_restart+0x68>
  146568:	00000000 	nop
  14656c:	8c42001c 	lw	v0,28(v0)
  146570:	10400012 	beqz	v0,1465bc <vorbis_synthesis_restart+0x68>
--
  1465dc:	afb10008 	sw	s1,8(sp)
  1465e0:	8c950048 	lw	s5,72(a0)
  1465e4:	8c830008 	lw	v1,8(a0)
  1465e8:	afbf001c 	sw	ra,28(sp)
  1465ec:	afb40014 	sw	s4,20(sp)
  1465f0:	afb2000c 	sw	s2,12(sp)
  1465f4:	afb00004 	sw	s0,4(sp)
  1465f8:	1260004e 	beqz	s3,146734 <vorbis_dsp_clear+0x170>
  1465fc:	00808825 	move	s1,a0
  146600:	10600018 	beqz	v1,146664 <vorbis_dsp_clear+0xa0>
  146604:	8e72001c 	lw	s2,28(s3)
  146608:	8e650004 	lw	a1,4(s3)
  14660c:	18a0000e 	blez	a1,146648 <vorbis_dsp_clear+0x84>
  146610:	00000000 	nop
  146614:	00008025 	move	s0,zero
  146618:	00101080 	sll	v0,s0,0x2
  14661c:	00621021 	addu	v0,v1,v0
  146620:	8c440000 	lw	a0,0(v0)
  146624:	10800005 	beqz	a0,14663c <vorbis_dsp_clear+0x78>
  146628:	26100001 	addiu	s0,s0,1
  14662c:	0c067e00 	jal	19f800 <free>
  146630:	00000000 	nop
  146634:	8e650004 	lw	a1,4(s3)
  146638:	8e230008 	lw	v1,8(s1)
  14663c:	0205102a 	slt	v0,s0,a1
  146640:	1440fff6 	bnez	v0,14661c <vorbis_dsp_clear+0x58>
  146644:	00101080 	sll	v0,s0,0x2
  146648:	0c067e00 	jal	19f800 <free>
  14664c:	00602025 	move	a0,v1
  146650:	8e24000c 	lw	a0,12(s1)
  146654:	10800003 	beqz	a0,146664 <vorbis_dsp_clear+0xa0>
  146658:	00000000 	nop
  14665c:	0c067e00 	jal	19f800 <free>
  146660:	00000000 	nop
  146664:	1240001e 	beqz	s2,1466e0 <vorbis_dsp_clear+0x11c>
  146668:	00000000 	nop
  14666c:	8e440008 	lw	a0,8(s2)
  146670:	1880001b 	blez	a0,1466e0 <vorbis_dsp_clear+0x11c>
  146674:	00000000 	nop
  146678:	3c13001f 	lui	s3,0x1f
  14667c:	26540020 	addiu	s4,s2,32
  146680:	00008025 	move	s0,zero
  146684:	2673212c 	addiu	s3,s3,8492
  146688:	12a00011 	beqz	s5,1466d0 <vorbis_dsp_clear+0x10c>
  14668c:	00101080 	sll	v0,s0,0x2
  146690:	8ea3000c 	lw	v1,12(s5)
  146694:	1060000e 	beqz	v1,1466d0 <vorbis_dsp_clear+0x10c>
  146698:	00621021 	addu	v0,v1,v0
  14669c:	8e830000 	lw	v1,0(s4)
  1466a0:	8c440000 	lw	a0,0(v0)
  1466a4:	8c62000c 	lw	v0,12(v1)
  1466a8:	00021080 	sll	v0,v0,0x2
  1466ac:	02421021 	addu	v0,s2,v0
  1466b0:	8c420120 	lw	v0,288(v0)
  1466b4:	00021080 	sll	v0,v0,0x2
  1466b8:	00531021 	addu	v0,v0,s3
  1466bc:	8c420000 	lw	v0,0(v0)
  1466c0:	8c42000c 	lw	v0,12(v0)
  1466c4:	0040f809 	jalr	v0
  1466c8:	00000000 	nop
  1466cc:	8e440008 	lw	a0,8(s2)
  1466d0:	26100001 	addiu	s0,s0,1
  1466d4:	0204102a 	slt	v0,s0,a0
  1466d8:	1440ffeb 	bnez	v0,146688 <vorbis_dsp_clear+0xc4>
  1466dc:	26940004 	addiu	s4,s4,4
  1466e0:	12a00009 	beqz	s5,146708 <vorbis_dsp_clear+0x144>
  1466e4:	8fbf001c 	lw	ra,28(sp)
  1466e8:	8ea4000c 	lw	a0,12(s5)
  1466ec:	10800003 	beqz	a0,1466fc <vorbis_dsp_clear+0x138>
  1466f0:	00000000 	nop
  1466f4:	0c067e00 	jal	19f800 <free>
  1466f8:	00000000 	nop
  1466fc:	0c067e00 	jal	19f800 <free>
  146700:	02a02025 	move	a0,s5
  146704:	8fbf001c 	lw	ra,28(sp)
  146708:	8fb50018 	lw	s5,24(sp)
  14670c:	8fb40014 	lw	s4,20(sp)
  146710:	8fb30010 	lw	s3,16(sp)
  146714:	8fb2000c 	lw	s2,12(sp)
  146718:	8fb00004 	lw	s0,4(sp)
  14671c:	02202025 	move	a0,s1
  146720:	8fb10008 	lw	s1,8(sp)
  146724:	24060050 	li	a2,80
  146728:	00002825 	move	a1,zero
  14672c:	08067a05 	j	19e814 <memset>
  146730:	27bd0020 	addiu	sp,sp,32
  146734:	1460ffb4 	bnez	v1,146608 <vorbis_dsp_clear+0x44>
  146738:	00009025 	move	s2,zero
  14673c:	1000ffe8 	b	1466e0 <vorbis_dsp_clear+0x11c>
  146740:	00000000 	nop
  146744:	03e00008 	jr	ra
  146748:	00000000 	nop

--

001479a8 <vorbis_comment_clear>:
  1479a8:	1080002c 	beqz	a0,147a5c <vorbis_comment_clear+0xb4>
  1479ac:	00000000 	nop
  1479b0:	8c830000 	lw	v1,0(a0)
  1479b4:	27bdfff0 	addiu	sp,sp,-16
  1479b8:	afb10008 	sw	s1,8(sp)
  1479bc:	afbf000c 	sw	ra,12(sp)
  1479c0:	afb00004 	sw	s0,4(sp)
  1479c4:	10600013 	beqz	v1,147a14 <vorbis_comment_clear+0x6c>
  1479c8:	00808825 	move	s1,a0
  1479cc:	8c850008 	lw	a1,8(a0)
  1479d0:	18a0000e 	blez	a1,147a0c <vorbis_comment_clear+0x64>
  1479d4:	00000000 	nop
  1479d8:	00008025 	move	s0,zero
  1479dc:	00101080 	sll	v0,s0,0x2
  1479e0:	00621021 	addu	v0,v1,v0
  1479e4:	8c440000 	lw	a0,0(v0)
  1479e8:	10800005 	beqz	a0,147a00 <vorbis_comment_clear+0x58>
  1479ec:	26100001 	addiu	s0,s0,1
  1479f0:	0c067e00 	jal	19f800 <free>
  1479f4:	00000000 	nop
  1479f8:	8e250008 	lw	a1,8(s1)
  1479fc:	8e230000 	lw	v1,0(s1)
  147a00:	0205102a 	slt	v0,s0,a1
  147a04:	1440fff6 	bnez	v0,1479e0 <vorbis_comment_clear+0x38>
  147a08:	00101080 	sll	v0,s0,0x2
  147a0c:	0c067e00 	jal	19f800 <free>
  147a10:	00602025 	move	a0,v1
  147a14:	8e240004 	lw	a0,4(s1)
  147a18:	50800004 	beqzl	a0,147a2c <vorbis_comment_clear+0x84>
  147a1c:	8e24000c 	lw	a0,12(s1)
  147a20:	0c067e00 	jal	19f800 <free>
  147a24:	00000000 	nop
  147a28:	8e24000c 	lw	a0,12(s1)
  147a2c:	10800004 	beqz	a0,147a40 <vorbis_comment_clear+0x98>
  147a30:	8fbf000c 	lw	ra,12(sp)
  147a34:	0c067e00 	jal	19f800 <free>
  147a38:	00000000 	nop
  147a3c:	8fbf000c 	lw	ra,12(sp)
  147a40:	8fb00004 	lw	s0,4(sp)
  147a44:	02202025 	move	a0,s1
  147a48:	8fb10008 	lw	s1,8(sp)
  147a4c:	24060010 	li	a2,16
  147a50:	00002825 	move	a1,zero
  147a54:	08067a05 	j	19e814 <memset>
  147a58:	27bd0010 	addiu	sp,sp,16
  147a5c:	03e00008 	jr	ra
  147a60:	00000000 	nop

00147a64 <vorbis_info_blocksize>:
  147a64:	8c82001c 	lw	v0,28(a0)
  147a68:	10400004 	beqz	v0,147a7c <vorbis_info_blocksize+0x18>
  147a6c:	00052880 	sll	a1,a1,0x2
  147a70:	00451021 	addu	v0,v0,a1
  147a74:	03e00008 	jr	ra
  147a78:	8c420000 	lw	v0,0(v0)
  147a7c:	03e00008 	jr	ra
--

00147ac0 <vorbis_info_clear>:
  147ac0:	27bdffe8 	addiu	sp,sp,-24
  147ac4:	afb00000 	sw	s0,0(sp)
  147ac8:	8c90001c 	lw	s0,28(a0)
  147acc:	afb10004 	sw	s1,4(sp)
  147ad0:	afbf0014 	sw	ra,20(sp)
  147ad4:	afb40010 	sw	s4,16(sp)
  147ad8:	afb3000c 	sw	s3,12(sp)
  147adc:	afb20008 	sw	s2,8(sp)
  147ae0:	1200006b 	beqz	s0,147c90 <vorbis_info_clear+0x1d0>
  147ae4:	00808825 	move	s1,a0
  147ae8:	8e030008 	lw	v1,8(s0)
  147aec:	5860000d 	blezl	v1,147b24 <vorbis_info_clear+0x64>
  147af0:	8e03000c 	lw	v1,12(s0)
  147af4:	26130020 	addiu	s3,s0,32
  147af8:	00009025 	move	s2,zero
  147afc:	8e640000 	lw	a0,0(s3)
  147b00:	10800004 	beqz	a0,147b14 <vorbis_info_clear+0x54>
  147b04:	26520001 	addiu	s2,s2,1
  147b08:	0c067e00 	jal	19f800 <free>
  147b0c:	00000000 	nop
  147b10:	8e030008 	lw	v1,8(s0)
  147b14:	0243102a 	slt	v0,s2,v1
  147b18:	1440fff8 	bnez	v0,147afc <vorbis_info_clear+0x3c>
  147b1c:	26730004 	addiu	s3,s3,4
  147b20:	8e03000c 	lw	v1,12(s0)
  147b24:	58600014 	blezl	v1,147b78 <vorbis_info_clear+0xb8>
  147b28:	8e030014 	lw	v1,20(s0)
  147b2c:	3c14001f 	lui	s4,0x1f
  147b30:	26120120 	addiu	s2,s0,288
  147b34:	00009825 	move	s3,zero
  147b38:	2694212c 	addiu	s4,s4,8492
  147b3c:	8e440100 	lw	a0,256(s2)
  147b40:	10800009 	beqz	a0,147b68 <vorbis_info_clear+0xa8>
  147b44:	26730001 	addiu	s3,s3,1
  147b48:	8e420000 	lw	v0,0(s2)
  147b4c:	00021080 	sll	v0,v0,0x2
  147b50:	00541021 	addu	v0,v0,s4
  147b54:	8c420000 	lw	v0,0(v0)
  147b58:	8c420008 	lw	v0,8(v0)
--
  147c30:	00009025 	move	s2,zero
  147c34:	8e840000 	lw	a0,0(s4)
  147c38:	50800004 	beqzl	a0,147c4c <vorbis_info_clear+0x18c>
  147c3c:	8e020c20 	lw	v0,3104(s0)
  147c40:	0c052868 	jal	14a1a0 <vorbis_staticbook_destroy>
  147c44:	00000000 	nop
  147c48:	8e020c20 	lw	v0,3104(s0)
  147c4c:	10400003 	beqz	v0,147c5c <vorbis_info_clear+0x19c>
  147c50:	00532021 	addu	a0,v0,s3
  147c54:	0c05287a 	jal	14a1e8 <vorbis_book_clear>
  147c58:	00000000 	nop
  147c5c:	8e02001c 	lw	v0,28(s0)
  147c60:	26520001 	addiu	s2,s2,1
  147c64:	26940004 	addiu	s4,s4,4
  147c68:	0242102a 	slt	v0,s2,v0
  147c6c:	1440fff1 	bnez	v0,147c34 <vorbis_info_clear+0x174>
  147c70:	26730034 	addiu	s3,s3,52
  147c74:	8e040c20 	lw	a0,3104(s0)
  147c78:	10800003 	beqz	a0,147c88 <vorbis_info_clear+0x1c8>
  147c7c:	00000000 	nop
  147c80:	0c067e00 	jal	19f800 <free>
  147c84:	00000000 	nop
  147c88:	0c067e00 	jal	19f800 <free>
  147c8c:	02002025 	move	a0,s0
  147c90:	8fbf0014 	lw	ra,20(sp)
  147c94:	8fb40010 	lw	s4,16(sp)
  147c98:	8fb3000c 	lw	s3,12(sp)
  147c9c:	8fb20008 	lw	s2,8(sp)
  147ca0:	8fb00000 	lw	s0,0(sp)
  147ca4:	02202025 	move	a0,s1
  147ca8:	8fb10004 	lw	s1,4(sp)
  147cac:	24060020 	li	a2,32
  147cb0:	00002825 	move	a1,zero
  147cb4:	08067a05 	j	19e814 <memset>
  147cb8:	27bd0018 	addiu	sp,sp,24

00147cbc <vorbis_synthesis_idheader>:
  147cbc:	1080002a 	beqz	a0,147d68 <vorbis_synthesis_idheader+0xac>
  147cc0:	00000000 	nop
  147cc4:	8c860004 	lw	a2,4(a0)
  147cc8:	8c850000 	lw	a1,0(a0)
  147ccc:	27bdffd0 	addiu	sp,sp,-48
  147cd0:	afa40020 	sw	a0,32(sp)
--
  1496ec:	1ca0ffcf 	bgtz	a1,14962c <_make_words+0x6c>
  1496f0:	24840001 	addiu	a0,a0,1
  1496f4:	25290001 	addiu	t1,t1,1
  1496f8:	0132182a 	slt	v1,t1,s2
  1496fc:	1460fffa 	bnez	v1,1496e8 <_make_words+0x128>
  149700:	254a0004 	addiu	t2,t2,4
  149704:	24020001 	li	v0,1
  149708:	12220038 	beq	s1,v0,1497ec <_make_words+0x22c>
  14970c:	27a30004 	addiu	v1,sp,4
  149710:	27a70084 	addiu	a3,sp,132
  149714:	2404001f 	li	a0,31
  149718:	10000003 	b	149728 <_make_words+0x168>
  14971c:	2406ffff 	li	a2,-1
  149720:	10e30030 	beq	a3,v1,1497e4 <_make_words+0x224>
  149724:	2484ffff 	addiu	a0,a0,-1
  149728:	8c650000 	lw	a1,0(v1)
  14972c:	00861006 	srlv	v0,a2,a0
  149730:	00451024 	and	v0,v0,a1
  149734:	1040fffa 	beqz	v0,149720 <_make_words+0x160>
  149738:	24630004 	addiu	v1,v1,4
  14973c:	0c067e00 	jal	19f800 <free>
  149740:	02002025 	move	a0,s0
  149744:	00008025 	move	s0,zero
  149748:	8fbf009c 	lw	ra,156(sp)
  14974c:	8fb30098 	lw	s3,152(sp)
  149750:	8fb20094 	lw	s2,148(sp)
  149754:	8fb10090 	lw	s1,144(sp)
  149758:	02001025 	move	v0,s0
  14975c:	8fb0008c 	lw	s0,140(sp)
  149760:	03e00008 	jr	ra
  149764:	27bd00a0 	addiu	sp,sp,160
  149768:	10ac0008 	beq	a1,t4,14978c <_make_words+0x1cc>
  14976c:	00052080 	sll	a0,a1,0x2
  149770:	03a42021 	addu	a0,sp,a0
  149774:	8c84fffc 	lw	a0,-4(a0)
  149778:	00052880 	sll	a1,a1,0x2
  14977c:	03a52821 	addu	a1,sp,a1
  149780:	00042040 	sll	a0,a0,0x1
  149784:	1000ffbe 	b	149680 <_make_words+0xc0>
  149788:	aca40000 	sw	a0,0(a1)
  14978c:	8fa40004 	lw	a0,4(sp)
--
  149c64:	01b16821 	addu	t5,t5,s1
  149c68:	0080b825 	move	s7,a0
  149c6c:	1ae00011 	blez	s7,149cb4 <_book_unquantize.part.0+0x324>
  149c70:	00000000 	nop
  149c74:	8ce50000 	lw	a1,0(a3)
  149c78:	00173880 	sll	a3,s7,0x2
  149c7c:	01802025 	move	a0,t4
  149c80:	02c01825 	move	v1,s6
  149c84:	02c73821 	addu	a3,s6,a3
  149c88:	8c820000 	lw	v0,0(a0)
  149c8c:	00a23023 	subu	a2,a1,v0
  149c90:	0045102a 	slt	v0,v0,a1
  149c94:	10400004 	beqz	v0,149ca8 <_book_unquantize.part.0+0x318>
  149c98:	24840004 	addiu	a0,a0,4
  149c9c:	8c620000 	lw	v0,0(v1)
  149ca0:	00c21007 	srav	v0,v0,a2
  149ca4:	ac620000 	sw	v0,0(v1)
  149ca8:	24630004 	addiu	v1,v1,4
  149cac:	54e3fff7 	bnel	a3,v1,149c8c <_book_unquantize.part.0+0x2fc>
  149cb0:	8c820000 	lw	v0,0(a0)
  149cb4:	0c067e00 	jal	19f800 <free>
  149cb8:	01802025 	move	a0,t4
  149cbc:	8fbf004c 	lw	ra,76(sp)
  149cc0:	8fbe0048 	lw	s8,72(sp)
  149cc4:	8fb70044 	lw	s7,68(sp)
  149cc8:	8fb5003c 	lw	s5,60(sp)
  149ccc:	8fb40038 	lw	s4,56(sp)
  149cd0:	8fb30034 	lw	s3,52(sp)
  149cd4:	8fb20030 	lw	s2,48(sp)
  149cd8:	8fb1002c 	lw	s1,44(sp)
  149cdc:	8fb00028 	lw	s0,40(sp)
  149ce0:	02c01025 	move	v0,s6
  149ce4:	8fb60040 	lw	s6,64(sp)
  149ce8:	03e00008 	jr	ra
  149cec:	27bd0050 	addiu	sp,sp,80
  149cf0:	8ead001c 	lw	t5,28(s5)
  149cf4:	00021040 	sll	v0,v0,0x1
  149cf8:	14c0ffb8 	bnez	a2,149bdc <_book_unquantize.part.0+0x24c>
  149cfc:	004d480b 	movn	t1,v0,t5
  149d00:	ad420000 	sw	v0,0(t2)
  149d04:	1000ffbe 	b	149c00 <_book_unquantize.part.0+0x270>
--
  14a178:	8ea30008 	lw	v1,8(s5)

0014a17c <_book_unquantize>:
  14a17c:	8c82000c 	lw	v0,12(a0)
  14a180:	2442ffff 	addiu	v0,v0,-1
  14a184:	2c420002 	sltiu	v0,v0,2
  14a188:	14400003 	bnez	v0,14a198 <_book_unquantize+0x1c>
  14a18c:	00000000 	nop
  14a190:	03e00008 	jr	ra
  14a194:	00000000 	nop
  14a198:	08052664 	j	149990 <_book_unquantize.part.0>
  14a19c:	00000000 	nop

0014a1a0 <vorbis_staticbook_destroy>:
  14a1a0:	27bdfff8 	addiu	sp,sp,-8
  14a1a4:	afb00000 	sw	s0,0(sp)
  14a1a8:	00808025 	move	s0,a0
  14a1ac:	8c840020 	lw	a0,32(a0)
  14a1b0:	10800003 	beqz	a0,14a1c0 <vorbis_staticbook_destroy+0x20>
  14a1b4:	afbf0004 	sw	ra,4(sp)
  14a1b8:	0c067e00 	jal	19f800 <free>
  14a1bc:	00000000 	nop
  14a1c0:	8e040008 	lw	a0,8(s0)
  14a1c4:	10800004 	beqz	a0,14a1d8 <vorbis_staticbook_destroy+0x38>
  14a1c8:	8fbf0004 	lw	ra,4(sp)
  14a1cc:	0c067e00 	jal	19f800 <free>
  14a1d0:	00000000 	nop
  14a1d4:	8fbf0004 	lw	ra,4(sp)
  14a1d8:	02002025 	move	a0,s0
  14a1dc:	8fb00000 	lw	s0,0(sp)
  14a1e0:	08067e00 	j	19f800 <free>
  14a1e4:	27bd0008 	addiu	sp,sp,8

0014a1e8 <vorbis_book_clear>:
  14a1e8:	27bdfff8 	addiu	sp,sp,-8
  14a1ec:	afb00000 	sw	s0,0(sp)
  14a1f0:	00808025 	move	s0,a0
  14a1f4:	8c840010 	lw	a0,16(a0)
  14a1f8:	10800003 	beqz	a0,14a208 <vorbis_book_clear+0x20>
  14a1fc:	afbf0004 	sw	ra,4(sp)
  14a200:	0c067e00 	jal	19f800 <free>
  14a204:	00000000 	nop
  14a208:	8e040014 	lw	a0,20(s0)
  14a20c:	50800004 	beqzl	a0,14a220 <vorbis_book_clear+0x38>
  14a210:	8e040018 	lw	a0,24(s0)
  14a214:	0c067e00 	jal	19f800 <free>
  14a218:	00000000 	nop
  14a21c:	8e040018 	lw	a0,24(s0)
  14a220:	50800004 	beqzl	a0,14a234 <vorbis_book_clear+0x4c>
  14a224:	8e04001c 	lw	a0,28(s0)
  14a228:	0c067e00 	jal	19f800 <free>
  14a22c:	00000000 	nop
  14a230:	8e04001c 	lw	a0,28(s0)
  14a234:	50800004 	beqzl	a0,14a248 <vorbis_book_clear+0x60>
  14a238:	8e040020 	lw	a0,32(s0)
  14a23c:	0c067e00 	jal	19f800 <free>
  14a240:	00000000 	nop
  14a244:	8e040020 	lw	a0,32(s0)
  14a248:	10800004 	beqz	a0,14a25c <vorbis_book_clear+0x74>
  14a24c:	8fbf0004 	lw	ra,4(sp)
  14a250:	0c067e00 	jal	19f800 <free>
  14a254:	00000000 	nop
  14a258:	8fbf0004 	lw	ra,4(sp)
  14a25c:	02002025 	move	a0,s0
  14a260:	8fb00000 	lw	s0,0(sp)
  14a264:	24060034 	li	a2,52
  14a268:	00002825 	move	a1,zero
  14a26c:	08067a05 	j	19e814 <memset>
  14a270:	27bd0008 	addiu	sp,sp,8

0014a274 <vorbis_book_init_decode>:
  14a274:	27bdffd8 	addiu	sp,sp,-40
  14a278:	24060034 	li	a2,52
  14a27c:	afbe0020 	sw	s8,32(sp)
  14a280:	afb50014 	sw	s5,20(sp)
  14a284:	afb3000c 	sw	s3,12(sp)
  14a288:	00a0a825 	move	s5,a1
  14a28c:	afbf0024 	sw	ra,36(sp)
  14a290:	00002825 	move	a1,zero
  14a294:	afb7001c 	sw	s7,28(sp)
  14a298:	afb60018 	sw	s6,24(sp)
--
  14a3b8:	03a0b025 	move	s6,sp
  14a3bc:	ae620014 	sw	v0,20(s3)
  14a3c0:	00002025 	move	a0,zero
  14a3c4:	8ee30000 	lw	v1,0(s7)
  14a3c8:	00711823 	subu	v1,v1,s1
  14a3cc:	02c31821 	addu	v1,s6,v1
  14a3d0:	ac640000 	sw	a0,0(v1)
  14a3d4:	24840001 	addiu	a0,a0,1
  14a3d8:	1490fffa 	bne	a0,s0,14a3c4 <vorbis_book_init_decode+0x150>
  14a3dc:	26f70004 	addiu	s7,s7,4
  14a3e0:	02c02025 	move	a0,s6
  14a3e4:	02563021 	addu	a2,s2,s6
  14a3e8:	8c830000 	lw	v1,0(a0)
  14a3ec:	8e850000 	lw	a1,0(s4)
  14a3f0:	24840004 	addiu	a0,a0,4
  14a3f4:	00031880 	sll	v1,v1,0x2
  14a3f8:	00431821 	addu	v1,v0,v1
  14a3fc:	ac650000 	sw	a1,0(v1)
  14a400:	14c4fff9 	bne	a2,a0,14a3e8 <vorbis_book_init_decode+0x174>
  14a404:	26940004 	addiu	s4,s4,4
  14a408:	0c067e00 	jal	19f800 <free>
  14a40c:	02202025 	move	a0,s1
  14a410:	8ea3000c 	lw	v1,12(s5)
  14a414:	2463ffff 	addiu	v1,v1,-1
  14a418:	2c630002 	sltiu	v1,v1,2
  14a41c:	146000b4 	bnez	v1,14a6f0 <vorbis_book_init_decode+0x47c>
  14a420:	00001025 	move	v0,zero
  14a424:	ae620010 	sw	v0,16(s3)
  14a428:	0c067dfc 	jal	19f7f0 <malloc>
  14a42c:	02402025 	move	a0,s2
  14a430:	8ea80004 	lw	t0,4(s5)
  14a434:	190000bb 	blez	t0,14a724 <vorbis_book_init_decode+0x4b0>
  14a438:	ae620018 	sw	v0,24(s3)
  14a43c:	8eb00008 	lw	s0,8(s5)
  14a440:	00002025 	move	a0,zero
  14a444:	00002825 	move	a1,zero
  14a448:	02003025 	move	a2,s0
  14a44c:	8cc70000 	lw	a3,0(a2)
  14a450:	00041880 	sll	v1,a0,0x2
  14a454:	02c31821 	addu	v1,s6,v1
  14a458:	18e00006 	blez	a3,14a474 <vorbis_book_init_decode+0x200>
--
  14b0c8:	02002025 	move	a0,s0
  14b0cc:	0c054297 	jal	150a5c <oggpack_read>
  14b0d0:	00409025 	move	s2,v0
  14b0d4:	18400054 	blez	v0,14b228 <floor1_unpack+0x1a8>
  14b0d8:	ae420000 	sw	v0,0(s2)
  14b0dc:	26550004 	addiu	s5,s2,4
  14b0e0:	2411ffff 	li	s1,-1
  14b0e4:	10000006 	b	14b100 <floor1_unpack+0x80>
  14b0e8:	0000a025 	move	s4,zero
  14b0ec:	8e430000 	lw	v1,0(s2)
  14b0f0:	0222882c 	max	s1,s1,v0
  14b0f4:	0283182a 	slt	v1,s4,v1
  14b0f8:	10600017 	beqz	v1,14b158 <floor1_unpack+0xd8>
  14b0fc:	26b50004 	addiu	s5,s5,4
  14b100:	24050004 	li	a1,4
  14b104:	0c054297 	jal	150a5c <oggpack_read>
  14b108:	02002025 	move	a0,s0
  14b10c:	26940001 	addiu	s4,s4,1
  14b110:	0441fff6 	bgez	v0,14b0ec <floor1_unpack+0x6c>
  14b114:	aea20000 	sw	v0,0(s5)
  14b118:	0c067e00 	jal	19f800 <free>
  14b11c:	02402025 	move	a0,s2
  14b120:	00009025 	move	s2,zero
  14b124:	8fbf0134 	lw	ra,308(sp)
  14b128:	8fbe0130 	lw	s8,304(sp)
  14b12c:	8fb7012c 	lw	s7,300(sp)
  14b130:	8fb60128 	lw	s6,296(sp)
  14b134:	8fb50124 	lw	s5,292(sp)
  14b138:	8fb40120 	lw	s4,288(sp)
  14b13c:	8fb3011c 	lw	s3,284(sp)
  14b140:	8fb10114 	lw	s1,276(sp)
  14b144:	8fb00110 	lw	s0,272(sp)
  14b148:	02401025 	move	v0,s2
  14b14c:	8fb20118 	lw	s2,280(sp)
  14b150:	03e00008 	jr	ra
  14b154:	27bd0138 	addiu	sp,sp,312
  14b158:	265e0080 	addiu	s8,s2,128
  14b15c:	0000a825 	move	s5,zero
  14b160:	24140001 	li	s4,1
  14b164:	24050003 	li	a1,3
  14b168:	0c054297 	jal	150a5c <oggpack_read>
--
  14b5a8:	00008025 	move	s0,zero
  14b5ac:	8fb60018 	lw	s6,24(sp)
  14b5b0:	8fb50014 	lw	s5,20(sp)
  14b5b4:	8fb40010 	lw	s4,16(sp)
  14b5b8:	8fb3000c 	lw	s3,12(sp)
  14b5bc:	8fb20008 	lw	s2,8(sp)
  14b5c0:	8fb10004 	lw	s1,4(sp)
  14b5c4:	02001025 	move	v0,s0
  14b5c8:	8fb00000 	lw	s0,0(sp)
  14b5cc:	03e00008 	jr	ra
  14b5d0:	27bd0020 	addiu	sp,sp,32

0014b5d4 <floor0_free_look>:
  14b5d4:	10800013 	beqz	a0,14b624 <floor0_free_look+0x50>
  14b5d8:	00000000 	nop
  14b5dc:	00801025 	move	v0,a0
  14b5e0:	8c84000c 	lw	a0,12(a0)
  14b5e4:	27bdfff0 	addiu	sp,sp,-16
  14b5e8:	10800004 	beqz	a0,14b5fc <floor0_free_look+0x28>
  14b5ec:	afbf000c 	sw	ra,12(sp)
  14b5f0:	0c067e00 	jal	19f800 <free>
  14b5f4:	afa20000 	sw	v0,0(sp)
  14b5f8:	8fa20000 	lw	v0,0(sp)
  14b5fc:	8c440014 	lw	a0,20(v0)
  14b600:	10800005 	beqz	a0,14b618 <floor0_free_look+0x44>
  14b604:	8fbf000c 	lw	ra,12(sp)
  14b608:	0c067e00 	jal	19f800 <free>
  14b60c:	afa20000 	sw	v0,0(sp)
  14b610:	8fa20000 	lw	v0,0(sp)
  14b614:	8fbf000c 	lw	ra,12(sp)
  14b618:	00402025 	move	a0,v0
  14b61c:	08067e00 	j	19f800 <free>
  14b620:	27bd0010 	addiu	sp,sp,16
  14b624:	03e00008 	jr	ra
  14b628:	00000000 	nop

0014b62c <floor0_free_info>:
  14b62c:	10800003 	beqz	a0,14b63c <floor0_free_info+0x10>
  14b630:	00000000 	nop
  14b634:	08067e00 	j	19f800 <free>
  14b638:	00000000 	nop
  14b63c:	03e00008 	jr	ra
  14b640:	00000000 	nop

0014b644 <floor0_unpack>:
  14b644:	27bdffe0 	addiu	sp,sp,-32
  14b648:	00801025 	move	v0,a0
--
  14b744:	8c620000 	lw	v0,0(v1)
  14b748:	8c43000c 	lw	v1,12(v0)
  14b74c:	10600011 	beqz	v1,14b794 <floor0_unpack+0x150>
  14b750:	00000000 	nop
  14b754:	8c420000 	lw	v0,0(v0)
  14b758:	1840000e 	blez	v0,14b794 <floor0_unpack+0x150>
  14b75c:	00000000 	nop
  14b760:	5674ffec 	bnel	s3,s4,14b714 <floor0_unpack+0xd0>
  14b764:	26940001 	addiu	s4,s4,1
  14b768:	8fbf001c 	lw	ra,28(sp)
  14b76c:	8fb60018 	lw	s6,24(sp)
  14b770:	8fb50014 	lw	s5,20(sp)
  14b774:	8fb40010 	lw	s4,16(sp)
  14b778:	8fb3000c 	lw	s3,12(sp)
  14b77c:	8fb10004 	lw	s1,4(sp)
  14b780:	8fb00000 	lw	s0,0(sp)
  14b784:	02401025 	move	v0,s2
  14b788:	8fb20008 	lw	s2,8(sp)
  14b78c:	03e00008 	jr	ra
  14b790:	27bd0020 	addiu	sp,sp,32
  14b794:	0c067e00 	jal	19f800 <free>
  14b798:	02402025 	move	a0,s2
  14b79c:	8fbf001c 	lw	ra,28(sp)
  14b7a0:	00009025 	move	s2,zero
  14b7a4:	8fb60018 	lw	s6,24(sp)
  14b7a8:	8fb50014 	lw	s5,20(sp)
  14b7ac:	8fb40010 	lw	s4,16(sp)
  14b7b0:	8fb3000c 	lw	s3,12(sp)
  14b7b4:	8fb10004 	lw	s1,4(sp)
  14b7b8:	8fb00000 	lw	s0,0(sp)
  14b7bc:	02401025 	move	v0,s2
  14b7c0:	8fb20008 	lw	s2,8(sp)
  14b7c4:	03e00008 	jr	ra
  14b7c8:	27bd0020 	addiu	sp,sp,32

0014b7cc <floor0_look>:
  14b7cc:	8c820004 	lw	v0,4(a0)
  14b7d0:	27bdffe8 	addiu	sp,sp,-24
  14b7d4:	24040001 	li	a0,1
  14b7d8:	afb00000 	sw	s0,0(sp)
  14b7dc:	00a08025 	move	s0,a1
--
  14c200:	12e00007 	beqz	s7,14c220 <res0_unpack+0x10c>
  14c204:	afd70000 	sw	s7,0(s8)
  14c208:	00002025 	move	a0,zero
  14c20c:	30620001 	andi	v0,v1,0x1
  14c210:	00031842 	srl	v1,v1,0x1
  14c214:	1460fffd 	bnez	v1,14c20c <res0_unpack+0xf8>
  14c218:	00442021 	addu	a0,v0,a0
  14c21c:	02248821 	addu	s1,s1,a0
  14c220:	12740022 	beq	s3,s4,14c2ac <res0_unpack+0x198>
  14c224:	27de0004 	addiu	s8,s8,4
  14c228:	24050003 	li	a1,3
  14c22c:	0c054297 	jal	150a5c <oggpack_read>
  14c230:	02002025 	move	a0,s0
  14c234:	24050001 	li	a1,1
  14c238:	02002025 	move	a0,s0
  14c23c:	26940001 	addiu	s4,s4,1
  14c240:	0c054297 	jal	150a5c <oggpack_read>
  14c244:	0040b825 	move	s7,v0
  14c248:	0441ffea 	bgez	v0,14c1f4 <res0_unpack+0xe0>
  14c24c:	00000000 	nop
  14c250:	0c067e00 	jal	19f800 <free>
  14c254:	02402025 	move	a0,s2
  14c258:	00009025 	move	s2,zero
  14c25c:	8fbf002c 	lw	ra,44(sp)
  14c260:	8fbe0028 	lw	s8,40(sp)
  14c264:	8fb70024 	lw	s7,36(sp)
  14c268:	8fb60020 	lw	s6,32(sp)
  14c26c:	8fb5001c 	lw	s5,28(sp)
  14c270:	8fb40018 	lw	s4,24(sp)
  14c274:	8fb30014 	lw	s3,20(sp)
  14c278:	8fb1000c 	lw	s1,12(sp)
  14c27c:	8fb00008 	lw	s0,8(sp)
  14c280:	02401025 	move	v0,s2
  14c284:	8fb20010 	lw	s2,16(sp)
  14c288:	03e00008 	jr	ra
  14c28c:	27bd0030 	addiu	sp,sp,48
  14c290:	0c054297 	jal	150a5c <oggpack_read>
  14c294:	02002025 	move	a0,s0
  14c298:	0440ffed 	bltz	v0,14c250 <res0_unpack+0x13c>
  14c29c:	00000000 	nop
  14c2a0:	000210c0 	sll	v0,v0,0x3
--
  14c9e0:	1000ffba 	b	14c8cc <res2_inverse+0x280>
  14c9e4:	02e0b025 	move	s6,s7

0014c9e8 <res0_free_look>:
  14c9e8:	1080002e 	beqz	a0,14caa4 <res0_free_look+0xbc>
  14c9ec:	00000000 	nop
  14c9f0:	8c830008 	lw	v1,8(a0)
  14c9f4:	27bdfff0 	addiu	sp,sp,-16
  14c9f8:	8c850018 	lw	a1,24(a0)
  14c9fc:	afb10008 	sw	s1,8(sp)
  14ca00:	afb00004 	sw	s0,4(sp)
  14ca04:	afbf000c 	sw	ra,12(sp)
  14ca08:	00808025 	move	s0,a0
  14ca0c:	1860000d 	blez	v1,14ca44 <res0_free_look+0x5c>
  14ca10:	00008825 	move	s1,zero
  14ca14:	00111080 	sll	v0,s1,0x2
  14ca18:	00a21021 	addu	v0,a1,v0
  14ca1c:	8c440000 	lw	a0,0(v0)
  14ca20:	10800005 	beqz	a0,14ca38 <res0_free_look+0x50>
  14ca24:	26310001 	addiu	s1,s1,1
  14ca28:	0c067e00 	jal	19f800 <free>
  14ca2c:	00000000 	nop
  14ca30:	8e030008 	lw	v1,8(s0)
  14ca34:	8e050018 	lw	a1,24(s0)
  14ca38:	0223102a 	slt	v0,s1,v1
  14ca3c:	1440fff6 	bnez	v0,14ca18 <res0_free_look+0x30>
  14ca40:	00111080 	sll	v0,s1,0x2
  14ca44:	0c067e00 	jal	19f800 <free>
  14ca48:	00a02025 	move	a0,a1
  14ca4c:	8e02001c 	lw	v0,28(s0)
  14ca50:	1840000c 	blez	v0,14ca84 <res0_free_look+0x9c>
  14ca54:	00000000 	nop
  14ca58:	00008825 	move	s1,zero
  14ca5c:	8e020020 	lw	v0,32(s0)
  14ca60:	00111880 	sll	v1,s1,0x2
  14ca64:	26310001 	addiu	s1,s1,1
  14ca68:	00431021 	addu	v0,v0,v1
  14ca6c:	0c067e00 	jal	19f800 <free>
  14ca70:	8c440000 	lw	a0,0(v0)
  14ca74:	8e02001c 	lw	v0,28(s0)
  14ca78:	0222102a 	slt	v0,s1,v0
  14ca7c:	5440fff8 	bnezl	v0,14ca60 <res0_free_look+0x78>
  14ca80:	8e020020 	lw	v0,32(s0)
  14ca84:	0c067e00 	jal	19f800 <free>
  14ca88:	8e040020 	lw	a0,32(s0)
  14ca8c:	8fbf000c 	lw	ra,12(sp)
  14ca90:	8fb10008 	lw	s1,8(sp)
  14ca94:	02002025 	move	a0,s0
  14ca98:	8fb00004 	lw	s0,4(sp)
  14ca9c:	08067e00 	j	19f800 <free>
  14caa0:	27bd0010 	addiu	sp,sp,16
  14caa4:	03e00008 	jr	ra
  14caa8:	00000000 	nop

0014caac <_01inverse.isra.0>:
  14caac:	27bdffa0 	addiu	sp,sp,-96
  14cab0:	afb40048 	sw	s4,72(sp)
  14cab4:	8cb40000 	lw	s4,0(a1)
  14cab8:	8c820024 	lw	v0,36(a0)
  14cabc:	afbe0058 	sw	s8,88(sp)
  14cac0:	8e890004 	lw	t1,4(s4)
  14cac4:	8e830000 	lw	v1,0(s4)
  14cac8:	00021043 	sra	v0,v0,0x1
  14cacc:	0049102d 	min	v0,v0,t1
--
  14d760:	0002280a 	movz	a1,zero,v0
  14d764:	02e21825 	or	v1,s7,v0
  14d768:	04600011 	bltz	v1,14d7b0 <mapping0_unpack+0x140>
  14d76c:	ae220400 	sw	v0,1024(s1)
  14d770:	12e2000f 	beq	s7,v0,14d7b0 <mapping0_unpack+0x140>
  14d774:	00000000 	nop
  14d778:	8e430004 	lw	v1,4(s2)
  14d77c:	26310004 	addiu	s1,s1,4
  14d780:	02e3b82a 	slt	s7,s7,v1
  14d784:	12e0000a 	beqz	s7,14d7b0 <mapping0_unpack+0x140>
  14d788:	0043102a 	slt	v0,v0,v1
  14d78c:	10400008 	beqz	v0,14d7b0 <mapping0_unpack+0x140>
  14d790:	00000000 	nop
  14d794:	56deffe2 	bnel	s6,s8,14d720 <mapping0_unpack+0xb0>
  14d798:	27de0001 	addiu	s8,s8,1
  14d79c:	24050002 	li	a1,2
  14d7a0:	0c054297 	jal	150a5c <oggpack_read>
  14d7a4:	02002025 	move	a0,s0
  14d7a8:	50400016 	beqzl	v0,14d804 <mapping0_unpack+0x194>
  14d7ac:	8e710000 	lw	s1,0(s3)
  14d7b0:	0c067e00 	jal	19f800 <free>
  14d7b4:	02602025 	move	a0,s3
  14d7b8:	00009825 	move	s3,zero
  14d7bc:	8fbf0024 	lw	ra,36(sp)
  14d7c0:	8fbe0020 	lw	s8,32(sp)
  14d7c4:	8fb7001c 	lw	s7,28(sp)
  14d7c8:	8fb60018 	lw	s6,24(sp)
  14d7cc:	8fb50014 	lw	s5,20(sp)
  14d7d0:	8fb40010 	lw	s4,16(sp)
  14d7d4:	8fb20008 	lw	s2,8(sp)
  14d7d8:	8fb10004 	lw	s1,4(sp)
  14d7dc:	8fb00000 	lw	s0,0(sp)
  14d7e0:	02601025 	move	v0,s3
  14d7e4:	8fb3000c 	lw	s3,12(sp)
  14d7e8:	03e00008 	jr	ra
  14d7ec:	27bd0028 	addiu	sp,sp,40
  14d7f0:	0c054297 	jal	150a5c <oggpack_read>
  14d7f4:	02002025 	move	a0,s0
  14d7f8:	1440003d 	bnez	v0,14d8f0 <mapping0_unpack+0x280>
  14d7fc:	00000000 	nop
  14d800:	8e710000 	lw	s1,0(s3)
--
  14d960:	8c630000 	lw	v1,0(v1)
  14d964:	00511021 	addu	v0,v0,s1
  14d968:	8c440000 	lw	a0,0(v0)
  14d96c:	8c62000c 	lw	v0,12(v1)
  14d970:	0040f809 	jalr	v0
  14d974:	26520001 	addiu	s2,s2,1
  14d978:	8e030014 	lw	v1,20(s0)
  14d97c:	8e02000c 	lw	v0,12(s0)
  14d980:	00711821 	addu	v1,v1,s1
  14d984:	8c630000 	lw	v1,0(v1)
  14d988:	00511021 	addu	v0,v0,s1
  14d98c:	8c440000 	lw	a0,0(v0)
  14d990:	8c62000c 	lw	v0,12(v1)
  14d994:	0040f809 	jalr	v0
  14d998:	00000000 	nop
  14d99c:	8e020004 	lw	v0,4(s0)
  14d9a0:	8c420000 	lw	v0,0(v0)
  14d9a4:	0242102a 	slt	v0,s2,v0
  14d9a8:	5440ffea 	bnezl	v0,14d954 <mapping0_free_look+0x34>
  14d9ac:	8e030010 	lw	v1,16(s0)
  14d9b0:	0c067e00 	jal	19f800 <free>
  14d9b4:	8e040010 	lw	a0,16(s0)
  14d9b8:	0c067e00 	jal	19f800 <free>
  14d9bc:	8e040014 	lw	a0,20(s0)
  14d9c0:	0c067e00 	jal	19f800 <free>
  14d9c4:	8e040008 	lw	a0,8(s0)
  14d9c8:	0c067e00 	jal	19f800 <free>
  14d9cc:	8e04000c 	lw	a0,12(s0)
  14d9d0:	8fbf000c 	lw	ra,12(sp)
  14d9d4:	8fb20008 	lw	s2,8(sp)
  14d9d8:	8fb10004 	lw	s1,4(sp)
  14d9dc:	02002025 	move	a0,s0
  14d9e0:	8fb00000 	lw	s0,0(sp)
  14d9e4:	08067e00 	j	19f800 <free>
  14d9e8:	27bd0010 	addiu	sp,sp,16
  14d9ec:	03e00008 	jr	ra
  14d9f0:	00000000 	nop

0014d9f4 <mdct_butterfly_16>:
  14d9f4:	8c820000 	lw	v0,0(a0)
  14d9f8:	8c8e0020 	lw	t6,32(a0)
  14d9fc:	8c8d0024 	lw	t5,36(a0)
  14da00:	8c850010 	lw	a1,16(a0)
  14da04:	004e1823 	subu	v1,v0,t6
  14da08:	8c820004 	lw	v0,4(a0)
  14da0c:	8c860014 	lw	a2,20(a0)
  14da10:	27bdfff0 	addiu	sp,sp,-16
--
  14f770:	2cc20021 	sltiu	v0,a2,33
  14f774:	00801825 	move	v1,a0
  14f778:	1040000e 	beqz	v0,14f7b4 <oggpack_write+0x48>
  14f77c:	afbf0014 	sw	ra,20(sp)
  14f780:	00a04025 	move	t0,a1
  14f784:	8c850010 	lw	a1,16(a0)
  14f788:	8c840000 	lw	a0,0(a0)
  14f78c:	24a7fffc 	addiu	a3,a1,-4
  14f790:	0087202a 	slt	a0,a0,a3
  14f794:	14800023 	bnez	a0,14f824 <oggpack_write+0xb8>
  14f798:	8c62000c 	lw	v0,12(v1)
  14f79c:	1040005c 	beqz	v0,14f910 <oggpack_write+0x1a4>
  14f7a0:	3c027fff 	lui	v0,0x7fff
  14f7a4:	3442ff00 	ori	v0,v0,0xff00
  14f7a8:	00a2102a 	slt	v0,a1,v0
  14f7ac:	5440000d 	bnezl	v0,14f7e4 <oggpack_write+0x78>
  14f7b0:	8c640008 	lw	a0,8(v1)
  14f7b4:	8c640008 	lw	a0,8(v1)
  14f7b8:	50800005 	beqzl	a0,14f7d0 <oggpack_write+0x64>
  14f7bc:	8fbf0014 	lw	ra,20(sp)
  14f7c0:	0c067e00 	jal	19f800 <free>
  14f7c4:	afa30000 	sw	v1,0(sp)
  14f7c8:	8fa30000 	lw	v1,0(sp)
  14f7cc:	8fbf0014 	lw	ra,20(sp)
  14f7d0:	24060014 	li	a2,20
  14f7d4:	00002825 	move	a1,zero
  14f7d8:	00602025 	move	a0,v1
  14f7dc:	08067a05 	j	19e814 <memset>
  14f7e0:	27bd0018 	addiu	sp,sp,24
  14f7e4:	24a50100 	addiu	a1,a1,256
  14f7e8:	afa30000 	sw	v1,0(sp)
  14f7ec:	afa80004 	sw	t0,4(sp)
  14f7f0:	0c068119 	jal	1a0464 <realloc>
  14f7f4:	afa60008 	sw	a2,8(sp)
  14f7f8:	1040ffee 	beqz	v0,14f7b4 <oggpack_write+0x48>
  14f7fc:	8fa30000 	lw	v1,0(sp)
  14f800:	8c640010 	lw	a0,16(v1)
  14f804:	8c650000 	lw	a1,0(v1)
  14f808:	8fa60008 	lw	a2,8(sp)
  14f80c:	8fa80004 	lw	t0,4(sp)
  14f810:	ac620008 	sw	v0,8(v1)
--
  14f928:	2cc20021 	sltiu	v0,a2,33
  14f92c:	00801825 	move	v1,a0
  14f930:	1040000e 	beqz	v0,14f96c <oggpackB_write+0x48>
  14f934:	afbf0014 	sw	ra,20(sp)
  14f938:	00a03825 	move	a3,a1
  14f93c:	8c850010 	lw	a1,16(a0)
  14f940:	8c840000 	lw	a0,0(a0)
  14f944:	24a8fffc 	addiu	t0,a1,-4
  14f948:	0088202a 	slt	a0,a0,t0
  14f94c:	14800023 	bnez	a0,14f9dc <oggpackB_write+0xb8>
  14f950:	8c62000c 	lw	v0,12(v1)
  14f954:	1040005b 	beqz	v0,14fac4 <oggpackB_write+0x1a0>
  14f958:	3c027fff 	lui	v0,0x7fff
  14f95c:	3442ff00 	ori	v0,v0,0xff00
  14f960:	00a2102a 	slt	v0,a1,v0
  14f964:	5440000d 	bnezl	v0,14f99c <oggpackB_write+0x78>
  14f968:	8c640008 	lw	a0,8(v1)
  14f96c:	8c640008 	lw	a0,8(v1)
  14f970:	50800005 	beqzl	a0,14f988 <oggpackB_write+0x64>
  14f974:	8fbf0014 	lw	ra,20(sp)
  14f978:	0c067e00 	jal	19f800 <free>
  14f97c:	afa30000 	sw	v1,0(sp)
  14f980:	8fa30000 	lw	v1,0(sp)
  14f984:	8fbf0014 	lw	ra,20(sp)
  14f988:	24060014 	li	a2,20
  14f98c:	00002825 	move	a1,zero
  14f990:	00602025 	move	a0,v1
  14f994:	08067a05 	j	19e814 <memset>
  14f998:	27bd0018 	addiu	sp,sp,24
  14f99c:	24a50100 	addiu	a1,a1,256
  14f9a0:	afa30000 	sw	v1,0(sp)
  14f9a4:	afa70004 	sw	a3,4(sp)
  14f9a8:	0c068119 	jal	1a0464 <realloc>
  14f9ac:	afa60008 	sw	a2,8(sp)
  14f9b0:	1040ffee 	beqz	v0,14f96c <oggpackB_write+0x48>
  14f9b4:	8fa30000 	lw	v1,0(sp)
  14f9b8:	8c640010 	lw	a0,16(v1)
  14f9bc:	8c650000 	lw	a1,0(v1)
  14f9c0:	8fa60008 	lw	a2,8(sp)
  14f9c4:	8fa70004 	lw	a3,4(sp)
  14f9c8:	ac620008 	sw	v0,8(v1)
--
  14fd40:	a0800004 	sb	zero,4(a0)
  14fd44:	8c670000 	lw	a3,0(v1)
  14fd48:	10000006 	b	14fd64 <oggpack_writealign+0x114>
  14fd4c:	8c64000c 	lw	a0,12(v1)
  14fd50:	8c64000c 	lw	a0,12(v1)
  14fd54:	24050001 	li	a1,1
  14fd58:	24080001 	li	t0,1
  14fd5c:	00001025 	move	v0,zero
  14fd60:	8c670000 	lw	a3,0(v1)
  14fd64:	00a72821 	addu	a1,a1,a3
  14fd68:	00882021 	addu	a0,a0,t0
  14fd6c:	ac650000 	sw	a1,0(v1)
  14fd70:	ac64000c 	sw	a0,12(v1)
  14fd74:	ac620004 	sw	v0,4(v1)
  14fd78:	8fbf000c 	lw	ra,12(sp)
  14fd7c:	03e00008 	jr	ra
  14fd80:	27bd0010 	addiu	sp,sp,16
  14fd84:	8c640008 	lw	a0,8(v1)
  14fd88:	10800005 	beqz	a0,14fda0 <oggpack_writealign+0x150>
  14fd8c:	8fbf000c 	lw	ra,12(sp)
  14fd90:	0c067e00 	jal	19f800 <free>
  14fd94:	afa30000 	sw	v1,0(sp)
  14fd98:	8fa30000 	lw	v1,0(sp)
  14fd9c:	8fbf000c 	lw	ra,12(sp)
  14fda0:	24060014 	li	a2,20
  14fda4:	00002825 	move	a1,zero
  14fda8:	00602025 	move	a0,v1
  14fdac:	08067a05 	j	19e814 <memset>
  14fdb0:	27bd0010 	addiu	sp,sp,16

0014fdb4 <oggpackB_writealign>:
  14fdb4:	8c820004 	lw	v0,4(a0)
  14fdb8:	5c400003 	bgtzl	v0,14fdc8 <oggpackB_writealign+0x14>
  14fdbc:	24060008 	li	a2,8
  14fdc0:	03e00008 	jr	ra
  14fdc4:	00000000 	nop
  14fdc8:	00c23023 	subu	a2,a2,v0
  14fdcc:	27bdfff0 	addiu	sp,sp,-16
  14fdd0:	2cc20021 	sltiu	v0,a2,33
  14fdd4:	00801825 	move	v1,a0
  14fdd8:	10400043 	beqz	v0,14fee8 <oggpackB_writealign+0x134>
--
  14fea4:	a0800004 	sb	zero,4(a0)
  14fea8:	8c670000 	lw	a3,0(v1)
  14feac:	10000006 	b	14fec8 <oggpackB_writealign+0x114>
  14feb0:	8c64000c 	lw	a0,12(v1)
  14feb4:	8c64000c 	lw	a0,12(v1)
  14feb8:	24050001 	li	a1,1
  14febc:	24080001 	li	t0,1
  14fec0:	00001025 	move	v0,zero
  14fec4:	8c670000 	lw	a3,0(v1)
  14fec8:	00a72821 	addu	a1,a1,a3
  14fecc:	00882021 	addu	a0,a0,t0
  14fed0:	ac650000 	sw	a1,0(v1)
  14fed4:	ac64000c 	sw	a0,12(v1)
  14fed8:	ac620004 	sw	v0,4(v1)
  14fedc:	8fbf000c 	lw	ra,12(sp)
  14fee0:	03e00008 	jr	ra
  14fee4:	27bd0010 	addiu	sp,sp,16
  14fee8:	8c640008 	lw	a0,8(v1)
  14feec:	10800005 	beqz	a0,14ff04 <oggpackB_writealign+0x150>
  14fef0:	8fbf000c 	lw	ra,12(sp)
  14fef4:	0c067e00 	jal	19f800 <free>
  14fef8:	afa30000 	sw	v1,0(sp)
  14fefc:	8fa30000 	lw	v1,0(sp)
  14ff00:	8fbf000c 	lw	ra,12(sp)
  14ff04:	24060014 	li	a2,20
  14ff08:	00002825 	move	a1,zero
  14ff0c:	00602025 	move	a0,v1
  14ff10:	08067a05 	j	19e814 <memset>
  14ff14:	27bd0010 	addiu	sp,sp,16

0014ff18 <oggpack_writecopy>:
  14ff18:	8c870004 	lw	a3,4(a0)
  14ff1c:	27bdffd8 	addiu	sp,sp,-40
  14ff20:	afb6001c 	sw	s6,28(sp)
  14ff24:	00c0b025 	move	s6,a2
  14ff28:	afb00004 	sw	s0,4(sp)
  14ff2c:	8c860000 	lw	a2,0(a0)
  14ff30:	00808025 	move	s0,a0
  14ff34:	02c72021 	addu	a0,s6,a3
  14ff38:	24820007 	addiu	v0,a0,7
  14ff3c:	28880000 	slti	t0,a0,0
--
  15012c:	00063742 	srl	a2,a2,0x1d
  150130:	02c6b021 	addu	s6,s6,a2
  150134:	02358821 	addu	s1,s1,s5
  150138:	32d60007 	andi	s6,s6,0x7
  15013c:	92250000 	lbu	a1,0(s1)
  150140:	8fbf0024 	lw	ra,36(sp)
  150144:	8fb70020 	lw	s7,32(sp)
  150148:	8fb50018 	lw	s5,24(sp)
  15014c:	8fb40014 	lw	s4,20(sp)
  150150:	8fb30010 	lw	s3,16(sp)
  150154:	8fb2000c 	lw	s2,12(sp)
  150158:	8fb10008 	lw	s1,8(sp)
  15015c:	02c63023 	subu	a2,s6,a2
  150160:	02002025 	move	a0,s0
  150164:	8fb6001c 	lw	s6,28(sp)
  150168:	8fb00004 	lw	s0,4(sp)
  15016c:	08053ddb 	j	14f76c <oggpack_write>
  150170:	27bd0028 	addiu	sp,sp,40
  150174:	10800004 	beqz	a0,150188 <oggpack_writecopy+0x270>
  150178:	24060014 	li	a2,20
  15017c:	0c067e00 	jal	19f800 <free>
  150180:	00000000 	nop
  150184:	24060014 	li	a2,20
  150188:	00002825 	move	a1,zero
  15018c:	0c067a05 	jal	19e814 <memset>
  150190:	02002025 	move	a0,s0
  150194:	00001025 	move	v0,zero
  150198:	1000ffdc 	b	15010c <oggpack_writecopy+0x1f4>
  15019c:	00003025 	move	a2,zero
  1501a0:	8fb70020 	lw	s7,32(sp)
  1501a4:	8fb6001c 	lw	s6,28(sp)
  1501a8:	8fb50018 	lw	s5,24(sp)
  1501ac:	8fb40014 	lw	s4,20(sp)
  1501b0:	8fb30010 	lw	s3,16(sp)
  1501b4:	8fb2000c 	lw	s2,12(sp)
  1501b8:	8fb10008 	lw	s1,8(sp)
  1501bc:	8fb00004 	lw	s0,4(sp)
  1501c0:	03e00008 	jr	ra
  1501c4:	27bd0028 	addiu	sp,sp,40
  1501c8:	8e04000c 	lw	a0,12(s0)
  1501cc:	02a03025 	move	a2,s5
  1501d0:	0c069598 	jal	1a5660 <memmove>
  1501d4:	02202825 	move	a1,s1
  1501d8:	8e02000c 	lw	v0,12(s0)
  1501dc:	8e030000 	lw	v1,0(s0)
  1501e0:	00551021 	addu	v0,v0,s5
  1501e4:	00751821 	addu	v1,v1,s5
  1501e8:	ae02000c 	sw	v0,12(s0)
  1501ec:	ae030000 	sw	v1,0(s0)
  1501f0:	a0400000 	sb	zero,0(v0)
  1501f4:	32c20007 	andi	v0,s6,0x7
  1501f8:	1040ffe9 	beqz	v0,1501a0 <oggpack_writecopy+0x288>
  1501fc:	8fbf0024 	lw	ra,36(sp)
  150200:	1000ffca 	b	15012c <oggpack_writecopy+0x214>
  150204:	001637c3 	sra	a2,s6,0x1f
  150208:	8e040008 	lw	a0,8(s0)
  15020c:	10800004 	beqz	a0,150220 <oggpack_writecopy+0x308>
  150210:	8fbf0024 	lw	ra,36(sp)
  150214:	0c067e00 	jal	19f800 <free>
  150218:	00000000 	nop
  15021c:	8fbf0024 	lw	ra,36(sp)
  150220:	8fb70020 	lw	s7,32(sp)
  150224:	8fb6001c 	lw	s6,28(sp)
  150228:	8fb50018 	lw	s5,24(sp)
  15022c:	8fb40014 	lw	s4,20(sp)
  150230:	8fb30010 	lw	s3,16(sp)
  150234:	8fb2000c 	lw	s2,12(sp)
  150238:	8fb10008 	lw	s1,8(sp)
  15023c:	02002025 	move	a0,s0
  150240:	8fb00004 	lw	s0,4(sp)
  150244:	24060014 	li	a2,20
  150248:	00002825 	move	a1,zero
  15024c:	08067a05 	j	19e814 <memset>
  150250:	27bd0028 	addiu	sp,sp,40
  150254:	1000ffa1 	b	1500dc <oggpack_writecopy+0x1c4>
  150258:	a0800004 	sb	zero,4(a0)

0015025c <oggpackB_writecopy>:
  15025c:	8c870004 	lw	a3,4(a0)
--
  150458:	02348821 	addu	s1,s1,s4
  15045c:	92250000 	lbu	a1,0(s1)
  150460:	30c60007 	andi	a2,a2,0x7
  150464:	8fbf001c 	lw	ra,28(sp)
  150468:	8fb60018 	lw	s6,24(sp)
  15046c:	8fb50014 	lw	s5,20(sp)
  150470:	8fb40010 	lw	s4,16(sp)
  150474:	8fb3000c 	lw	s3,12(sp)
  150478:	8fb20008 	lw	s2,8(sp)
  15047c:	8fb10004 	lw	s1,4(sp)
  150480:	00c23023 	subu	a2,a2,v0
  150484:	02002025 	move	a0,s0
  150488:	24020008 	li	v0,8
  15048c:	8fb00000 	lw	s0,0(sp)
  150490:	00461023 	subu	v0,v0,a2
  150494:	00452807 	srav	a1,a1,v0
  150498:	08053e49 	j	14f924 <oggpackB_write>
  15049c:	27bd0020 	addiu	sp,sp,32
  1504a0:	10800004 	beqz	a0,1504b4 <oggpackB_writecopy+0x258>
  1504a4:	24060014 	li	a2,20
  1504a8:	0c067e00 	jal	19f800 <free>
  1504ac:	00000000 	nop
  1504b0:	24060014 	li	a2,20
  1504b4:	00002825 	move	a1,zero
  1504b8:	0c067a05 	jal	19e814 <memset>
  1504bc:	02002025 	move	a0,s0
  1504c0:	00001025 	move	v0,zero
  1504c4:	1000ffda 	b	150430 <oggpackB_writecopy+0x1d4>
  1504c8:	00003025 	move	a2,zero
  1504cc:	8fb60018 	lw	s6,24(sp)
  1504d0:	8fb50014 	lw	s5,20(sp)
  1504d4:	8fb40010 	lw	s4,16(sp)
  1504d8:	8fb3000c 	lw	s3,12(sp)
  1504dc:	8fb20008 	lw	s2,8(sp)
  1504e0:	8fb10004 	lw	s1,4(sp)
  1504e4:	8fb00000 	lw	s0,0(sp)
  1504e8:	03e00008 	jr	ra
  1504ec:	27bd0020 	addiu	sp,sp,32
  1504f0:	8e04000c 	lw	a0,12(s0)
  1504f4:	02803025 	move	a2,s4
  1504f8:	0c069598 	jal	1a5660 <memmove>
  1504fc:	02202825 	move	a1,s1
  150500:	8e02000c 	lw	v0,12(s0)
  150504:	8e030000 	lw	v1,0(s0)
  150508:	00541021 	addu	v0,v0,s4
  15050c:	00741821 	addu	v1,v1,s4
  150510:	ae02000c 	sw	v0,12(s0)
  150514:	ae030000 	sw	v1,0(s0)
  150518:	a0400000 	sb	zero,0(v0)
  15051c:	32a20007 	andi	v0,s5,0x7
  150520:	1040ffea 	beqz	v0,1504cc <oggpackB_writecopy+0x270>
  150524:	8fbf001c 	lw	ra,28(sp)
  150528:	1000ffc9 	b	150450 <oggpackB_writecopy+0x1f4>
  15052c:	001517c3 	sra	v0,s5,0x1f
  150530:	8e040008 	lw	a0,8(s0)
  150534:	10800004 	beqz	a0,150548 <oggpackB_writecopy+0x2ec>
  150538:	8fbf001c 	lw	ra,28(sp)
  15053c:	0c067e00 	jal	19f800 <free>
  150540:	00000000 	nop
  150544:	8fbf001c 	lw	ra,28(sp)
  150548:	8fb60018 	lw	s6,24(sp)
  15054c:	8fb50014 	lw	s5,20(sp)
  150550:	8fb40010 	lw	s4,16(sp)
  150554:	8fb3000c 	lw	s3,12(sp)
  150558:	8fb20008 	lw	s2,8(sp)
  15055c:	8fb10004 	lw	s1,4(sp)
  150560:	02002025 	move	a0,s0
  150564:	8fb00000 	lw	s0,0(sp)
  150568:	24060014 	li	a2,20
  15056c:	00002825 	move	a1,zero
  150570:	08067a05 	j	19e814 <memset>
  150574:	27bd0020 	addiu	sp,sp,32

00150578 <oggpack_reset>:
  150578:	8c82000c 	lw	v0,12(a0)
  15057c:	10400006 	beqz	v0,150598 <oggpack_reset+0x20>
  150580:	00000000 	nop
  150584:	8c820008 	lw	v0,8(a0)
--

001505a0 <oggpackB_reset>:
  1505a0:	8c82000c 	lw	v0,12(a0)
  1505a4:	10400006 	beqz	v0,1505c0 <oggpackB_reset+0x20>
  1505a8:	00000000 	nop
  1505ac:	8c820008 	lw	v0,8(a0)
  1505b0:	ac82000c 	sw	v0,12(a0)
  1505b4:	a0400000 	sb	zero,0(v0)
  1505b8:	ac800000 	sw	zero,0(a0)
  1505bc:	ac800004 	sw	zero,4(a0)
  1505c0:	03e00008 	jr	ra
  1505c4:	00000000 	nop

001505c8 <oggpack_writeclear>:
  1505c8:	00801025 	move	v0,a0
  1505cc:	8c840008 	lw	a0,8(a0)
  1505d0:	1080000c 	beqz	a0,150604 <oggpack_writeclear+0x3c>
  1505d4:	24060014 	li	a2,20
  1505d8:	27bdfff0 	addiu	sp,sp,-16
  1505dc:	afbf000c 	sw	ra,12(sp)
  1505e0:	0c067e00 	jal	19f800 <free>
  1505e4:	afa20000 	sw	v0,0(sp)
  1505e8:	8fa20000 	lw	v0,0(sp)
  1505ec:	8fbf000c 	lw	ra,12(sp)
  1505f0:	24060014 	li	a2,20
  1505f4:	00002825 	move	a1,zero
  1505f8:	00402025 	move	a0,v0
  1505fc:	08067a05 	j	19e814 <memset>
  150600:	27bd0010 	addiu	sp,sp,16
  150604:	00002825 	move	a1,zero
  150608:	08067a05 	j	19e814 <memset>
  15060c:	00402025 	move	a0,v0

00150610 <oggpackB_writeclear>:
  150610:	00801025 	move	v0,a0
  150614:	8c840008 	lw	a0,8(a0)
  150618:	1080000c 	beqz	a0,15064c <oggpackB_writeclear+0x3c>
  15061c:	24060014 	li	a2,20
  150620:	27bdfff0 	addiu	sp,sp,-16
  150624:	afbf000c 	sw	ra,12(sp)
  150628:	0c067e00 	jal	19f800 <free>
  15062c:	afa20000 	sw	v0,0(sp)
  150630:	8fa20000 	lw	v0,0(sp)
  150634:	8fbf000c 	lw	ra,12(sp)
  150638:	24060014 	li	a2,20
  15063c:	00002825 	move	a1,zero
  150640:	00402025 	move	a0,v0
  150644:	08067a05 	j	19e814 <memset>
  150648:	27bd0010 	addiu	sp,sp,16
  15064c:	00002825 	move	a1,zero
  150650:	08067a05 	j	19e814 <memset>
  150654:	00402025 	move	a0,v0

00150658 <oggpack_readinit>:
  150658:	27bdfff0 	addiu	sp,sp,-16
  15065c:	afb10008 	sw	s1,8(sp)
  150660:	afb00004 	sw	s0,4(sp)
  150664:	00c08825 	move	s1,a2
  150668:	00a08025 	move	s0,a1
  15066c:	24060014 	li	a2,20
  150670:	afbf000c 	sw	ra,12(sp)
--
  151530:	0c067dfc 	jal	19f7f0 <malloc>
  151534:	00409025 	move	s2,v0
  151538:	1260000d 	beqz	s3,151570 <ogg_stream_init+0xa4>
  15153c:	ae020014 	sw	v0,20(s0)
  151540:	12400021 	beqz	s2,1515c8 <ogg_stream_init+0xfc>
  151544:	02602025 	move	a0,s3
  151548:	10400015 	beqz	v0,1515a0 <ogg_stream_init+0xd4>
  15154c:	00001025 	move	v0,zero
  151550:	ae110150 	sw	s1,336(s0)
  151554:	8fbf001c 	lw	ra,28(sp)
  151558:	8fb30018 	lw	s3,24(sp)
  15155c:	8fb20014 	lw	s2,20(sp)
  151560:	8fb10010 	lw	s1,16(sp)
  151564:	8fb0000c 	lw	s0,12(sp)
  151568:	03e00008 	jr	ra
  15156c:	27bd0020 	addiu	sp,sp,32
  151570:	16400011 	bnez	s2,1515b8 <ogg_stream_init+0xec>
  151574:	02402025 	move	a0,s2
  151578:	10400004 	beqz	v0,15158c <ogg_stream_init+0xc0>
  15157c:	24060168 	li	a2,360
  151580:	0c067e00 	jal	19f800 <free>
  151584:	00402025 	move	a0,v0
  151588:	24060168 	li	a2,360
  15158c:	00002825 	move	a1,zero
  151590:	0c067a05 	jal	19e814 <memset>
  151594:	02002025 	move	a0,s0
  151598:	1000ffee 	b	151554 <ogg_stream_init+0x88>
  15159c:	2402ffff 	li	v0,-1
  1515a0:	0c067e00 	jal	19f800 <free>
  1515a4:	02602025 	move	a0,s3
  1515a8:	0c067e00 	jal	19f800 <free>
  1515ac:	02402025 	move	a0,s2
  1515b0:	1000fff6 	b	15158c <ogg_stream_init+0xc0>
  1515b4:	24060168 	li	a2,360
  1515b8:	0c067e00 	jal	19f800 <free>
  1515bc:	afa20000 	sw	v0,0(sp)
  1515c0:	1000ffed 	b	151578 <ogg_stream_init+0xac>
  1515c4:	8fa20000 	lw	v0,0(sp)
  1515c8:	0c067e00 	jal	19f800 <free>
  1515cc:	afa20000 	sw	v0,0(sp)
  1515d0:	1000ffe9 	b	151578 <ogg_stream_init+0xac>
  1515d4:	8fa20000 	lw	v0,0(sp)
  1515d8:	03e00008 	jr	ra
  1515dc:	2402ffff 	li	v0,-1

001515e0 <ogg_stream_check>:
  1515e0:	10800005 	beqz	a0,1515f8 <ogg_stream_check+0x18>
  1515e4:	00000000 	nop
  1515e8:	8c820000 	lw	v0,0(a0)
  1515ec:	2c420001 	sltiu	v0,v0,1
  1515f0:	03e00008 	jr	ra
  1515f4:	00021023 	negu	v0,v0
  1515f8:	03e00008 	jr	ra
  1515fc:	2402ffff 	li	v0,-1

00151600 <ogg_stream_clear>:
  151600:	1080001c 	beqz	a0,151674 <ogg_stream_clear+0x74>
  151604:	00000000 	nop
  151608:	27bdfff8 	addiu	sp,sp,-8
  15160c:	afb00000 	sw	s0,0(sp)
  151610:	00808025 	move	s0,a0
  151614:	8c840000 	lw	a0,0(a0)
  151618:	10800003 	beqz	a0,151628 <ogg_stream_clear+0x28>
  15161c:	afbf0004 	sw	ra,4(sp)
  151620:	0c067e00 	jal	19f800 <free>
  151624:	00000000 	nop
  151628:	8e040010 	lw	a0,16(s0)
  15162c:	50800004 	beqzl	a0,151640 <ogg_stream_clear+0x40>
  151630:	8e040014 	lw	a0,20(s0)
  151634:	0c067e00 	jal	19f800 <free>
  151638:	00000000 	nop
  15163c:	8e040014 	lw	a0,20(s0)
  151640:	50800004 	beqzl	a0,151654 <ogg_stream_clear+0x54>
  151644:	02002025 	move	a0,s0
  151648:	0c067e00 	jal	19f800 <free>
  15164c:	00000000 	nop
  151650:	02002025 	move	a0,s0
  151654:	24060168 	li	a2,360
  151658:	0c067a05 	jal	19e814 <memset>
  15165c:	00002825 	move	a1,zero
  151660:	8fbf0004 	lw	ra,4(sp)
  151664:	8fb00000 	lw	s0,0(sp)
  151668:	00001025 	move	v0,zero
  15166c:	03e00008 	jr	ra
  151670:	27bd0008 	addiu	sp,sp,8
  151674:	03e00008 	jr	ra
  151678:	00001025 	move	v0,zero

0015167c <_os_lacing_expand>:
  15167c:	27bdfff0 	addiu	sp,sp,-16
  151680:	afb00004 	sw	s0,4(sp)
  151684:	8c900018 	lw	s0,24(a0)
  151688:	8c83001c 	lw	v1,28(a0)
  15168c:	afbf000c 	sw	ra,12(sp)
  151690:	02051023 	subu	v0,s0,a1
--
  1516d8:	0202102a 	slt	v0,s0,v0
  1516dc:	26030020 	addiu	v1,s0,32
  1516e0:	8c840010 	lw	a0,16(a0)
  1516e4:	0062800b 	movn	s0,v1,v0
  1516e8:	0c068119 	jal	1a0464 <realloc>
  1516ec:	00102880 	sll	a1,s0,0x2
  1516f0:	1040001f 	beqz	v0,151770 <_os_lacing_expand+0xf4>
  1516f4:	00000000 	nop
  1516f8:	8e240014 	lw	a0,20(s1)
  1516fc:	ae220010 	sw	v0,16(s1)
  151700:	0c068119 	jal	1a0464 <realloc>
  151704:	001028c0 	sll	a1,s0,0x3
  151708:	10400019 	beqz	v0,151770 <_os_lacing_expand+0xf4>
  15170c:	00000000 	nop
  151710:	ae220014 	sw	v0,20(s1)
  151714:	1000ffe2 	b	1516a0 <_os_lacing_expand+0x24>
  151718:	ae300018 	sw	s0,24(s1)
  15171c:	8c840000 	lw	a0,0(a0)
  151720:	50800004 	beqzl	a0,151734 <_os_lacing_expand+0xb8>
  151724:	8e240010 	lw	a0,16(s1)
  151728:	0c067e00 	jal	19f800 <free>
  15172c:	00000000 	nop
  151730:	8e240010 	lw	a0,16(s1)
  151734:	50800004 	beqzl	a0,151748 <_os_lacing_expand+0xcc>
  151738:	8e240014 	lw	a0,20(s1)
  15173c:	0c067e00 	jal	19f800 <free>
  151740:	00000000 	nop
  151744:	8e240014 	lw	a0,20(s1)
  151748:	10800004 	beqz	a0,15175c <_os_lacing_expand+0xe0>
  15174c:	24060168 	li	a2,360
  151750:	0c067e00 	jal	19f800 <free>
  151754:	00000000 	nop
  151758:	24060168 	li	a2,360
  15175c:	00002825 	move	a1,zero
  151760:	0c067a05 	jal	19e814 <memset>
  151764:	02202025 	move	a0,s1
  151768:	1000ffce 	b	1516a4 <_os_lacing_expand+0x28>
  15176c:	2402ffff 	li	v0,-1
  151770:	0c054580 	jal	151600 <ogg_stream_clear>
  151774:	02202025 	move	a0,s1
  151778:	1000ffca 	b	1516a4 <_os_lacing_expand+0x28>
  15177c:	2402ffff 	li	v0,-1

00151780 <ogg_stream_destroy>:
  151780:	1080001b 	beqz	a0,1517f0 <ogg_stream_destroy+0x70>
  151784:	00000000 	nop
  151788:	00801025 	move	v0,a0
  15178c:	8c840000 	lw	a0,0(a0)
  151790:	27bdfff0 	addiu	sp,sp,-16
  151794:	10800004 	beqz	a0,1517a8 <ogg_stream_destroy+0x28>
  151798:	afbf000c 	sw	ra,12(sp)
  15179c:	0c067e00 	jal	19f800 <free>
  1517a0:	afa20000 	sw	v0,0(sp)
  1517a4:	8fa20000 	lw	v0,0(sp)
  1517a8:	8c440010 	lw	a0,16(v0)
  1517ac:	50800005 	beqzl	a0,1517c4 <ogg_stream_destroy+0x44>
  1517b0:	8c440014 	lw	a0,20(v0)
  1517b4:	0c067e00 	jal	19f800 <free>
  1517b8:	afa20000 	sw	v0,0(sp)
  1517bc:	8fa20000 	lw	v0,0(sp)
  1517c0:	8c440014 	lw	a0,20(v0)
  1517c4:	10800004 	beqz	a0,1517d8 <ogg_stream_destroy+0x58>
  1517c8:	00000000 	nop
  1517cc:	0c067e00 	jal	19f800 <free>
  1517d0:	afa20000 	sw	v0,0(sp)
  1517d4:	8fa20000 	lw	v0,0(sp)
  1517d8:	0c067e00 	jal	19f800 <free>
  1517dc:	00402025 	move	a0,v0
  1517e0:	8fbf000c 	lw	ra,12(sp)
  1517e4:	00001025 	move	v0,zero
  1517e8:	03e00008 	jr	ra
  1517ec:	27bd0010 	addiu	sp,sp,16
  1517f0:	03e00008 	jr	ra
  1517f4:	00001025 	move	v0,zero

001517f8 <ogg_page_checksum_set>:
  1517f8:	10800023 	beqz	a0,151888 <ogg_page_checksum_set+0x90>
  1517fc:	0080c825 	move	t9,a0
  151800:	8c820000 	lw	v0,0(a0)
  151804:	27bdfff0 	addiu	sp,sp,-16
  151808:	afbf000c 	sw	ra,12(sp)
  15180c:	a0400016 	sb	zero,22(v0)
  151810:	8f220000 	lw	v0,0(t9)
  151814:	00002025 	move	a0,zero
  151818:	a0400017 	sb	zero,23(v0)
  15181c:	8f220000 	lw	v0,0(t9)
  151820:	a0400018 	sb	zero,24(v0)
--
  151f28:	2406001c 	li	a2,28
  151f2c:	27bdfff8 	addiu	sp,sp,-8
  151f30:	afbf0004 	sw	ra,4(sp)
  151f34:	0c067a05 	jal	19e814 <memset>
  151f38:	00002825 	move	a1,zero
  151f3c:	8fbf0004 	lw	ra,4(sp)
  151f40:	00001025 	move	v0,zero
  151f44:	03e00008 	jr	ra
  151f48:	27bd0008 	addiu	sp,sp,8
  151f4c:	03e00008 	jr	ra
  151f50:	00001025 	move	v0,zero

00151f54 <ogg_sync_clear>:
  151f54:	10800011 	beqz	a0,151f9c <ogg_sync_clear+0x48>
  151f58:	00000000 	nop
  151f5c:	00801025 	move	v0,a0
  151f60:	8c840000 	lw	a0,0(a0)
  151f64:	27bdfff0 	addiu	sp,sp,-16
  151f68:	10800004 	beqz	a0,151f7c <ogg_sync_clear+0x28>
  151f6c:	afbf000c 	sw	ra,12(sp)
  151f70:	0c067e00 	jal	19f800 <free>
  151f74:	afa20000 	sw	v0,0(sp)
  151f78:	8fa20000 	lw	v0,0(sp)
  151f7c:	2406001c 	li	a2,28
  151f80:	00002825 	move	a1,zero
  151f84:	0c067a05 	jal	19e814 <memset>
  151f88:	00402025 	move	a0,v0
  151f8c:	8fbf000c 	lw	ra,12(sp)
  151f90:	00001025 	move	v0,zero
  151f94:	03e00008 	jr	ra
  151f98:	27bd0010 	addiu	sp,sp,16
  151f9c:	03e00008 	jr	ra
  151fa0:	00001025 	move	v0,zero

00151fa4 <ogg_sync_destroy>:
  151fa4:	1080000f 	beqz	a0,151fe4 <ogg_sync_destroy+0x40>
  151fa8:	00000000 	nop
  151fac:	00801025 	move	v0,a0
  151fb0:	8c840000 	lw	a0,0(a0)
  151fb4:	27bdfff0 	addiu	sp,sp,-16
  151fb8:	10800004 	beqz	a0,151fcc <ogg_sync_destroy+0x28>
  151fbc:	afbf000c 	sw	ra,12(sp)
  151fc0:	0c067e00 	jal	19f800 <free>
  151fc4:	afa20000 	sw	v0,0(sp)
  151fc8:	8fa20000 	lw	v0,0(sp)
  151fcc:	0c067e00 	jal	19f800 <free>
  151fd0:	00402025 	move	a0,v0
  151fd4:	8fbf000c 	lw	ra,12(sp)
  151fd8:	00001025 	move	v0,zero
  151fdc:	03e00008 	jr	ra
  151fe0:	27bd0010 	addiu	sp,sp,16
  151fe4:	03e00008 	jr	ra
  151fe8:	00001025 	move	v0,zero

00151fec <ogg_sync_check>:
  151fec:	8c820004 	lw	v0,4(a0)
  151ff0:	03e00008 	jr	ra
  151ff4:	000217c3 	sra	v0,v0,0x1f

00151ff8 <ogg_sync_buffer>:
  151ff8:	8c880004 	lw	t0,4(a0)
  151ffc:	05000049 	bltz	t0,152124 <ogg_sync_buffer+0x12c>
  152000:	00000000 	nop
  152004:	00a03825 	move	a3,a1
  152008:	8c85000c 	lw	a1,12(a0)
  15200c:	27bdfff0 	addiu	sp,sp,-16
--
  1520a0:	ac60000c 	sw	zero,12(v1)
  1520a4:	00852821 	addu	a1,a0,a1
  1520a8:	afa70004 	sw	a3,4(sp)
  1520ac:	0c069598 	jal	1a5660 <memmove>
  1520b0:	afa30000 	sw	v1,0(sp)
  1520b4:	8fa30000 	lw	v1,0(sp)
  1520b8:	8fa70004 	lw	a3,4(sp)
  1520bc:	8c680004 	lw	t0,4(v1)
  1520c0:	8c660008 	lw	a2,8(v1)
  1520c4:	8c640000 	lw	a0,0(v1)
  1520c8:	1000ffd6 	b	152024 <ogg_sync_buffer+0x2c>
  1520cc:	ac60000c 	sw	zero,12(v1)
  1520d0:	00a02025 	move	a0,a1
  1520d4:	0c067dfc 	jal	19f7f0 <malloc>
  1520d8:	afa50000 	sw	a1,0(sp)
  1520dc:	8fa30004 	lw	v1,4(sp)
  1520e0:	1000ffe1 	b	152068 <ogg_sync_buffer+0x70>
  1520e4:	8fa50000 	lw	a1,0(sp)
  1520e8:	10800005 	beqz	a0,152100 <ogg_sync_buffer+0x108>
  1520ec:	2406001c 	li	a2,28
  1520f0:	0c067e00 	jal	19f800 <free>
  1520f4:	afa30000 	sw	v1,0(sp)
  1520f8:	8fa30000 	lw	v1,0(sp)
  1520fc:	2406001c 	li	a2,28
  152100:	00002825 	move	a1,zero
  152104:	0c067a05 	jal	19e814 <memset>
  152108:	00602025 	move	a0,v1
  15210c:	1000ffdc 	b	152080 <ogg_sync_buffer+0x88>
  152110:	00001025 	move	v0,zero
  152114:	0c0547d5 	jal	151f54 <ogg_sync_clear>
  152118:	00602025 	move	a0,v1
  15211c:	1000ffd8 	b	152080 <ogg_sync_buffer+0x88>
  152120:	00001025 	move	v0,zero
  152124:	03e00008 	jr	ra
  152128:	00001025 	move	v0,zero

0015212c <ogg_sync_wrote>:
  15212c:	8c820004 	lw	v0,4(a0)
  152130:	04400008 	bltz	v0,152154 <ogg_sync_wrote+0x28>
  152134:	00000000 	nop
  152138:	8c830008 	lw	v1,8(a0)
--
  152e04:	24020001 	li	v0,1
  152e08:	03e00008 	jr	ra
  152e0c:	00000000 	nop
  152e10:	8c85015c 	lw	a1,348(a0)
  152e14:	24c60001 	addiu	a2,a2,1
  152e18:	24430001 	addiu	v1,v0,1
  152e1c:	0062102b 	sltu	v0,v1,v0
  152e20:	00451021 	addu	v0,v0,a1
  152e24:	ac82015c 	sw	v0,348(a0)
  152e28:	ac860024 	sw	a2,36(a0)
  152e2c:	ac830158 	sw	v1,344(a0)
  152e30:	03e00008 	jr	ra
  152e34:	2402ffff 	li	v0,-1

00152e38 <ogg_packet_clear>:
  152e38:	27bdfff8 	addiu	sp,sp,-8
  152e3c:	afb00000 	sw	s0,0(sp)
  152e40:	00808025 	move	s0,a0
  152e44:	8c840000 	lw	a0,0(a0)
  152e48:	afbf0004 	sw	ra,4(sp)
  152e4c:	0c067e00 	jal	19f800 <free>
  152e50:	00000000 	nop
  152e54:	8fbf0004 	lw	ra,4(sp)
  152e58:	02002025 	move	a0,s0
  152e5c:	8fb00000 	lw	s0,0(sp)
  152e60:	24060020 	li	a2,32
  152e64:	00002825 	move	a1,zero
  152e68:	08067a05 	j	19e814 <memset>
  152e6c:	27bd0008 	addiu	sp,sp,8

00152e70 <pspSdkLoadStartModuleWithArgs>:
  152e70:	27bdf7c0 	addiu	sp,sp,-2112
  152e74:	afbe0838 	sw	s8,2104(sp)
  152e78:	afb30824 	sw	s3,2084(sp)
  152e7c:	afb20820 	sw	s2,2080(sp)
  152e80:	afb00818 	sw	s0,2072(sp)
  152e84:	0080f025 	move	s8,a0
  152e88:	00808025 	move	s0,a0
  152e8c:	00a09825 	move	s3,a1
  152e90:	03a02025 	move	a0,sp
  152e94:	00002825 	move	a1,zero
--
  1a7f48:	afb60048 	sw	s6,72(sp)
  1a7f4c:	afb50044 	sw	s5,68(sp)
  1a7f50:	afb40040 	sw	s4,64(sp)
  1a7f54:	0c06e0f2 	jal	1b83c8 <__gettzinfo>
  1a7f58:	afb20038 	sw	s2,56(sp)
  1a7f5c:	3c05001c 	lui	a1,0x1c
  1a7f60:	02002025 	move	a0,s0
  1a7f64:	24a519b4 	addiu	a1,a1,6580
  1a7f68:	00408825 	move	s1,v0
  1a7f6c:	0c067b86 	jal	19ee18 <_getenv_r>
  1a7f70:	3c10001f 	lui	s0,0x1f
  1a7f74:	10400116 	beqz	v0,1a83d0 <_tzset_unlocked_r+0x4ac>
  1a7f78:	8e0438a4 	lw	a0,14500(s0)
  1a7f7c:	10800006 	beqz	a0,1a7f98 <_tzset_unlocked_r+0x74>
  1a7f80:	00409025 	move	s2,v0
  1a7f84:	00802825 	move	a1,a0
  1a7f88:	0c0678a3 	jal	19e28c <strcmp>
  1a7f8c:	00402025 	move	a0,v0
  1a7f90:	104000e5 	beqz	v0,1a8328 <_tzset_unlocked_r+0x404>
  1a7f94:	8e0438a4 	lw	a0,14500(s0)
  1a7f98:	0c067e00 	jal	19f800 <free>
  1a7f9c:	00000000 	nop
  1a7fa0:	0c06789a 	jal	19e268 <strlen>
  1a7fa4:	02402025 	move	a0,s2
  1a7fa8:	24450001 	addiu	a1,v0,1
  1a7fac:	0c067e04 	jal	19f810 <_malloc_r>
  1a7fb0:	02602025 	move	a0,s3
  1a7fb4:	10400004 	beqz	v0,1a7fc8 <_tzset_unlocked_r+0xa4>
  1a7fb8:	ae0238a4 	sw	v0,14500(s0)
  1a7fbc:	02402825 	move	a1,s2
  1a7fc0:	0c069681 	jal	1a5a04 <strcpy>
  1a7fc4:	00402025 	move	a0,v0
  1a7fc8:	3c04001f 	lui	a0,0x1f
  1a7fcc:	3c05001f 	lui	a1,0x1f
  1a7fd0:	3c10001f 	lui	s0,0x1f
  1a7fd4:	3c02001c 	lui	v0,0x1c
  1a7fd8:	24427844 	addiu	v0,v0,30788
  1a7fdc:	2403004a 	li	v1,74
  1a7fe0:	26063838 	addiu	a2,s0,14392
  1a7fe4:	ac8038a8 	sw	zero,14504(a0)
  1a7fe8:	aca038ac 	sw	zero,14508(a1)
--
  1a83f0:	2442d954 	addiu	v0,v0,-9900
  1a83f4:	24663838 	addiu	a2,v1,14392
  1a83f8:	aca038a8 	sw	zero,14504(a1)
  1a83fc:	ae20000c 	sw	zero,12(s1)
  1a8400:	3c05001f 	lui	a1,0x1f
  1a8404:	ae200010 	sw	zero,16(s1)
  1a8408:	ae200014 	sw	zero,20(s1)
  1a840c:	ae200018 	sw	zero,24(s1)
  1a8410:	ae280020 	sw	t0,32(s1)
  1a8414:	ae290024 	sw	t1,36(s1)
  1a8418:	ae200028 	sw	zero,40(s1)
  1a841c:	ae200034 	sw	zero,52(s1)
  1a8420:	ae200038 	sw	zero,56(s1)
  1a8424:	ae20003c 	sw	zero,60(s1)
  1a8428:	ae200040 	sw	zero,64(s1)
  1a842c:	ae280048 	sw	t0,72(s1)
  1a8430:	ae29004c 	sw	t1,76(s1)
  1a8434:	ae200050 	sw	zero,80(s1)
  1a8438:	aca038ac 	sw	zero,14508(a1)
  1a843c:	ac623838 	sw	v0,14392(v1)
  1a8440:	0c067e00 	jal	19f800 <free>
  1a8444:	acc20004 	sw	v0,4(a2)
  1a8448:	1000ffb7 	b	1a8328 <_tzset_unlocked_r+0x404>
  1a844c:	ae0038a4 	sw	zero,14500(s0)
  1a8450:	2402ffff 	li	v0,-1
  1a8454:	26520001 	addiu	s2,s2,1
  1a8458:	1000ff55 	b	1a81b0 <_tzset_unlocked_r+0x28c>
  1a845c:	afa20020 	sw	v0,32(sp)
  1a8460:	25120001 	addiu	s2,t0,1
  1a8464:	3c02002f 	lui	v0,0x2f
  1a8468:	3c05001d 	lui	a1,0x1d
  1a846c:	02603825 	move	a3,s3
  1a8470:	2446e788 	addiu	a2,v0,-6264
  1a8474:	24a5d958 	addiu	a1,a1,-9896
  1a8478:	02402025 	move	a0,s2
  1a847c:	afa80020 	sw	t0,32(sp)
  1a8480:	0c06aa4e 	jal	1aa938 <siscanf>
  1a8484:	afa2001c 	sw	v0,28(sp)
  1a8488:	1840000c 	blez	v0,1a84bc <_tzset_unlocked_r+0x598>
  1a848c:	8fa80020 	lw	t0,32(sp)
  1a8490:	8fa20004 	lw	v0,4(sp)
--
  1aaea0:	00000000 	nop
  1aaea4:	00c0a825 	move	s5,a2
  1aaea8:	8e820004 	lw	v0,4(s4)
  1aaeac:	58400076 	blezl	v0,1ab088 <__ssvfiscanf_r+0x2dc>
  1aaeb0:	8e850030 	lw	a1,48(s4)
  1aaeb4:	8e820000 	lw	v0,0(s4)
  1aaeb8:	92a4ffff 	lbu	a0,-1(s5)
  1aaebc:	90430000 	lbu	v1,0(v0)
  1aaec0:	5083001b 	beql	a0,v1,1aaf30 <__ssvfiscanf_r+0x184>
  1aaec4:	8e830004 	lw	v1,4(s4)
  1aaec8:	8fc20148 	lw	v0,328(s8)
  1aaecc:	1040000b 	beqz	v0,1aaefc <__ssvfiscanf_r+0x150>
  1aaed0:	8fc20144 	lw	v0,324(s8)
  1aaed4:	8fc30144 	lw	v1,324(s8)
  1aaed8:	2402ffff 	li	v0,-1
  1aaedc:	10620059 	beq	v1,v0,1ab044 <__ssvfiscanf_r+0x298>
  1aaee0:	8fc20148 	lw	v0,328(s8)
  1aaee4:	8c530000 	lw	s3,0(v0)
  1aaee8:	12600004 	beqz	s3,1aaefc <__ssvfiscanf_r+0x150>
  1aaeec:	8fc20144 	lw	v0,324(s8)
  1aaef0:	0c067e00 	jal	19f800 <free>
  1aaef4:	02602025 	move	a0,s3
  1aaef8:	8fc20144 	lw	v0,324(s8)
  1aaefc:	03c0e825 	move	sp,s8
  1aaf00:	8fbf019c 	lw	ra,412(sp)
  1aaf04:	8fbe0198 	lw	s8,408(sp)
  1aaf08:	8fb70194 	lw	s7,404(sp)
  1aaf0c:	8fb60190 	lw	s6,400(sp)
  1aaf10:	8fb5018c 	lw	s5,396(sp)
  1aaf14:	8fb40188 	lw	s4,392(sp)
  1aaf18:	8fb30184 	lw	s3,388(sp)
  1aaf1c:	8fb20180 	lw	s2,384(sp)
  1aaf20:	8fb1017c 	lw	s1,380(sp)
  1aaf24:	8fb00178 	lw	s0,376(sp)
  1aaf28:	03e00008 	jr	ra
  1aaf2c:	27bd01a0 	addiu	sp,sp,416
  1aaf30:	24420001 	addiu	v0,v0,1
  1aaf34:	ae820000 	sw	v0,0(s4)
  1aaf38:	2462ffff 	addiu	v0,v1,-1
  1aaf3c:	ae820004 	sw	v0,4(s4)
  1aaf40:	26f70001 	addiu	s7,s7,1
--
  1ab018:	a682000c 	sh	v0,12(s4)
  1ab01c:	8fc20144 	lw	v0,324(s8)
  1ab020:	50400006 	beqzl	v0,1ab03c <__ssvfiscanf_r+0x290>
  1ab024:	8fc20148 	lw	v0,328(s8)
  1ab028:	9682000c 	lhu	v0,12(s4)
  1ab02c:	30420040 	andi	v0,v0,0x40
  1ab030:	1040ffa6 	beqz	v0,1aaecc <__ssvfiscanf_r+0x120>
  1ab034:	8fc20148 	lw	v0,328(s8)
  1ab038:	8fc20148 	lw	v0,328(s8)
  1ab03c:	1040045a 	beqz	v0,1ac1a8 <__ssvfiscanf_r+0x13fc>
  1ab040:	2402ffff 	li	v0,-1
  1ab044:	8fc20148 	lw	v0,328(s8)
  1ab048:	94520006 	lhu	s2,6(v0)
  1ab04c:	1240000b 	beqz	s2,1ab07c <__ssvfiscanf_r+0x2d0>
  1ab050:	8c530000 	lw	s3,0(v0)
  1ab054:	02608025 	move	s0,s3
  1ab058:	00008825 	move	s1,zero
  1ab05c:	8e020000 	lw	v0,0(s0)
  1ab060:	26310001 	addiu	s1,s1,1
  1ab064:	26100004 	addiu	s0,s0,4
  1ab068:	0c067e00 	jal	19f800 <free>
  1ab06c:	8c440000 	lw	a0,0(v0)
  1ab070:	8e02fffc 	lw	v0,-4(s0)
  1ab074:	1632fff9 	bne	s1,s2,1ab05c <__ssvfiscanf_r+0x2b0>
  1ab078:	ac400000 	sw	zero,0(v0)
  1ab07c:	2402ffff 	li	v0,-1
  1ab080:	1000ff99 	b	1aaee8 <__ssvfiscanf_r+0x13c>
  1ab084:	afc20144 	sw	v0,324(s8)
  1ab088:	10a0ffde 	beqz	a1,1ab004 <__ssvfiscanf_r+0x258>
  1ab08c:	26820040 	addiu	v0,s4,64
  1ab090:	10a20004 	beq	a1,v0,1ab0a4 <__ssvfiscanf_r+0x2f8>
  1ab094:	8fc40140 	lw	a0,320(s8)
  1ab098:	0c06a563 	jal	1a958c <_free_r>
  1ab09c:	afca0158 	sw	t2,344(s8)
  1ab0a0:	8fca0158 	lw	t2,344(s8)
  1ab0a4:	8e82003c 	lw	v0,60(s4)
  1ab0a8:	ae800030 	sw	zero,48(s4)
  1ab0ac:	1040ffd5 	beqz	v0,1ab004 <__ssvfiscanf_r+0x258>
  1ab0b0:	ae820004 	sw	v0,4(s4)
  1ab0b4:	8e820038 	lw	v0,56(s4)
  1ab0b8:	1000ff7f 	b	1aaeb8 <__ssvfiscanf_r+0x10c>
--
  1b01d4:	00000000 	nop
  1b01d8:	01608025 	move	s0,t3
  1b01dc:	8e620004 	lw	v0,4(s3)
  1b01e0:	18400042 	blez	v0,1b02ec <__ssvfscanf_r+0x210>
  1b01e4:	8fc40280 	lw	a0,640(s8)
  1b01e8:	8e620000 	lw	v0,0(s3)
  1b01ec:	9203ffff 	lbu	v1,-1(s0)
  1b01f0:	90440000 	lbu	a0,0(v0)
  1b01f4:	50830031 	beql	a0,v1,1b02bc <__ssvfscanf_r+0x1e0>
  1b01f8:	8e630004 	lw	v1,4(s3)
  1b01fc:	8fc20288 	lw	v0,648(s8)
  1b0200:	1040000b 	beqz	v0,1b0230 <__ssvfscanf_r+0x154>
  1b0204:	8fc20284 	lw	v0,644(s8)
  1b0208:	8fc30284 	lw	v1,644(s8)
  1b020c:	2402ffff 	li	v0,-1
  1b0210:	10620045 	beq	v1,v0,1b0328 <__ssvfscanf_r+0x24c>
  1b0214:	8fc20288 	lw	v0,648(s8)
  1b0218:	8c530000 	lw	s3,0(v0)
  1b021c:	12600004 	beqz	s3,1b0230 <__ssvfscanf_r+0x154>
  1b0220:	8fc20284 	lw	v0,644(s8)
  1b0224:	0c067e00 	jal	19f800 <free>
  1b0228:	02602025 	move	a0,s3
  1b022c:	8fc20284 	lw	v0,644(s8)
  1b0230:	03c0e825 	move	sp,s8
  1b0234:	8fbf02e4 	lw	ra,740(sp)
  1b0238:	8fbe02e0 	lw	s8,736(sp)
  1b023c:	8fb702dc 	lw	s7,732(sp)
  1b0240:	8fb602d8 	lw	s6,728(sp)
  1b0244:	8fb502d4 	lw	s5,724(sp)
  1b0248:	8fb402d0 	lw	s4,720(sp)
  1b024c:	8fb302cc 	lw	s3,716(sp)
  1b0250:	8fb202c8 	lw	s2,712(sp)
  1b0254:	8fb102c4 	lw	s1,708(sp)
  1b0258:	8fb002c0 	lw	s0,704(sp)
  1b025c:	03e00008 	jr	ra
  1b0260:	27bd02e8 	addiu	sp,sp,744
  1b0264:	1000000c 	b	1b0298 <__ssvfscanf_r+0x1bc>
  1b0268:	8e620004 	lw	v0,4(s3)
  1b026c:	90620000 	lbu	v0,0(v1)
  1b0270:	02821021 	addu	v0,s4,v0
  1b0274:	90420000 	lbu	v0,0(v0)
--
  1b02fc:	0260b025 	move	s6,s3
  1b0300:	8fc20284 	lw	v0,644(s8)
  1b0304:	50400006 	beqzl	v0,1b0320 <__ssvfscanf_r+0x244>
  1b0308:	8fc20288 	lw	v0,648(s8)
  1b030c:	96c2000c 	lhu	v0,12(s6)
  1b0310:	30420040 	andi	v0,v0,0x40
  1b0314:	1040ffba 	beqz	v0,1b0200 <__ssvfscanf_r+0x124>
  1b0318:	8fc20288 	lw	v0,648(s8)
  1b031c:	8fc20288 	lw	v0,648(s8)
  1b0320:	104004fb 	beqz	v0,1b1710 <__ssvfscanf_r+0x1634>
  1b0324:	2402ffff 	li	v0,-1
  1b0328:	8fc20288 	lw	v0,648(s8)
  1b032c:	94520006 	lhu	s2,6(v0)
  1b0330:	1240000b 	beqz	s2,1b0360 <__ssvfscanf_r+0x284>
  1b0334:	8c530000 	lw	s3,0(v0)
  1b0338:	02608025 	move	s0,s3
  1b033c:	00008825 	move	s1,zero
  1b0340:	8e020000 	lw	v0,0(s0)
  1b0344:	26310001 	addiu	s1,s1,1
  1b0348:	26100004 	addiu	s0,s0,4
  1b034c:	0c067e00 	jal	19f800 <free>
  1b0350:	8c440000 	lw	a0,0(v0)
  1b0354:	8e02fffc 	lw	v0,-4(s0)
  1b0358:	1632fff9 	bne	s1,s2,1b0340 <__ssvfscanf_r+0x264>
  1b035c:	ac400000 	sw	zero,0(v0)
  1b0360:	2402ffff 	li	v0,-1
  1b0364:	1000ffad 	b	1b021c <__ssvfscanf_r+0x140>
  1b0368:	afc20284 	sw	v0,644(s8)
  1b036c:	3242008f 	andi	v0,s2,0x8f
  1b0370:	5440ffa3 	bnezl	v0,1b0200 <__ssvfscanf_r+0x124>
  1b0374:	8fc20288 	lw	v0,648(s8)
  1b0378:	00161080 	sll	v0,s6,0x2
  1b037c:	0056b021 	addu	s6,v0,s6
  1b0380:	0016b040 	sll	s6,s6,0x1
  1b0384:	02c3b021 	addu	s6,s6,v1
  1b0388:	26d6ffd0 	addiu	s6,s6,-48
  1b038c:	92030001 	lbu	v1,1(s0)
  1b0390:	1000ff86 	b	1b01ac <__ssvfscanf_r+0xd0>
  1b0394:	01608025 	move	s0,t3
  1b0398:	8e620004 	lw	v0,4(s3)
  1b039c:	1840006d 	blez	v0,1b0554 <__ssvfscanf_r+0x478>
--
  1bdaa0:	00041880 	sll	v1,a0,0x2
  1bdaa4:	2442d628 	addiu	v0,v0,-10712
  1bdaa8:	00433021 	addu	a2,v0,v1
  1bdaac:	8cc50000 	lw	a1,0(a2)
  1bdab0:	10a0001a 	beqz	a1,1bdb1c <__fdman_release_descriptor+0x90>
  1bdab4:	00000000 	nop
  1bdab8:	8ca40008 	lw	a0,8(a1)
  1bdabc:	2484ffff 	addiu	a0,a0,-1
  1bdac0:	10800006 	beqz	a0,1bdadc <__fdman_release_descriptor+0x50>
  1bdac4:	aca40008 	sw	a0,8(a1)
  1bdac8:	8fbf0014 	lw	ra,20(sp)
  1bdacc:	00431021 	addu	v0,v0,v1
  1bdad0:	ac400000 	sw	zero,0(v0)
  1bdad4:	03e00008 	jr	ra
  1bdad8:	27bd0018 	addiu	sp,sp,24
  1bdadc:	8ca4000c 	lw	a0,12(a1)
  1bdae0:	5080000a 	beqzl	a0,1bdb0c <__fdman_release_descriptor+0x80>
  1bdae4:	aca0000c 	sw	zero,12(a1)
  1bdae8:	afa20004 	sw	v0,4(sp)
  1bdaec:	afa30000 	sw	v1,0(sp)
  1bdaf0:	0c067e00 	jal	19f800 <free>
  1bdaf4:	afa60008 	sw	a2,8(sp)
  1bdaf8:	8fa60008 	lw	a2,8(sp)
  1bdafc:	8fa20004 	lw	v0,4(sp)
  1bdb00:	8fa30000 	lw	v1,0(sp)
  1bdb04:	8cc50000 	lw	a1,0(a2)
  1bdb08:	aca0000c 	sw	zero,12(a1)
  1bdb0c:	aca00000 	sw	zero,0(a1)
  1bdb10:	a0a00010 	sb	zero,16(a1)
  1bdb14:	1000ffec 	b	1bdac8 <__fdman_release_descriptor+0x3c>
  1bdb18:	aca00004 	sw	zero,4(a1)
  1bdb1c:	0c06a378 	jal	1a8de0 <__errno>
  1bdb20:	00000000 	nop
  1bdb24:	8fbf0014 	lw	ra,20(sp)
  1bdb28:	24030009 	li	v1,9
  1bdb2c:	ac430000 	sw	v1,0(v0)
  1bdb30:	03e00008 	jr	ra
  1bdb34:	27bd0018 	addiu	sp,sp,24

001bdb38 <__pipe_peekmsgsize>:
  1bdb38:	27bdffc0 	addiu	sp,sp,-64
